
Atmega128.elf:     file format elf32-avr

Sections:
Idx Name          Size      VMA       LMA       File off  Algn
  0 .data         00000054  00800100  00003848  000038dc  2**0
                  CONTENTS, ALLOC, LOAD, DATA
  1 .text         00003848  00000000  00000000  00000094  2**1
                  CONTENTS, ALLOC, LOAD, READONLY, CODE
  2 .bss          000002f8  00800154  00800154  00003930  2**0
                  ALLOC
  3 .comment      00000030  00000000  00000000  00003930  2**0
                  CONTENTS, READONLY
  4 .note.gnu.avr.deviceinfo 0000003c  00000000  00000000  00003960  2**2
                  CONTENTS, READONLY
  5 .debug_aranges 00000658  00000000  00000000  0000399c  2**0
                  CONTENTS, READONLY, DEBUGGING
  6 .debug_info   00007a4d  00000000  00000000  00003ff4  2**0
                  CONTENTS, READONLY, DEBUGGING
  7 .debug_abbrev 00001d54  00000000  00000000  0000ba41  2**0
                  CONTENTS, READONLY, DEBUGGING
  8 .debug_line   00004315  00000000  00000000  0000d795  2**0
                  CONTENTS, READONLY, DEBUGGING
  9 .debug_frame  00001284  00000000  00000000  00011aac  2**2
                  CONTENTS, READONLY, DEBUGGING
 10 .debug_str    00001539  00000000  00000000  00012d30  2**0
                  CONTENTS, READONLY, DEBUGGING
 11 .debug_loc    00006eb2  00000000  00000000  00014269  2**0
                  CONTENTS, READONLY, DEBUGGING
 12 .debug_ranges 000005b8  00000000  00000000  0001b11b  2**0
                  CONTENTS, READONLY, DEBUGGING

Disassembly of section .text:

00000000 <__vectors>:
       0:	60 c0       	rjmp	.+192    	; 0xc2 <__ctors_end>
       2:	00 00       	nop
       4:	7d c0       	rjmp	.+250    	; 0x100 <__bad_interrupt>
       6:	00 00       	nop
       8:	7b c0       	rjmp	.+246    	; 0x100 <__bad_interrupt>
       a:	00 00       	nop
       c:	79 c0       	rjmp	.+242    	; 0x100 <__bad_interrupt>
       e:	00 00       	nop
      10:	77 c0       	rjmp	.+238    	; 0x100 <__bad_interrupt>
      12:	00 00       	nop
      14:	75 c0       	rjmp	.+234    	; 0x100 <__bad_interrupt>
      16:	00 00       	nop
      18:	73 c0       	rjmp	.+230    	; 0x100 <__bad_interrupt>
      1a:	00 00       	nop
      1c:	71 c0       	rjmp	.+226    	; 0x100 <__bad_interrupt>
      1e:	00 00       	nop
      20:	6f c0       	rjmp	.+222    	; 0x100 <__bad_interrupt>
      22:	00 00       	nop
      24:	6d c0       	rjmp	.+218    	; 0x100 <__bad_interrupt>
      26:	00 00       	nop
      28:	e7 c4       	rjmp	.+2510   	; 0x9f8 <__vector_10>
      2a:	00 00       	nop
      2c:	b3 c4       	rjmp	.+2406   	; 0x994 <__vector_11>
      2e:	00 00       	nop
      30:	bb c4       	rjmp	.+2422   	; 0x9a8 <__vector_12>
      32:	00 00       	nop
      34:	c3 c4       	rjmp	.+2438   	; 0x9bc <__vector_13>
      36:	00 00       	nop
      38:	d5 c4       	rjmp	.+2474   	; 0x9e4 <__vector_14>
      3a:	00 00       	nop
      3c:	0c 94 ba 18 	jmp	0x3174	; 0x3174 <__vector_15>
      40:	9f c4       	rjmp	.+2366   	; 0x980 <__vector_16>
      42:	00 00       	nop
      44:	5d c0       	rjmp	.+186    	; 0x100 <__bad_interrupt>
      46:	00 00       	nop
      48:	13 c5       	rjmp	.+2598   	; 0xa70 <__vector_18>
      4a:	00 00       	nop
      4c:	47 c5       	rjmp	.+2702   	; 0xadc <__vector_19>
      4e:	00 00       	nop
      50:	57 c0       	rjmp	.+174    	; 0x100 <__bad_interrupt>
      52:	00 00       	nop
      54:	d3 c1       	rjmp	.+934    	; 0x3fc <__vector_21>
      56:	00 00       	nop
      58:	53 c0       	rjmp	.+166    	; 0x100 <__bad_interrupt>
      5a:	00 00       	nop
      5c:	51 c0       	rjmp	.+162    	; 0x100 <__bad_interrupt>
      5e:	00 00       	nop
      60:	b7 c4       	rjmp	.+2414   	; 0x9d0 <__vector_24>
      62:	00 00       	nop
      64:	d3 c4       	rjmp	.+2470   	; 0xa0c <__vector_25>
      66:	00 00       	nop
      68:	db c4       	rjmp	.+2486   	; 0xa20 <__vector_26>
      6a:	00 00       	nop
      6c:	e3 c4       	rjmp	.+2502   	; 0xa34 <__vector_27>
      6e:	00 00       	nop
      70:	eb c4       	rjmp	.+2518   	; 0xa48 <__vector_28>
      72:	00 00       	nop
      74:	f3 c4       	rjmp	.+2534   	; 0xa5c <__vector_29>
      76:	00 00       	nop
      78:	5a c5       	rjmp	.+2740   	; 0xb2e <__vector_30>
      7a:	00 00       	nop
      7c:	91 c5       	rjmp	.+2850   	; 0xba0 <__vector_31>
      7e:	00 00       	nop
      80:	3f c0       	rjmp	.+126    	; 0x100 <__bad_interrupt>
      82:	00 00       	nop
      84:	3d c0       	rjmp	.+122    	; 0x100 <__bad_interrupt>
      86:	00 00       	nop
      88:	3b c0       	rjmp	.+118    	; 0x100 <__bad_interrupt>
      8a:	00 00       	nop
      8c:	e1 03       	fmuls	r22, r17
      8e:	e5 03       	fmuls	r22, r21
      90:	e9 03       	fmulsu	r22, r17
      92:	ed 03       	fmulsu	r22, r21
      94:	f1 03       	fmuls	r23, r17
      96:	f8 03       	fmulsu	r23, r16
      98:	ff 03       	fmulsu	r23, r23
      9a:	06 04       	cpc	r0, r6
      9c:	0a 04       	cpc	r0, r10
      9e:	11 04       	cpc	r1, r1
      a0:	18 04       	cpc	r1, r8
      a2:	1f 04       	cpc	r1, r15
      a4:	23 04       	cpc	r2, r3
      a6:	2a 04       	cpc	r2, r10
      a8:	31 04       	cpc	r3, r1
      aa:	4d 04       	cpc	r4, r13
      ac:	51 04       	cpc	r5, r1
      ae:	55 04       	cpc	r5, r5
      b0:	59 04       	cpc	r5, r9
      b2:	5f 04       	cpc	r5, r15
      b4:	63 04       	cpc	r6, r3
      b6:	67 04       	cpc	r6, r7
      b8:	6b 04       	cpc	r6, r11
      ba:	74 04       	cpc	r7, r4
      bc:	78 04       	cpc	r7, r8
      be:	7c 04       	cpc	r7, r12
      c0:	85 04       	cpc	r8, r5

000000c2 <__ctors_end>:
      c2:	11 24       	eor	r1, r1
      c4:	1f be       	out	0x3f, r1	; 63
      c6:	cf ef       	ldi	r28, 0xFF	; 255
      c8:	d0 e1       	ldi	r29, 0x10	; 16
      ca:	de bf       	out	0x3e, r29	; 62
      cc:	cd bf       	out	0x3d, r28	; 61

000000ce <__do_copy_data>:
      ce:	11 e0       	ldi	r17, 0x01	; 1
      d0:	a0 e0       	ldi	r26, 0x00	; 0
      d2:	b1 e0       	ldi	r27, 0x01	; 1
      d4:	e8 e4       	ldi	r30, 0x48	; 72
      d6:	f8 e3       	ldi	r31, 0x38	; 56
      d8:	00 e0       	ldi	r16, 0x00	; 0
      da:	0b bf       	out	0x3b, r16	; 59
      dc:	02 c0       	rjmp	.+4      	; 0xe2 <__do_copy_data+0x14>
      de:	07 90       	elpm	r0, Z+
      e0:	0d 92       	st	X+, r0
      e2:	a4 35       	cpi	r26, 0x54	; 84
      e4:	b1 07       	cpc	r27, r17
      e6:	d9 f7       	brne	.-10     	; 0xde <__do_copy_data+0x10>

000000e8 <__do_clear_bss>:
      e8:	24 e0       	ldi	r18, 0x04	; 4
      ea:	a4 e5       	ldi	r26, 0x54	; 84
      ec:	b1 e0       	ldi	r27, 0x01	; 1
      ee:	01 c0       	rjmp	.+2      	; 0xf2 <.do_clear_bss_start>

000000f0 <.do_clear_bss_loop>:
      f0:	1d 92       	st	X+, r1

000000f2 <.do_clear_bss_start>:
      f2:	ac 34       	cpi	r26, 0x4C	; 76
      f4:	b2 07       	cpc	r27, r18
      f6:	e1 f7       	brne	.-8      	; 0xf0 <.do_clear_bss_loop>
      f8:	0e 94 1f 11 	call	0x223e	; 0x223e <main>
      fc:	0c 94 22 1c 	jmp	0x3844	; 0x3844 <_exit>

00000100 <__bad_interrupt>:
     100:	7f cf       	rjmp	.-258    	; 0x0 <__vectors>

00000102 <HC595_shift_bit>:
	//
	return hc595;
}
void HC595_shift_bit(uint8_t bool)
{
	if (bool)
     102:	88 23       	and	r24, r24
     104:	89 f0       	breq	.+34     	; 0x128 <HC595_shift_bit+0x26>
		*hc595_PORT |= (1<<HC595_datapin); //Data bit HIGH
     106:	e0 91 83 01 	lds	r30, 0x0183	; 0x800183 <hc595_PORT>
     10a:	f0 91 84 01 	lds	r31, 0x0184	; 0x800184 <hc595_PORT+0x1>
     10e:	20 81       	ld	r18, Z
     110:	81 e0       	ldi	r24, 0x01	; 1
     112:	90 e0       	ldi	r25, 0x00	; 0
     114:	00 90 85 01 	lds	r0, 0x0185	; 0x800185 <HC595_datapin>
     118:	02 c0       	rjmp	.+4      	; 0x11e <HC595_shift_bit+0x1c>
     11a:	88 0f       	add	r24, r24
     11c:	99 1f       	adc	r25, r25
     11e:	0a 94       	dec	r0
     120:	e2 f7       	brpl	.-8      	; 0x11a <HC595_shift_bit+0x18>
     122:	82 2b       	or	r24, r18
     124:	80 83       	st	Z, r24
     126:	11 c0       	rjmp	.+34     	; 0x14a <HC595_shift_bit+0x48>
	else
		*hc595_PORT &= ~(1<<HC595_datapin); //Data bit LOW
     128:	e0 91 83 01 	lds	r30, 0x0183	; 0x800183 <hc595_PORT>
     12c:	f0 91 84 01 	lds	r31, 0x0184	; 0x800184 <hc595_PORT+0x1>
     130:	20 81       	ld	r18, Z
     132:	81 e0       	ldi	r24, 0x01	; 1
     134:	90 e0       	ldi	r25, 0x00	; 0
     136:	00 90 85 01 	lds	r0, 0x0185	; 0x800185 <HC595_datapin>
     13a:	02 c0       	rjmp	.+4      	; 0x140 <HC595_shift_bit+0x3e>
     13c:	88 0f       	add	r24, r24
     13e:	99 1f       	adc	r25, r25
     140:	0a 94       	dec	r0
     142:	e2 f7       	brpl	.-8      	; 0x13c <HC595_shift_bit+0x3a>
     144:	80 95       	com	r24
     146:	82 23       	and	r24, r18
     148:	80 83       	st	Z, r24
	*hc595_PORT |= (1<<HC595_clkpin); // Shift bit
     14a:	e0 91 83 01 	lds	r30, 0x0183	; 0x800183 <hc595_PORT>
     14e:	f0 91 84 01 	lds	r31, 0x0184	; 0x800184 <hc595_PORT+0x1>
     152:	40 81       	ld	r20, Z
     154:	81 e0       	ldi	r24, 0x01	; 1
     156:	90 e0       	ldi	r25, 0x00	; 0
     158:	9c 01       	movw	r18, r24
     15a:	00 90 87 01 	lds	r0, 0x0187	; 0x800187 <HC595_clkpin>
     15e:	02 c0       	rjmp	.+4      	; 0x164 <HC595_shift_bit+0x62>
     160:	22 0f       	add	r18, r18
     162:	33 1f       	adc	r19, r19
     164:	0a 94       	dec	r0
     166:	e2 f7       	brpl	.-8      	; 0x160 <HC595_shift_bit+0x5e>
     168:	24 2b       	or	r18, r20
     16a:	20 83       	st	Z, r18
	*hc595_PORT &= ~(1<<HC595_clkpin); //Shift disable
     16c:	e0 91 83 01 	lds	r30, 0x0183	; 0x800183 <hc595_PORT>
     170:	f0 91 84 01 	lds	r31, 0x0184	; 0x800184 <hc595_PORT+0x1>
     174:	20 81       	ld	r18, Z
     176:	00 90 87 01 	lds	r0, 0x0187	; 0x800187 <HC595_clkpin>
     17a:	02 c0       	rjmp	.+4      	; 0x180 <HC595_shift_bit+0x7e>
     17c:	88 0f       	add	r24, r24
     17e:	99 1f       	adc	r25, r25
     180:	0a 94       	dec	r0
     182:	e2 f7       	brpl	.-8      	; 0x17c <HC595_shift_bit+0x7a>
     184:	80 95       	com	r24
     186:	82 23       	and	r24, r18
     188:	80 83       	st	Z, r24
     18a:	08 95       	ret

0000018c <HC595_shift_out>:
		HC595_shift_bit(byte & (1<<i));
	HC595_shift_out();
}
void HC595_shift_out(void)
{
	*hc595_PORT |= (1<<HC595_outpin); //Output enable
     18c:	e0 91 83 01 	lds	r30, 0x0183	; 0x800183 <hc595_PORT>
     190:	f0 91 84 01 	lds	r31, 0x0184	; 0x800184 <hc595_PORT+0x1>
     194:	40 81       	ld	r20, Z
     196:	81 e0       	ldi	r24, 0x01	; 1
     198:	90 e0       	ldi	r25, 0x00	; 0
     19a:	9c 01       	movw	r18, r24
     19c:	00 90 86 01 	lds	r0, 0x0186	; 0x800186 <HC595_outpin>
     1a0:	02 c0       	rjmp	.+4      	; 0x1a6 <HC595_shift_out+0x1a>
     1a2:	22 0f       	add	r18, r18
     1a4:	33 1f       	adc	r19, r19
     1a6:	0a 94       	dec	r0
     1a8:	e2 f7       	brpl	.-8      	; 0x1a2 <HC595_shift_out+0x16>
     1aa:	24 2b       	or	r18, r20
     1ac:	20 83       	st	Z, r18
	*hc595_PORT &= ~(1<<HC595_outpin); //Output disable
     1ae:	e0 91 83 01 	lds	r30, 0x0183	; 0x800183 <hc595_PORT>
     1b2:	f0 91 84 01 	lds	r31, 0x0184	; 0x800184 <hc595_PORT+0x1>
     1b6:	20 81       	ld	r18, Z
     1b8:	00 90 86 01 	lds	r0, 0x0186	; 0x800186 <HC595_outpin>
     1bc:	02 c0       	rjmp	.+4      	; 0x1c2 <HC595_shift_out+0x36>
     1be:	88 0f       	add	r24, r24
     1c0:	99 1f       	adc	r25, r25
     1c2:	0a 94       	dec	r0
     1c4:	e2 f7       	brpl	.-8      	; 0x1be <HC595_shift_out+0x32>
     1c6:	80 95       	com	r24
     1c8:	82 23       	and	r24, r18
     1ca:	80 83       	st	Z, r24
     1cc:	08 95       	ret

000001ce <HC595_shift_byte>:
		*hc595_PORT &= ~(1<<HC595_datapin); //Data bit LOW
	*hc595_PORT |= (1<<HC595_clkpin); // Shift bit
	*hc595_PORT &= ~(1<<HC595_clkpin); //Shift disable
}
void HC595_shift_byte(uint8_t byte)
{
     1ce:	ff 92       	push	r15
     1d0:	0f 93       	push	r16
     1d2:	1f 93       	push	r17
     1d4:	cf 93       	push	r28
     1d6:	df 93       	push	r29
     1d8:	f8 2e       	mov	r15, r24
     1da:	c0 e0       	ldi	r28, 0x00	; 0
     1dc:	d0 e0       	ldi	r29, 0x00	; 0
	uint8_t i;
	for(i=0;i<8;i++)
		HC595_shift_bit(byte & (1<<i));
     1de:	01 e0       	ldi	r16, 0x01	; 1
     1e0:	10 e0       	ldi	r17, 0x00	; 0
     1e2:	c8 01       	movw	r24, r16
     1e4:	0c 2e       	mov	r0, r28
     1e6:	02 c0       	rjmp	.+4      	; 0x1ec <HC595_shift_byte+0x1e>
     1e8:	88 0f       	add	r24, r24
     1ea:	99 1f       	adc	r25, r25
     1ec:	0a 94       	dec	r0
     1ee:	e2 f7       	brpl	.-8      	; 0x1e8 <HC595_shift_byte+0x1a>
     1f0:	8f 21       	and	r24, r15
     1f2:	87 df       	rcall	.-242    	; 0x102 <HC595_shift_bit>
     1f4:	21 96       	adiw	r28, 0x01	; 1
	*hc595_PORT &= ~(1<<HC595_clkpin); //Shift disable
}
void HC595_shift_byte(uint8_t byte)
{
	uint8_t i;
	for(i=0;i<8;i++)
     1f6:	c8 30       	cpi	r28, 0x08	; 8
     1f8:	d1 05       	cpc	r29, r1
		HC595_shift_bit(byte & (1<<i));
	HC595_shift_out();
     1fa:	99 f7       	brne	.-26     	; 0x1e2 <HC595_shift_byte+0x14>
     1fc:	c7 df       	rcall	.-114    	; 0x18c <HC595_shift_out>
}
     1fe:	df 91       	pop	r29
     200:	cf 91       	pop	r28
     202:	1f 91       	pop	r17
     204:	0f 91       	pop	r16
     206:	ff 90       	pop	r15
     208:	08 95       	ret

0000020a <HC595enable>:
void HC595_shift_bit(uint8_t bool);
void HC595_shift_byte(uint8_t byte);
void HC595_shift_out(void);
/***Procedure & Function***/
HC595 HC595enable(volatile uint8_t *ddr, volatile uint8_t *port, uint8_t datapin, uint8_t clkpin, uint8_t outpin)
{
     20a:	0f 93       	push	r16
     20c:	cf 93       	push	r28
     20e:	df 93       	push	r29
     210:	00 d0       	rcall	.+0      	; 0x212 <HC595enable+0x8>
     212:	00 d0       	rcall	.+0      	; 0x214 <HC595enable+0xa>
     214:	00 d0       	rcall	.+0      	; 0x216 <HC595enable+0xc>
     216:	cd b7       	in	r28, 0x3d	; 61
     218:	de b7       	in	r29, 0x3e	; 62
	//LOCAL VARIABLES
	uint8_t tSREG;
	tSREG=SREG;
     21a:	5f b7       	in	r21, 0x3f	; 63
	SREG&=~(1<<GLOBAL_INTERRUPT_ENABLE);
     21c:	3f b7       	in	r19, 0x3f	; 63
     21e:	3f 77       	andi	r19, 0x7F	; 127
     220:	3f bf       	out	0x3f, r19	; 63
	//ALLOCAÇÂO MEMORIA PARA Estrutura
	HC595 hc595;
	//import parametros
	hc595_DDR=ddr;
     222:	90 93 82 01 	sts	0x0182, r25	; 0x800182 <hc595_DDR+0x1>
     226:	80 93 81 01 	sts	0x0181, r24	; 0x800181 <hc595_DDR>
	hc595_PORT=port;
     22a:	70 93 84 01 	sts	0x0184, r23	; 0x800184 <hc595_PORT+0x1>
     22e:	60 93 83 01 	sts	0x0183, r22	; 0x800183 <hc595_PORT>
	HC595_datapin=datapin;
     232:	40 93 85 01 	sts	0x0185, r20	; 0x800185 <HC595_datapin>
	HC595_clkpin=clkpin;
     236:	20 93 87 01 	sts	0x0187, r18	; 0x800187 <HC595_clkpin>
	HC595_outpin=outpin;
     23a:	00 93 86 01 	sts	0x0186, r16	; 0x800186 <HC595_outpin>
	//inic variables
    *hc595_DDR |= (1<<datapin) | (1<<clkpin) | (1<<outpin);
     23e:	fc 01       	movw	r30, r24
     240:	30 81       	ld	r19, Z
     242:	61 e0       	ldi	r22, 0x01	; 1
     244:	70 e0       	ldi	r23, 0x00	; 0
     246:	db 01       	movw	r26, r22
     248:	02 c0       	rjmp	.+4      	; 0x24e <HC595enable+0x44>
     24a:	aa 0f       	add	r26, r26
     24c:	bb 1f       	adc	r27, r27
     24e:	2a 95       	dec	r18
     250:	e2 f7       	brpl	.-8      	; 0x24a <HC595enable+0x40>
     252:	fb 01       	movw	r30, r22
     254:	02 c0       	rjmp	.+4      	; 0x25a <HC595enable+0x50>
     256:	ee 0f       	add	r30, r30
     258:	ff 1f       	adc	r31, r31
     25a:	0a 95       	dec	r16
     25c:	e2 f7       	brpl	.-8      	; 0x256 <HC595enable+0x4c>
     25e:	ea 2b       	or	r30, r26
     260:	02 c0       	rjmp	.+4      	; 0x266 <HC595enable+0x5c>
     262:	66 0f       	add	r22, r22
     264:	77 1f       	adc	r23, r23
     266:	4a 95       	dec	r20
     268:	e2 f7       	brpl	.-8      	; 0x262 <HC595enable+0x58>
     26a:	6e 2b       	or	r22, r30
     26c:	23 2f       	mov	r18, r19
     26e:	26 2b       	or	r18, r22
     270:	fc 01       	movw	r30, r24
     272:	20 83       	st	Z, r18
	*hc595_PORT &= ~((1<<datapin) | (1<<clkpin) | (1<<outpin));
     274:	e0 91 83 01 	lds	r30, 0x0183	; 0x800183 <hc595_PORT>
     278:	f0 91 84 01 	lds	r31, 0x0184	; 0x800184 <hc595_PORT+0x1>
     27c:	80 81       	ld	r24, Z
     27e:	60 95       	com	r22
     280:	68 23       	and	r22, r24
     282:	60 83       	st	Z, r22
	//Direccionar apontadores para PROTOTIPOS
	hc595.bit=HC595_shift_bit;
	hc595.byte=HC595_shift_byte;
	hc595.out=HC595_shift_out;
	SREG=tSREG;
     284:	5f bf       	out	0x3f, r21	; 63
	//
	return hc595;
     286:	21 e8       	ldi	r18, 0x81	; 129
     288:	30 e0       	ldi	r19, 0x00	; 0
     28a:	3a 83       	std	Y+2, r19	; 0x02
     28c:	29 83       	std	Y+1, r18	; 0x01
     28e:	47 ee       	ldi	r20, 0xE7	; 231
     290:	50 e0       	ldi	r21, 0x00	; 0
     292:	5c 83       	std	Y+4, r21	; 0x04
     294:	4b 83       	std	Y+3, r20	; 0x03
     296:	66 ec       	ldi	r22, 0xC6	; 198
     298:	70 e0       	ldi	r23, 0x00	; 0
     29a:	7e 83       	std	Y+6, r23	; 0x06
     29c:	6d 83       	std	Y+5, r22	; 0x05
     29e:	3a 81       	ldd	r19, Y+2	; 0x02
     2a0:	5c 81       	ldd	r21, Y+4	; 0x04
     2a2:	7e 81       	ldd	r23, Y+6	; 0x06
}
     2a4:	80 e0       	ldi	r24, 0x00	; 0
     2a6:	90 e0       	ldi	r25, 0x00	; 0
     2a8:	26 96       	adiw	r28, 0x06	; 6
     2aa:	0f b6       	in	r0, 0x3f	; 63
     2ac:	f8 94       	cli
     2ae:	de bf       	out	0x3e, r29	; 62
     2b0:	0f be       	out	0x3f, r0	; 63
     2b2:	cd bf       	out	0x3d, r28	; 61
     2b4:	df 91       	pop	r29
     2b6:	cf 91       	pop	r28
     2b8:	0f 91       	pop	r16
     2ba:	08 95       	ret

000002bc <ANALOG_read>:
Returns selected Channel ADC_VALUE
***/
{
	uint8_t ADSC_FLAG;
	ADSC_FLAG=(1<<ADSC);
	if( !(ADC_CONTROL & ADSC_FLAG) ){
     2bc:	36 9b       	sbis	0x06, 6	; 6
		//ADC_SELECT
		/***/
		ADC_CONTROL|=(1<<ADSC);
     2be:	36 9a       	sbi	0x06, 6	; 6
	}	
	return ADC_VALUE[selection];
     2c0:	fc 01       	movw	r30, r24
     2c2:	ee 0f       	add	r30, r30
     2c4:	ff 1f       	adc	r31, r31
     2c6:	e3 59       	subi	r30, 0x93	; 147
     2c8:	fe 4f       	sbci	r31, 0xFE	; 254
     2ca:	80 81       	ld	r24, Z
     2cc:	91 81       	ldd	r25, Z+1	; 0x01
}
     2ce:	08 95       	ret

000002d0 <ANALOGenable>:
ANALOG ANALOGenable( uint8_t Vreff, uint8_t Divfactor, int n_channel, ... )
/***
Interrupt running mode setup
setup, and list of channels to be probed
***/
{
     2d0:	0f 93       	push	r16
     2d2:	1f 93       	push	r17
     2d4:	cf 93       	push	r28
     2d6:	df 93       	push	r29
     2d8:	cd b7       	in	r28, 0x3d	; 61
     2da:	de b7       	in	r29, 0x3e	; 62
     2dc:	9f 81       	ldd	r25, Y+7	; 0x07
     2de:	68 85       	ldd	r22, Y+8	; 0x08
     2e0:	49 85       	ldd	r20, Y+9	; 0x09
     2e2:	5a 85       	ldd	r21, Y+10	; 0x0a
	/***LOCAL VARIABLES***/
	uint8_t tSREG;
	va_list list;
	int i;
	//inic variables
	tSREG=STATUS_REGISTER;
     2e4:	1f b7       	in	r17, 0x3f	; 63
	STATUS_REGISTER&=~(1<<GLOBAL_INTERRUPT_ENABLE);
     2e6:	8f b7       	in	r24, 0x3f	; 63
     2e8:	8f 77       	andi	r24, 0x7F	; 127
     2ea:	8f bf       	out	0x3f, r24	; 63
	/***GLOBAL VARIABLES INICIALIZE***/
	ADC_N_CHANNEL=n_channel;
     2ec:	50 93 5c 01 	sts	0x015C, r21	; 0x80015c <ADC_N_CHANNEL+0x1>
     2f0:	40 93 5b 01 	sts	0x015B, r20	; 0x80015b <ADC_N_CHANNEL>
	ADC_SELECTOR=0;
     2f4:	10 92 5a 01 	sts	0x015A, r1	; 0x80015a <ADC_SELECTOR+0x1>
     2f8:	10 92 59 01 	sts	0x0159, r1	; 0x800159 <ADC_SELECTOR>
	adc_n_sample=0;
     2fc:	10 92 54 01 	sts	0x0154, r1	; 0x800154 <__data_end>
	//import parametros
	//inic parameters
	//Direccionar apontadores para PROTOTIPOS
	analog.read=ANALOG_read;
		/******/
		ADC_SELECT&=~(3<<REFS0);
     300:	87 b1       	in	r24, 0x07	; 7
     302:	8f 73       	andi	r24, 0x3F	; 63
     304:	87 b9       	out	0x07, r24	; 7
		switch( Vreff ){
     306:	91 30       	cpi	r25, 0x01	; 1
     308:	19 f0       	breq	.+6      	; 0x310 <ANALOGenable+0x40>
     30a:	93 30       	cpi	r25, 0x03	; 3
     30c:	21 f0       	breq	.+8      	; 0x316 <ANALOGenable+0x46>
     30e:	08 c0       	rjmp	.+16     	; 0x320 <ANALOGenable+0x50>
			case 0:
				analog.VREFF=0;
				break;
			case 1:
				ADC_SELECT|=(1<<REFS0);
     310:	3e 9a       	sbi	0x07, 6	; 7
				analog.VREFF=1;
     312:	01 e0       	ldi	r16, 0x01	; 1
				break;
     314:	06 c0       	rjmp	.+12     	; 0x322 <ANALOGenable+0x52>
			case 3:
				ADC_SELECT|=(3<<REFS0);
     316:	87 b1       	in	r24, 0x07	; 7
     318:	80 6c       	ori	r24, 0xC0	; 192
     31a:	87 b9       	out	0x07, r24	; 7
				analog.VREFF=3;
     31c:	03 e0       	ldi	r16, 0x03	; 3
				break;
     31e:	01 c0       	rjmp	.+2      	; 0x322 <ANALOGenable+0x52>
	analog.read=ANALOG_read;
		/******/
		ADC_SELECT&=~(3<<REFS0);
		switch( Vreff ){
			case 0:
				analog.VREFF=0;
     320:	00 e0       	ldi	r16, 0x00	; 0
			default:
				analog.VREFF=0;
				break;
		}
		//
		ADC_SELECT&=~(1<<ADLAR);
     322:	3d 98       	cbi	0x07, 5	; 7
		/******/
		va_start(list, n_channel);
		for(i=0;i<n_channel;i++){
     324:	14 16       	cp	r1, r20
     326:	15 06       	cpc	r1, r21
     328:	8c f4       	brge	.+34     	; 0x34c <ANALOGenable+0x7c>
     32a:	de 01       	movw	r26, r28
     32c:	1b 96       	adiw	r26, 0x0b	; 11
     32e:	80 e0       	ldi	r24, 0x00	; 0
     330:	90 e0       	ldi	r25, 0x00	; 0
			ADC_CHANNEL_GAIN[i] = va_arg(list, int);
     332:	2d 91       	ld	r18, X+
     334:	3d 91       	ld	r19, X+
     336:	fc 01       	movw	r30, r24
     338:	ee 0f       	add	r30, r30
     33a:	ff 1f       	adc	r31, r31
     33c:	e3 5a       	subi	r30, 0xA3	; 163
     33e:	fe 4f       	sbci	r31, 0xFE	; 254
     340:	31 83       	std	Z+1, r19	; 0x01
     342:	20 83       	st	Z, r18
		}
		//
		ADC_SELECT&=~(1<<ADLAR);
		/******/
		va_start(list, n_channel);
		for(i=0;i<n_channel;i++){
     344:	01 96       	adiw	r24, 0x01	; 1
     346:	48 17       	cp	r20, r24
     348:	59 07       	cpc	r21, r25
     34a:	99 f7       	brne	.-26     	; 0x332 <ANALOGenable+0x62>
			ADC_CHANNEL_GAIN[i] = va_arg(list, int);
		}
		va_end(list);
		ADC_SELECT&=~MUX_MASK;
     34c:	87 b1       	in	r24, 0x07	; 7
     34e:	80 7e       	andi	r24, 0xE0	; 224
     350:	87 b9       	out	0x07, r24	; 7
		ADC_SELECT|=(MUX_MASK & ADC_CHANNEL_GAIN[ADC_SELECTOR]);
     352:	e0 91 59 01 	lds	r30, 0x0159	; 0x800159 <ADC_SELECTOR>
     356:	f0 91 5a 01 	lds	r31, 0x015A	; 0x80015a <ADC_SELECTOR+0x1>
     35a:	ee 0f       	add	r30, r30
     35c:	ff 1f       	adc	r31, r31
     35e:	e3 5a       	subi	r30, 0xA3	; 163
     360:	fe 4f       	sbci	r31, 0xFE	; 254
     362:	80 81       	ld	r24, Z
     364:	91 81       	ldd	r25, Z+1	; 0x01
     366:	27 b1       	in	r18, 0x07	; 7
     368:	8f 71       	andi	r24, 0x1F	; 31
     36a:	99 27       	eor	r25, r25
     36c:	82 2b       	or	r24, r18
     36e:	87 b9       	out	0x07, r24	; 7
		/******/
		ADC_CONTROL|=(1<<ADEN);
     370:	37 9a       	sbi	0x06, 7	; 6
		ADC_CONTROL|=(1<<ADSC);
     372:	36 9a       	sbi	0x06, 6	; 6
		ADC_CONTROL&=~(1<<ADFR);
     374:	35 98       	cbi	0x06, 5	; 6
		ADC_CONTROL|=(1<<ADIE);
     376:	33 9a       	sbi	0x06, 3	; 6
		/******/
		ADC_CONTROL&=~(7<<ADPS0);
     378:	86 b1       	in	r24, 0x06	; 6
     37a:	88 7f       	andi	r24, 0xF8	; 248
     37c:	86 b9       	out	0x06, r24	; 6
		switch( Divfactor ){
     37e:	60 31       	cpi	r22, 0x10	; 16
     380:	d1 f0       	breq	.+52     	; 0x3b6 <ANALOGenable+0xe6>
     382:	38 f4       	brcc	.+14     	; 0x392 <ANALOGenable+0xc2>
     384:	64 30       	cpi	r22, 0x04	; 4
     386:	79 f0       	breq	.+30     	; 0x3a6 <ANALOGenable+0xd6>
     388:	68 30       	cpi	r22, 0x08	; 8
     38a:	81 f0       	breq	.+32     	; 0x3ac <ANALOGenable+0xdc>
     38c:	62 30       	cpi	r22, 0x02	; 2
     38e:	29 f5       	brne	.+74     	; 0x3da <ANALOGenable+0x10a>
     390:	07 c0       	rjmp	.+14     	; 0x3a0 <ANALOGenable+0xd0>
     392:	60 34       	cpi	r22, 0x40	; 64
     394:	c1 f0       	breq	.+48     	; 0x3c6 <ANALOGenable+0xf6>
     396:	60 38       	cpi	r22, 0x80	; 128
     398:	d9 f0       	breq	.+54     	; 0x3d0 <ANALOGenable+0x100>
     39a:	60 32       	cpi	r22, 0x20	; 32
     39c:	f1 f4       	brne	.+60     	; 0x3da <ANALOGenable+0x10a>
     39e:	0e c0       	rjmp	.+28     	; 0x3bc <ANALOGenable+0xec>
			case 2://1
				ADC_CONTROL|=(1<<ADPS0);
     3a0:	30 9a       	sbi	0x06, 0	; 6
				analog.DIVISION_FACTOR=2;
     3a2:	22 e0       	ldi	r18, 0x02	; 2
				break;
     3a4:	1e c0       	rjmp	.+60     	; 0x3e2 <ANALOGenable+0x112>
			case 4://2
				ADC_CONTROL|=(1<<ADPS1);
     3a6:	31 9a       	sbi	0x06, 1	; 6
				analog.DIVISION_FACTOR=4;
     3a8:	24 e0       	ldi	r18, 0x04	; 4
				break;
     3aa:	1b c0       	rjmp	.+54     	; 0x3e2 <ANALOGenable+0x112>
			case 8://3
				ADC_CONTROL|=(3<<ADPS0);
     3ac:	86 b1       	in	r24, 0x06	; 6
     3ae:	83 60       	ori	r24, 0x03	; 3
     3b0:	86 b9       	out	0x06, r24	; 6
				analog.DIVISION_FACTOR=8;
     3b2:	28 e0       	ldi	r18, 0x08	; 8
				break;
     3b4:	16 c0       	rjmp	.+44     	; 0x3e2 <ANALOGenable+0x112>
			case 16://4
				ADC_CONTROL|=(1<<ADPS2);
     3b6:	32 9a       	sbi	0x06, 2	; 6
				analog.DIVISION_FACTOR=16;
     3b8:	20 e1       	ldi	r18, 0x10	; 16
				break;
     3ba:	13 c0       	rjmp	.+38     	; 0x3e2 <ANALOGenable+0x112>
			case 32://5
				ADC_CONTROL|=(5<<ADPS0);
     3bc:	86 b1       	in	r24, 0x06	; 6
     3be:	85 60       	ori	r24, 0x05	; 5
     3c0:	86 b9       	out	0x06, r24	; 6
				analog.DIVISION_FACTOR=32;
     3c2:	20 e2       	ldi	r18, 0x20	; 32
				break;
     3c4:	0e c0       	rjmp	.+28     	; 0x3e2 <ANALOGenable+0x112>
			case 64://6
				ADC_CONTROL|=(6<<ADPS0);
     3c6:	86 b1       	in	r24, 0x06	; 6
     3c8:	86 60       	ori	r24, 0x06	; 6
     3ca:	86 b9       	out	0x06, r24	; 6
				analog.DIVISION_FACTOR=64;
     3cc:	20 e4       	ldi	r18, 0x40	; 64
				break;
     3ce:	09 c0       	rjmp	.+18     	; 0x3e2 <ANALOGenable+0x112>
			case 128://7
				ADC_CONTROL|=(7<<ADPS0);
     3d0:	86 b1       	in	r24, 0x06	; 6
     3d2:	87 60       	ori	r24, 0x07	; 7
     3d4:	86 b9       	out	0x06, r24	; 6
				analog.DIVISION_FACTOR=128;
     3d6:	20 e8       	ldi	r18, 0x80	; 128
				break;
     3d8:	04 c0       	rjmp	.+8      	; 0x3e2 <ANALOGenable+0x112>
			default:
				ADC_CONTROL|=(7<<ADPS0);
     3da:	86 b1       	in	r24, 0x06	; 6
     3dc:	87 60       	ori	r24, 0x07	; 7
     3de:	86 b9       	out	0x06, r24	; 6
				analog.DIVISION_FACTOR=128;
     3e0:	20 e8       	ldi	r18, 0x80	; 128
				break;
		}
	
	STATUS_REGISTER=tSREG;
     3e2:	1f bf       	out	0x3f, r17	; 63
	STATUS_REGISTER|=(1<<GLOBAL_INTERRUPT_ENABLE);
     3e4:	8f b7       	in	r24, 0x3f	; 63
     3e6:	80 68       	ori	r24, 0x80	; 128
     3e8:	8f bf       	out	0x3f, r24	; 63
	/******/
	return analog;
     3ea:	60 2f       	mov	r22, r16
     3ec:	72 2f       	mov	r23, r18
     3ee:	8e e5       	ldi	r24, 0x5E	; 94
     3f0:	91 e0       	ldi	r25, 0x01	; 1
}
     3f2:	df 91       	pop	r29
     3f4:	cf 91       	pop	r28
     3f6:	1f 91       	pop	r17
     3f8:	0f 91       	pop	r16
     3fa:	08 95       	ret

000003fc <__vector_21>:
ISR(ANALOG_INTERRUPT)
/*************************************************************************
Function: ANALOG interrupt
Purpose:  Read Analog Input
**************************************************************************/
{
     3fc:	1f 92       	push	r1
     3fe:	0f 92       	push	r0
     400:	0f b6       	in	r0, 0x3f	; 63
     402:	0f 92       	push	r0
     404:	11 24       	eor	r1, r1
     406:	0b b6       	in	r0, 0x3b	; 59
     408:	0f 92       	push	r0
     40a:	2f 93       	push	r18
     40c:	3f 93       	push	r19
     40e:	4f 93       	push	r20
     410:	5f 93       	push	r21
     412:	8f 93       	push	r24
     414:	9f 93       	push	r25
     416:	ef 93       	push	r30
     418:	ff 93       	push	r31
	uint8_t Sreg;
	Sreg=STATUS_REGISTER;
     41a:	2f b7       	in	r18, 0x3f	; 63
	STATUS_REGISTER&=~(1<<GLOBAL_INTERRUPT_ENABLE);
     41c:	8f b7       	in	r24, 0x3f	; 63
     41e:	8f 77       	andi	r24, 0x7F	; 127
     420:	8f bf       	out	0x3f, r24	; 63
	adc_tmp=ADCL;
     422:	84 b1       	in	r24, 0x04	; 4
     424:	90 e0       	ldi	r25, 0x00	; 0
     426:	90 93 56 01 	sts	0x0156, r25	; 0x800156 <adc_tmp+0x1>
     42a:	80 93 55 01 	sts	0x0155, r24	; 0x800155 <adc_tmp>
	adc_tmp|=(ADCH<<8);
     42e:	35 b1       	in	r19, 0x05	; 5
     430:	80 91 55 01 	lds	r24, 0x0155	; 0x800155 <adc_tmp>
     434:	90 91 56 01 	lds	r25, 0x0156	; 0x800156 <adc_tmp+0x1>
     438:	93 2b       	or	r25, r19
     43a:	90 93 56 01 	sts	0x0156, r25	; 0x800156 <adc_tmp+0x1>
     43e:	80 93 55 01 	sts	0x0155, r24	; 0x800155 <adc_tmp>
	if(adc_n_sample < (1<<ADC_NUMBER_SAMPLE)){
     442:	80 91 54 01 	lds	r24, 0x0154	; 0x800154 <__data_end>
     446:	84 30       	cpi	r24, 0x04	; 4
     448:	a0 f4       	brcc	.+40     	; 0x472 <__LOCK_REGION_LENGTH__+0x72>
		adc_n_sample++;
     44a:	80 91 54 01 	lds	r24, 0x0154	; 0x800154 <__data_end>
     44e:	8f 5f       	subi	r24, 0xFF	; 255
     450:	80 93 54 01 	sts	0x0154, r24	; 0x800154 <__data_end>
		adc_sample+=adc_tmp;
     454:	40 91 55 01 	lds	r20, 0x0155	; 0x800155 <adc_tmp>
     458:	50 91 56 01 	lds	r21, 0x0156	; 0x800156 <adc_tmp+0x1>
     45c:	80 91 57 01 	lds	r24, 0x0157	; 0x800157 <adc_sample>
     460:	90 91 58 01 	lds	r25, 0x0158	; 0x800158 <adc_sample+0x1>
     464:	84 0f       	add	r24, r20
     466:	95 1f       	adc	r25, r21
     468:	90 93 58 01 	sts	0x0158, r25	; 0x800158 <adc_sample+0x1>
     46c:	80 93 57 01 	sts	0x0157, r24	; 0x800157 <adc_sample>
     470:	43 c0       	rjmp	.+134    	; 0x4f8 <__LOCK_REGION_LENGTH__+0xf8>
	}else{
		ADC_VALUE[ADC_SELECTOR]=adc_sample>>ADC_NUMBER_SAMPLE;
     472:	e0 91 59 01 	lds	r30, 0x0159	; 0x800159 <ADC_SELECTOR>
     476:	f0 91 5a 01 	lds	r31, 0x015A	; 0x80015a <ADC_SELECTOR+0x1>
     47a:	80 91 57 01 	lds	r24, 0x0157	; 0x800157 <adc_sample>
     47e:	90 91 58 01 	lds	r25, 0x0158	; 0x800158 <adc_sample+0x1>
     482:	95 95       	asr	r25
     484:	87 95       	ror	r24
     486:	95 95       	asr	r25
     488:	87 95       	ror	r24
     48a:	ee 0f       	add	r30, r30
     48c:	ff 1f       	adc	r31, r31
     48e:	e3 59       	subi	r30, 0x93	; 147
     490:	fe 4f       	sbci	r31, 0xFE	; 254
     492:	91 83       	std	Z+1, r25	; 0x01
     494:	80 83       	st	Z, r24
		adc_n_sample=adc_sample=0;
     496:	10 92 58 01 	sts	0x0158, r1	; 0x800158 <adc_sample+0x1>
     49a:	10 92 57 01 	sts	0x0157, r1	; 0x800157 <adc_sample>
     49e:	10 92 54 01 	sts	0x0154, r1	; 0x800154 <__data_end>
		/******/
		if(ADC_SELECTOR < ADC_N_CHANNEL)
     4a2:	40 91 59 01 	lds	r20, 0x0159	; 0x800159 <ADC_SELECTOR>
     4a6:	50 91 5a 01 	lds	r21, 0x015A	; 0x80015a <ADC_SELECTOR+0x1>
     4aa:	80 91 5b 01 	lds	r24, 0x015B	; 0x80015b <ADC_N_CHANNEL>
     4ae:	90 91 5c 01 	lds	r25, 0x015C	; 0x80015c <ADC_N_CHANNEL+0x1>
     4b2:	48 17       	cp	r20, r24
     4b4:	59 07       	cpc	r21, r25
     4b6:	54 f4       	brge	.+20     	; 0x4cc <__LOCK_REGION_LENGTH__+0xcc>
			ADC_SELECTOR++;
     4b8:	80 91 59 01 	lds	r24, 0x0159	; 0x800159 <ADC_SELECTOR>
     4bc:	90 91 5a 01 	lds	r25, 0x015A	; 0x80015a <ADC_SELECTOR+0x1>
     4c0:	01 96       	adiw	r24, 0x01	; 1
     4c2:	90 93 5a 01 	sts	0x015A, r25	; 0x80015a <ADC_SELECTOR+0x1>
     4c6:	80 93 59 01 	sts	0x0159, r24	; 0x800159 <ADC_SELECTOR>
     4ca:	04 c0       	rjmp	.+8      	; 0x4d4 <__LOCK_REGION_LENGTH__+0xd4>
		else
			ADC_SELECTOR=0;
     4cc:	10 92 5a 01 	sts	0x015A, r1	; 0x80015a <ADC_SELECTOR+0x1>
     4d0:	10 92 59 01 	sts	0x0159, r1	; 0x800159 <ADC_SELECTOR>
		ADC_SELECT &= ~MUX_MASK;
     4d4:	87 b1       	in	r24, 0x07	; 7
     4d6:	80 7e       	andi	r24, 0xE0	; 224
     4d8:	87 b9       	out	0x07, r24	; 7
		ADC_SELECT |= (ADC_CHANNEL_GAIN[ADC_SELECTOR] & MUX_MASK);
     4da:	e0 91 59 01 	lds	r30, 0x0159	; 0x800159 <ADC_SELECTOR>
     4de:	f0 91 5a 01 	lds	r31, 0x015A	; 0x80015a <ADC_SELECTOR+0x1>
     4e2:	ee 0f       	add	r30, r30
     4e4:	ff 1f       	adc	r31, r31
     4e6:	e3 5a       	subi	r30, 0xA3	; 163
     4e8:	fe 4f       	sbci	r31, 0xFE	; 254
     4ea:	80 81       	ld	r24, Z
     4ec:	91 81       	ldd	r25, Z+1	; 0x01
     4ee:	37 b1       	in	r19, 0x07	; 7
     4f0:	8f 71       	andi	r24, 0x1F	; 31
     4f2:	99 27       	eor	r25, r25
     4f4:	83 2b       	or	r24, r19
     4f6:	87 b9       	out	0x07, r24	; 7
	}
	STATUS_REGISTER=Sreg;
     4f8:	2f bf       	out	0x3f, r18	; 63
}
     4fa:	ff 91       	pop	r31
     4fc:	ef 91       	pop	r30
     4fe:	9f 91       	pop	r25
     500:	8f 91       	pop	r24
     502:	5f 91       	pop	r21
     504:	4f 91       	pop	r20
     506:	3f 91       	pop	r19
     508:	2f 91       	pop	r18
     50a:	0f 90       	pop	r0
     50c:	0b be       	out	0x3b, r0	; 59
     50e:	0f 90       	pop	r0
     510:	0f be       	out	0x3f, r0	; 63
     512:	0f 90       	pop	r0
     514:	1f 90       	pop	r1
     516:	18 95       	reti

00000518 <TIMER_COUNTER0_start>:
	timer3.compareB=TIMER_COUNTER3_compareB;
	timer3.compareC=TIMER_COUNTER3_compareC;
	timer3.start=TIMER_COUNTER3_start;
	timer3.stop=TIMER_COUNTER3_stop;
	return timer3;
}
     518:	20 91 8b 01 	lds	r18, 0x018B	; 0x80018b <timer0_state>
     51c:	21 11       	cpse	r18, r1
     51e:	40 c0       	rjmp	.+128    	; 0x5a0 <TIMER_COUNTER0_start+0x88>
     520:	2f ef       	ldi	r18, 0xFF	; 255
     522:	21 bf       	out	0x31, r18	; 49
     524:	23 b7       	in	r18, 0x33	; 51
     526:	28 7f       	andi	r18, 0xF8	; 248
     528:	23 bf       	out	0x33, r18	; 51
     52a:	80 34       	cpi	r24, 0x40	; 64
     52c:	91 05       	cpc	r25, r1
     52e:	11 f1       	breq	.+68     	; 0x574 <TIMER_COUNTER0_start+0x5c>
     530:	48 f4       	brcc	.+18     	; 0x544 <TIMER_COUNTER0_start+0x2c>
     532:	88 30       	cpi	r24, 0x08	; 8
     534:	91 05       	cpc	r25, r1
     536:	b1 f0       	breq	.+44     	; 0x564 <TIMER_COUNTER0_start+0x4c>
     538:	80 32       	cpi	r24, 0x20	; 32
     53a:	91 05       	cpc	r25, r1
     53c:	b9 f0       	breq	.+46     	; 0x56c <TIMER_COUNTER0_start+0x54>
     53e:	01 97       	sbiw	r24, 0x01	; 1
     540:	49 f5       	brne	.+82     	; 0x594 <TIMER_COUNTER0_start+0x7c>
     542:	0c c0       	rjmp	.+24     	; 0x55c <TIMER_COUNTER0_start+0x44>
     544:	81 15       	cp	r24, r1
     546:	21 e0       	ldi	r18, 0x01	; 1
     548:	92 07       	cpc	r25, r18
     54a:	e1 f0       	breq	.+56     	; 0x584 <TIMER_COUNTER0_start+0x6c>
     54c:	81 15       	cp	r24, r1
     54e:	24 e0       	ldi	r18, 0x04	; 4
     550:	92 07       	cpc	r25, r18
     552:	e1 f0       	breq	.+56     	; 0x58c <TIMER_COUNTER0_start+0x74>
     554:	80 38       	cpi	r24, 0x80	; 128
     556:	91 05       	cpc	r25, r1
     558:	e9 f4       	brne	.+58     	; 0x594 <TIMER_COUNTER0_start+0x7c>
     55a:	10 c0       	rjmp	.+32     	; 0x57c <TIMER_COUNTER0_start+0x64>
     55c:	83 b7       	in	r24, 0x33	; 51
     55e:	81 60       	ori	r24, 0x01	; 1
     560:	83 bf       	out	0x33, r24	; 51
     562:	1b c0       	rjmp	.+54     	; 0x59a <TIMER_COUNTER0_start+0x82>
     564:	83 b7       	in	r24, 0x33	; 51
     566:	82 60       	ori	r24, 0x02	; 2
     568:	83 bf       	out	0x33, r24	; 51
     56a:	17 c0       	rjmp	.+46     	; 0x59a <TIMER_COUNTER0_start+0x82>
     56c:	83 b7       	in	r24, 0x33	; 51
     56e:	83 60       	ori	r24, 0x03	; 3
     570:	83 bf       	out	0x33, r24	; 51
     572:	13 c0       	rjmp	.+38     	; 0x59a <TIMER_COUNTER0_start+0x82>
     574:	83 b7       	in	r24, 0x33	; 51
     576:	84 60       	ori	r24, 0x04	; 4
     578:	83 bf       	out	0x33, r24	; 51
     57a:	0f c0       	rjmp	.+30     	; 0x59a <TIMER_COUNTER0_start+0x82>
     57c:	83 b7       	in	r24, 0x33	; 51
     57e:	85 60       	ori	r24, 0x05	; 5
     580:	83 bf       	out	0x33, r24	; 51
     582:	0b c0       	rjmp	.+22     	; 0x59a <TIMER_COUNTER0_start+0x82>
     584:	83 b7       	in	r24, 0x33	; 51
     586:	86 60       	ori	r24, 0x06	; 6
     588:	83 bf       	out	0x33, r24	; 51
     58a:	07 c0       	rjmp	.+14     	; 0x59a <TIMER_COUNTER0_start+0x82>
     58c:	83 b7       	in	r24, 0x33	; 51
     58e:	87 60       	ori	r24, 0x07	; 7
     590:	83 bf       	out	0x33, r24	; 51
     592:	03 c0       	rjmp	.+6      	; 0x59a <TIMER_COUNTER0_start+0x82>
     594:	83 b7       	in	r24, 0x33	; 51
     596:	87 60       	ori	r24, 0x07	; 7
     598:	83 bf       	out	0x33, r24	; 51
     59a:	81 e0       	ldi	r24, 0x01	; 1
     59c:	80 93 8b 01 	sts	0x018B, r24	; 0x80018b <timer0_state>
     5a0:	08 95       	ret

000005a2 <TIMER_COUNTER0_compoutmode>:
     5a2:	93 b7       	in	r25, 0x33	; 51
     5a4:	9f 7c       	andi	r25, 0xCF	; 207
     5a6:	93 bf       	out	0x33, r25	; 51
     5a8:	82 30       	cpi	r24, 0x02	; 2
     5aa:	41 f0       	breq	.+16     	; 0x5bc <TIMER_COUNTER0_compoutmode+0x1a>
     5ac:	83 30       	cpi	r24, 0x03	; 3
     5ae:	51 f0       	breq	.+20     	; 0x5c4 <TIMER_COUNTER0_compoutmode+0x22>
     5b0:	81 30       	cpi	r24, 0x01	; 1
     5b2:	59 f4       	brne	.+22     	; 0x5ca <TIMER_COUNTER0_compoutmode+0x28>
     5b4:	83 b7       	in	r24, 0x33	; 51
     5b6:	80 61       	ori	r24, 0x10	; 16
     5b8:	83 bf       	out	0x33, r24	; 51
     5ba:	08 95       	ret
     5bc:	83 b7       	in	r24, 0x33	; 51
     5be:	80 62       	ori	r24, 0x20	; 32
     5c0:	83 bf       	out	0x33, r24	; 51
     5c2:	08 95       	ret
     5c4:	83 b7       	in	r24, 0x33	; 51
     5c6:	80 63       	ori	r24, 0x30	; 48
     5c8:	83 bf       	out	0x33, r24	; 51
     5ca:	08 95       	ret

000005cc <TIMER_COUNTER0_compare>:
     5cc:	81 bf       	out	0x31, r24	; 49
     5ce:	08 95       	ret

000005d0 <TIMER_COUNTER0_stop>:
     5d0:	83 b7       	in	r24, 0x33	; 51
     5d2:	88 7f       	andi	r24, 0xF8	; 248
     5d4:	83 bf       	out	0x33, r24	; 51
     5d6:	12 be       	out	0x32, r1	; 50
     5d8:	10 92 8b 01 	sts	0x018B, r1	; 0x80018b <timer0_state>
     5dc:	08 95       	ret

000005de <TIMER_COUNTER1_start>:
     5de:	20 91 88 01 	lds	r18, 0x0188	; 0x800188 <timer1_state>
     5e2:	21 11       	cpse	r18, r1
     5e4:	42 c0       	rjmp	.+132    	; 0x66a <TIMER_COUNTER1_start+0x8c>
     5e6:	2f ef       	ldi	r18, 0xFF	; 255
     5e8:	3f ef       	ldi	r19, 0xFF	; 255
     5ea:	3b bd       	out	0x2b, r19	; 43
     5ec:	2a bd       	out	0x2a, r18	; 42
     5ee:	2e b5       	in	r18, 0x2e	; 46
     5f0:	28 7f       	andi	r18, 0xF8	; 248
     5f2:	2e bd       	out	0x2e, r18	; 46
     5f4:	88 30       	cpi	r24, 0x08	; 8
     5f6:	91 05       	cpc	r25, r1
     5f8:	d1 f0       	breq	.+52     	; 0x62e <TIMER_COUNTER1_start+0x50>
     5fa:	48 f4       	brcc	.+18     	; 0x60e <TIMER_COUNTER1_start+0x30>
     5fc:	83 30       	cpi	r24, 0x03	; 3
     5fe:	91 05       	cpc	r25, r1
     600:	31 f1       	breq	.+76     	; 0x64e <TIMER_COUNTER1_start+0x70>
     602:	85 30       	cpi	r24, 0x05	; 5
     604:	91 05       	cpc	r25, r1
     606:	39 f1       	breq	.+78     	; 0x656 <TIMER_COUNTER1_start+0x78>
     608:	01 97       	sbiw	r24, 0x01	; 1
     60a:	49 f5       	brne	.+82     	; 0x65e <TIMER_COUNTER1_start+0x80>
     60c:	0c c0       	rjmp	.+24     	; 0x626 <TIMER_COUNTER1_start+0x48>
     60e:	81 15       	cp	r24, r1
     610:	21 e0       	ldi	r18, 0x01	; 1
     612:	92 07       	cpc	r25, r18
     614:	a1 f0       	breq	.+40     	; 0x63e <TIMER_COUNTER1_start+0x60>
     616:	81 15       	cp	r24, r1
     618:	24 e0       	ldi	r18, 0x04	; 4
     61a:	92 07       	cpc	r25, r18
     61c:	a1 f0       	breq	.+40     	; 0x646 <TIMER_COUNTER1_start+0x68>
     61e:	80 34       	cpi	r24, 0x40	; 64
     620:	91 05       	cpc	r25, r1
     622:	e9 f4       	brne	.+58     	; 0x65e <TIMER_COUNTER1_start+0x80>
     624:	08 c0       	rjmp	.+16     	; 0x636 <TIMER_COUNTER1_start+0x58>
     626:	8e b5       	in	r24, 0x2e	; 46
     628:	81 60       	ori	r24, 0x01	; 1
     62a:	8e bd       	out	0x2e, r24	; 46
     62c:	1b c0       	rjmp	.+54     	; 0x664 <TIMER_COUNTER1_start+0x86>
     62e:	8e b5       	in	r24, 0x2e	; 46
     630:	82 60       	ori	r24, 0x02	; 2
     632:	8e bd       	out	0x2e, r24	; 46
     634:	17 c0       	rjmp	.+46     	; 0x664 <TIMER_COUNTER1_start+0x86>
     636:	8e b5       	in	r24, 0x2e	; 46
     638:	83 60       	ori	r24, 0x03	; 3
     63a:	8e bd       	out	0x2e, r24	; 46
     63c:	13 c0       	rjmp	.+38     	; 0x664 <TIMER_COUNTER1_start+0x86>
     63e:	8e b5       	in	r24, 0x2e	; 46
     640:	84 60       	ori	r24, 0x04	; 4
     642:	8e bd       	out	0x2e, r24	; 46
     644:	0f c0       	rjmp	.+30     	; 0x664 <TIMER_COUNTER1_start+0x86>
     646:	8e b5       	in	r24, 0x2e	; 46
     648:	85 60       	ori	r24, 0x05	; 5
     64a:	8e bd       	out	0x2e, r24	; 46
     64c:	0b c0       	rjmp	.+22     	; 0x664 <TIMER_COUNTER1_start+0x86>
     64e:	8e b5       	in	r24, 0x2e	; 46
     650:	86 60       	ori	r24, 0x06	; 6
     652:	8e bd       	out	0x2e, r24	; 46
     654:	07 c0       	rjmp	.+14     	; 0x664 <TIMER_COUNTER1_start+0x86>
     656:	8e b5       	in	r24, 0x2e	; 46
     658:	87 60       	ori	r24, 0x07	; 7
     65a:	8e bd       	out	0x2e, r24	; 46
     65c:	03 c0       	rjmp	.+6      	; 0x664 <TIMER_COUNTER1_start+0x86>
     65e:	8e b5       	in	r24, 0x2e	; 46
     660:	85 60       	ori	r24, 0x05	; 5
     662:	8e bd       	out	0x2e, r24	; 46
     664:	81 e0       	ldi	r24, 0x01	; 1
     666:	80 93 88 01 	sts	0x0188, r24	; 0x800188 <timer1_state>
     66a:	08 95       	ret

0000066c <TIMER_COUNTER1_compoutmodeA>:
     66c:	9f b5       	in	r25, 0x2f	; 47
     66e:	9f 73       	andi	r25, 0x3F	; 63
     670:	9f bd       	out	0x2f, r25	; 47
     672:	82 30       	cpi	r24, 0x02	; 2
     674:	41 f0       	breq	.+16     	; 0x686 <TIMER_COUNTER1_compoutmodeA+0x1a>
     676:	83 30       	cpi	r24, 0x03	; 3
     678:	51 f0       	breq	.+20     	; 0x68e <TIMER_COUNTER1_compoutmodeA+0x22>
     67a:	81 30       	cpi	r24, 0x01	; 1
     67c:	59 f4       	brne	.+22     	; 0x694 <TIMER_COUNTER1_compoutmodeA+0x28>
     67e:	8f b5       	in	r24, 0x2f	; 47
     680:	80 64       	ori	r24, 0x40	; 64
     682:	8f bd       	out	0x2f, r24	; 47
     684:	08 95       	ret
     686:	8f b5       	in	r24, 0x2f	; 47
     688:	80 68       	ori	r24, 0x80	; 128
     68a:	8f bd       	out	0x2f, r24	; 47
     68c:	08 95       	ret
     68e:	8f b5       	in	r24, 0x2f	; 47
     690:	80 6c       	ori	r24, 0xC0	; 192
     692:	8f bd       	out	0x2f, r24	; 47
     694:	08 95       	ret

00000696 <TIMER_COUNTER1_compoutmodeB>:
     696:	9f b5       	in	r25, 0x2f	; 47
     698:	9f 7c       	andi	r25, 0xCF	; 207
     69a:	9f bd       	out	0x2f, r25	; 47
     69c:	82 30       	cpi	r24, 0x02	; 2
     69e:	41 f0       	breq	.+16     	; 0x6b0 <TIMER_COUNTER1_compoutmodeB+0x1a>
     6a0:	83 30       	cpi	r24, 0x03	; 3
     6a2:	51 f0       	breq	.+20     	; 0x6b8 <TIMER_COUNTER1_compoutmodeB+0x22>
     6a4:	81 30       	cpi	r24, 0x01	; 1
     6a6:	59 f4       	brne	.+22     	; 0x6be <TIMER_COUNTER1_compoutmodeB+0x28>
     6a8:	8f b5       	in	r24, 0x2f	; 47
     6aa:	80 61       	ori	r24, 0x10	; 16
     6ac:	8f bd       	out	0x2f, r24	; 47
     6ae:	08 95       	ret
     6b0:	8f b5       	in	r24, 0x2f	; 47
     6b2:	80 62       	ori	r24, 0x20	; 32
     6b4:	8f bd       	out	0x2f, r24	; 47
     6b6:	08 95       	ret
     6b8:	8f b5       	in	r24, 0x2f	; 47
     6ba:	80 63       	ori	r24, 0x30	; 48
     6bc:	8f bd       	out	0x2f, r24	; 47
     6be:	08 95       	ret

000006c0 <TIMER_COUNTER1_compoutmodeC>:
     6c0:	9f b5       	in	r25, 0x2f	; 47
     6c2:	93 7f       	andi	r25, 0xF3	; 243
     6c4:	9f bd       	out	0x2f, r25	; 47
     6c6:	82 30       	cpi	r24, 0x02	; 2
     6c8:	41 f0       	breq	.+16     	; 0x6da <TIMER_COUNTER1_compoutmodeC+0x1a>
     6ca:	83 30       	cpi	r24, 0x03	; 3
     6cc:	51 f0       	breq	.+20     	; 0x6e2 <TIMER_COUNTER1_compoutmodeC+0x22>
     6ce:	81 30       	cpi	r24, 0x01	; 1
     6d0:	59 f4       	brne	.+22     	; 0x6e8 <TIMER_COUNTER1_compoutmodeC+0x28>
     6d2:	8f b5       	in	r24, 0x2f	; 47
     6d4:	84 60       	ori	r24, 0x04	; 4
     6d6:	8f bd       	out	0x2f, r24	; 47
     6d8:	08 95       	ret
     6da:	8f b5       	in	r24, 0x2f	; 47
     6dc:	88 60       	ori	r24, 0x08	; 8
     6de:	8f bd       	out	0x2f, r24	; 47
     6e0:	08 95       	ret
     6e2:	8f b5       	in	r24, 0x2f	; 47
     6e4:	8c 60       	ori	r24, 0x0C	; 12
     6e6:	8f bd       	out	0x2f, r24	; 47
     6e8:	08 95       	ret

000006ea <TIMER_COUNTER1_compareA>:
     6ea:	9b bd       	out	0x2b, r25	; 43
     6ec:	8a bd       	out	0x2a, r24	; 42
     6ee:	08 95       	ret

000006f0 <TIMER_COUNTER1_compareB>:
     6f0:	99 bd       	out	0x29, r25	; 41
     6f2:	88 bd       	out	0x28, r24	; 40
     6f4:	08 95       	ret

000006f6 <TIMER_COUNTER1_compareC>:
     6f6:	90 93 79 00 	sts	0x0079, r25	; 0x800079 <__TEXT_REGION_LENGTH__+0x7e0079>
     6fa:	80 93 78 00 	sts	0x0078, r24	; 0x800078 <__TEXT_REGION_LENGTH__+0x7e0078>
     6fe:	08 95       	ret

00000700 <TIMER_COUNTER1_stop>:
     700:	8e b5       	in	r24, 0x2e	; 46
     702:	88 7f       	andi	r24, 0xF8	; 248
     704:	8e bd       	out	0x2e, r24	; 46
     706:	1d bc       	out	0x2d, r1	; 45
     708:	1c bc       	out	0x2c, r1	; 44
     70a:	10 92 88 01 	sts	0x0188, r1	; 0x800188 <timer1_state>
     70e:	08 95       	ret

00000710 <TIMER_COUNTER0enable>:
     710:	10 92 8b 01 	sts	0x018B, r1	; 0x80018b <timer0_state>
     714:	23 b7       	in	r18, 0x33	; 51
     716:	27 7b       	andi	r18, 0xB7	; 183
     718:	23 bf       	out	0x33, r18	; 51
     71a:	62 30       	cpi	r22, 0x02	; 2
     71c:	41 f0       	breq	.+16     	; 0x72e <TIMER_COUNTER0enable+0x1e>
     71e:	63 30       	cpi	r22, 0x03	; 3
     720:	51 f0       	breq	.+20     	; 0x736 <TIMER_COUNTER0enable+0x26>
     722:	61 30       	cpi	r22, 0x01	; 1
     724:	59 f4       	brne	.+22     	; 0x73c <TIMER_COUNTER0enable+0x2c>
     726:	23 b7       	in	r18, 0x33	; 51
     728:	20 64       	ori	r18, 0x40	; 64
     72a:	23 bf       	out	0x33, r18	; 51
     72c:	07 c0       	rjmp	.+14     	; 0x73c <TIMER_COUNTER0enable+0x2c>
     72e:	23 b7       	in	r18, 0x33	; 51
     730:	28 60       	ori	r18, 0x08	; 8
     732:	23 bf       	out	0x33, r18	; 51
     734:	03 c0       	rjmp	.+6      	; 0x73c <TIMER_COUNTER0enable+0x2c>
     736:	23 b7       	in	r18, 0x33	; 51
     738:	28 64       	ori	r18, 0x48	; 72
     73a:	23 bf       	out	0x33, r18	; 51
     73c:	27 b7       	in	r18, 0x37	; 55
     73e:	2e 7f       	andi	r18, 0xFE	; 254
     740:	27 bf       	out	0x37, r18	; 55
     742:	27 b7       	in	r18, 0x37	; 55
     744:	2d 7f       	andi	r18, 0xFD	; 253
     746:	27 bf       	out	0x37, r18	; 55
     748:	42 30       	cpi	r20, 0x02	; 2
     74a:	41 f0       	breq	.+16     	; 0x75c <TIMER_COUNTER0enable+0x4c>
     74c:	43 30       	cpi	r20, 0x03	; 3
     74e:	51 f0       	breq	.+20     	; 0x764 <TIMER_COUNTER0enable+0x54>
     750:	41 30       	cpi	r20, 0x01	; 1
     752:	71 f4       	brne	.+28     	; 0x770 <TIMER_COUNTER0enable+0x60>
     754:	27 b7       	in	r18, 0x37	; 55
     756:	21 60       	ori	r18, 0x01	; 1
     758:	27 bf       	out	0x37, r18	; 55
     75a:	0a c0       	rjmp	.+20     	; 0x770 <TIMER_COUNTER0enable+0x60>
     75c:	27 b7       	in	r18, 0x37	; 55
     75e:	22 60       	ori	r18, 0x02	; 2
     760:	27 bf       	out	0x37, r18	; 55
     762:	06 c0       	rjmp	.+12     	; 0x770 <TIMER_COUNTER0enable+0x60>
     764:	27 b7       	in	r18, 0x37	; 55
     766:	21 60       	ori	r18, 0x01	; 1
     768:	27 bf       	out	0x37, r18	; 55
     76a:	27 b7       	in	r18, 0x37	; 55
     76c:	22 60       	ori	r18, 0x02	; 2
     76e:	27 bf       	out	0x37, r18	; 55
     770:	21 ed       	ldi	r18, 0xD1	; 209
     772:	32 e0       	ldi	r19, 0x02	; 2
     774:	fc 01       	movw	r30, r24
     776:	31 83       	std	Z+1, r19	; 0x01
     778:	20 83       	st	Z, r18
     77a:	26 ee       	ldi	r18, 0xE6	; 230
     77c:	32 e0       	ldi	r19, 0x02	; 2
     77e:	37 83       	std	Z+7, r19	; 0x07
     780:	26 83       	std	Z+6, r18	; 0x06
     782:	2c e8       	ldi	r18, 0x8C	; 140
     784:	32 e0       	ldi	r19, 0x02	; 2
     786:	35 87       	std	Z+13, r19	; 0x0d
     788:	24 87       	std	Z+12, r18	; 0x0c
     78a:	28 ee       	ldi	r18, 0xE8	; 232
     78c:	32 e0       	ldi	r19, 0x02	; 2
     78e:	37 87       	std	Z+15, r19	; 0x0f
     790:	26 87       	std	Z+14, r18	; 0x0e
     792:	08 95       	ret

00000794 <TIMER_COUNTER1enable>:
     794:	0f 93       	push	r16
     796:	1f 93       	push	r17
     798:	dc 01       	movw	r26, r24
     79a:	10 92 88 01 	sts	0x0188, r1	; 0x800188 <timer1_state>
     79e:	8f b5       	in	r24, 0x2f	; 47
     7a0:	8c 7f       	andi	r24, 0xFC	; 252
     7a2:	8f bd       	out	0x2f, r24	; 47
     7a4:	8e b5       	in	r24, 0x2e	; 46
     7a6:	87 7e       	andi	r24, 0xE7	; 231
     7a8:	8e bd       	out	0x2e, r24	; 46
     7aa:	06 2f       	mov	r16, r22
     7ac:	10 e0       	ldi	r17, 0x00	; 0
     7ae:	f8 01       	movw	r30, r16
     7b0:	31 97       	sbiw	r30, 0x01	; 1
     7b2:	ef 30       	cpi	r30, 0x0F	; 15
     7b4:	f1 05       	cpc	r31, r1
     7b6:	08 f0       	brcs	.+2      	; 0x7ba <TIMER_COUNTER1enable+0x26>
     7b8:	5a c0       	rjmp	.+180    	; 0x86e <TIMER_COUNTER1enable+0xda>
     7ba:	ea 5b       	subi	r30, 0xBA	; 186
     7bc:	ff 4f       	sbci	r31, 0xFF	; 255
     7be:	0c 94 e1 1b 	jmp	0x37c2	; 0x37c2 <__tablejump2__>
     7c2:	8f b5       	in	r24, 0x2f	; 47
     7c4:	81 60       	ori	r24, 0x01	; 1
     7c6:	8f bd       	out	0x2f, r24	; 47
     7c8:	52 c0       	rjmp	.+164    	; 0x86e <TIMER_COUNTER1enable+0xda>
     7ca:	8f b5       	in	r24, 0x2f	; 47
     7cc:	82 60       	ori	r24, 0x02	; 2
     7ce:	8f bd       	out	0x2f, r24	; 47
     7d0:	4e c0       	rjmp	.+156    	; 0x86e <TIMER_COUNTER1enable+0xda>
     7d2:	8f b5       	in	r24, 0x2f	; 47
     7d4:	83 60       	ori	r24, 0x03	; 3
     7d6:	8f bd       	out	0x2f, r24	; 47
     7d8:	4a c0       	rjmp	.+148    	; 0x86e <TIMER_COUNTER1enable+0xda>
     7da:	8e b5       	in	r24, 0x2e	; 46
     7dc:	88 60       	ori	r24, 0x08	; 8
     7de:	8e bd       	out	0x2e, r24	; 46
     7e0:	46 c0       	rjmp	.+140    	; 0x86e <TIMER_COUNTER1enable+0xda>
     7e2:	8f b5       	in	r24, 0x2f	; 47
     7e4:	81 60       	ori	r24, 0x01	; 1
     7e6:	8f bd       	out	0x2f, r24	; 47
     7e8:	8e b5       	in	r24, 0x2e	; 46
     7ea:	88 60       	ori	r24, 0x08	; 8
     7ec:	8e bd       	out	0x2e, r24	; 46
     7ee:	3f c0       	rjmp	.+126    	; 0x86e <TIMER_COUNTER1enable+0xda>
     7f0:	8f b5       	in	r24, 0x2f	; 47
     7f2:	82 60       	ori	r24, 0x02	; 2
     7f4:	8f bd       	out	0x2f, r24	; 47
     7f6:	8e b5       	in	r24, 0x2e	; 46
     7f8:	88 60       	ori	r24, 0x08	; 8
     7fa:	8e bd       	out	0x2e, r24	; 46
     7fc:	38 c0       	rjmp	.+112    	; 0x86e <TIMER_COUNTER1enable+0xda>
     7fe:	8f b5       	in	r24, 0x2f	; 47
     800:	83 60       	ori	r24, 0x03	; 3
     802:	8f bd       	out	0x2f, r24	; 47
     804:	8e b5       	in	r24, 0x2e	; 46
     806:	88 60       	ori	r24, 0x08	; 8
     808:	8e bd       	out	0x2e, r24	; 46
     80a:	31 c0       	rjmp	.+98     	; 0x86e <TIMER_COUNTER1enable+0xda>
     80c:	8e b5       	in	r24, 0x2e	; 46
     80e:	80 61       	ori	r24, 0x10	; 16
     810:	8e bd       	out	0x2e, r24	; 46
     812:	2d c0       	rjmp	.+90     	; 0x86e <TIMER_COUNTER1enable+0xda>
     814:	8f b5       	in	r24, 0x2f	; 47
     816:	81 60       	ori	r24, 0x01	; 1
     818:	8f bd       	out	0x2f, r24	; 47
     81a:	8e b5       	in	r24, 0x2e	; 46
     81c:	80 61       	ori	r24, 0x10	; 16
     81e:	8e bd       	out	0x2e, r24	; 46
     820:	26 c0       	rjmp	.+76     	; 0x86e <TIMER_COUNTER1enable+0xda>
     822:	8f b5       	in	r24, 0x2f	; 47
     824:	82 60       	ori	r24, 0x02	; 2
     826:	8f bd       	out	0x2f, r24	; 47
     828:	8e b5       	in	r24, 0x2e	; 46
     82a:	80 61       	ori	r24, 0x10	; 16
     82c:	8e bd       	out	0x2e, r24	; 46
     82e:	1f c0       	rjmp	.+62     	; 0x86e <TIMER_COUNTER1enable+0xda>
     830:	8f b5       	in	r24, 0x2f	; 47
     832:	83 60       	ori	r24, 0x03	; 3
     834:	8f bd       	out	0x2f, r24	; 47
     836:	8e b5       	in	r24, 0x2e	; 46
     838:	80 61       	ori	r24, 0x10	; 16
     83a:	8e bd       	out	0x2e, r24	; 46
     83c:	18 c0       	rjmp	.+48     	; 0x86e <TIMER_COUNTER1enable+0xda>
     83e:	8e b5       	in	r24, 0x2e	; 46
     840:	88 61       	ori	r24, 0x18	; 24
     842:	8e bd       	out	0x2e, r24	; 46
     844:	14 c0       	rjmp	.+40     	; 0x86e <TIMER_COUNTER1enable+0xda>
     846:	8f b5       	in	r24, 0x2f	; 47
     848:	81 60       	ori	r24, 0x01	; 1
     84a:	8f bd       	out	0x2f, r24	; 47
     84c:	8e b5       	in	r24, 0x2e	; 46
     84e:	88 61       	ori	r24, 0x18	; 24
     850:	8e bd       	out	0x2e, r24	; 46
     852:	0d c0       	rjmp	.+26     	; 0x86e <TIMER_COUNTER1enable+0xda>
     854:	8f b5       	in	r24, 0x2f	; 47
     856:	82 60       	ori	r24, 0x02	; 2
     858:	8f bd       	out	0x2f, r24	; 47
     85a:	8e b5       	in	r24, 0x2e	; 46
     85c:	88 61       	ori	r24, 0x18	; 24
     85e:	8e bd       	out	0x2e, r24	; 46
     860:	06 c0       	rjmp	.+12     	; 0x86e <TIMER_COUNTER1enable+0xda>
     862:	8f b5       	in	r24, 0x2f	; 47
     864:	83 60       	ori	r24, 0x03	; 3
     866:	8f bd       	out	0x2f, r24	; 47
     868:	8e b5       	in	r24, 0x2e	; 46
     86a:	88 61       	ori	r24, 0x18	; 24
     86c:	8e bd       	out	0x2e, r24	; 46
     86e:	8f b5       	in	r24, 0x2f	; 47
     870:	83 70       	andi	r24, 0x03	; 3
     872:	8f bd       	out	0x2f, r24	; 47
     874:	87 b7       	in	r24, 0x37	; 55
     876:	83 7c       	andi	r24, 0xC3	; 195
     878:	87 bf       	out	0x37, r24	; 55
     87a:	ed e7       	ldi	r30, 0x7D	; 125
     87c:	f0 e0       	ldi	r31, 0x00	; 0
     87e:	80 81       	ld	r24, Z
     880:	8e 7f       	andi	r24, 0xFE	; 254
     882:	80 83       	st	Z, r24
     884:	50 e0       	ldi	r21, 0x00	; 0
     886:	fa 01       	movw	r30, r20
     888:	31 97       	sbiw	r30, 0x01	; 1
     88a:	ec 30       	cpi	r30, 0x0C	; 12
     88c:	f1 05       	cpc	r31, r1
     88e:	08 f0       	brcs	.+2      	; 0x892 <TIMER_COUNTER1enable+0xfe>
     890:	44 c0       	rjmp	.+136    	; 0x91a <TIMER_COUNTER1enable+0x186>
     892:	eb 5a       	subi	r30, 0xAB	; 171
     894:	ff 4f       	sbci	r31, 0xFF	; 255
     896:	0c 94 e1 1b 	jmp	0x37c2	; 0x37c2 <__tablejump2__>
     89a:	87 b7       	in	r24, 0x37	; 55
     89c:	84 60       	ori	r24, 0x04	; 4
     89e:	87 bf       	out	0x37, r24	; 55
     8a0:	3c c0       	rjmp	.+120    	; 0x91a <TIMER_COUNTER1enable+0x186>
     8a2:	87 b7       	in	r24, 0x37	; 55
     8a4:	80 61       	ori	r24, 0x10	; 16
     8a6:	87 bf       	out	0x37, r24	; 55
     8a8:	38 c0       	rjmp	.+112    	; 0x91a <TIMER_COUNTER1enable+0x186>
     8aa:	87 b7       	in	r24, 0x37	; 55
     8ac:	88 60       	ori	r24, 0x08	; 8
     8ae:	87 bf       	out	0x37, r24	; 55
     8b0:	34 c0       	rjmp	.+104    	; 0x91a <TIMER_COUNTER1enable+0x186>
     8b2:	ed e7       	ldi	r30, 0x7D	; 125
     8b4:	f0 e0       	ldi	r31, 0x00	; 0
     8b6:	80 81       	ld	r24, Z
     8b8:	81 60       	ori	r24, 0x01	; 1
     8ba:	80 83       	st	Z, r24
     8bc:	2e c0       	rjmp	.+92     	; 0x91a <TIMER_COUNTER1enable+0x186>
     8be:	87 b7       	in	r24, 0x37	; 55
     8c0:	80 62       	ori	r24, 0x20	; 32
     8c2:	87 bf       	out	0x37, r24	; 55
     8c4:	2a c0       	rjmp	.+84     	; 0x91a <TIMER_COUNTER1enable+0x186>
     8c6:	87 b7       	in	r24, 0x37	; 55
     8c8:	84 61       	ori	r24, 0x14	; 20
     8ca:	87 bf       	out	0x37, r24	; 55
     8cc:	26 c0       	rjmp	.+76     	; 0x91a <TIMER_COUNTER1enable+0x186>
     8ce:	87 b7       	in	r24, 0x37	; 55
     8d0:	8c 60       	ori	r24, 0x0C	; 12
     8d2:	87 bf       	out	0x37, r24	; 55
     8d4:	22 c0       	rjmp	.+68     	; 0x91a <TIMER_COUNTER1enable+0x186>
     8d6:	87 b7       	in	r24, 0x37	; 55
     8d8:	84 60       	ori	r24, 0x04	; 4
     8da:	87 bf       	out	0x37, r24	; 55
     8dc:	ed e7       	ldi	r30, 0x7D	; 125
     8de:	f0 e0       	ldi	r31, 0x00	; 0
     8e0:	80 81       	ld	r24, Z
     8e2:	81 60       	ori	r24, 0x01	; 1
     8e4:	80 83       	st	Z, r24
     8e6:	19 c0       	rjmp	.+50     	; 0x91a <TIMER_COUNTER1enable+0x186>
     8e8:	87 b7       	in	r24, 0x37	; 55
     8ea:	84 62       	ori	r24, 0x24	; 36
     8ec:	87 bf       	out	0x37, r24	; 55
     8ee:	15 c0       	rjmp	.+42     	; 0x91a <TIMER_COUNTER1enable+0x186>
     8f0:	87 b7       	in	r24, 0x37	; 55
     8f2:	8c 61       	ori	r24, 0x1C	; 28
     8f4:	87 bf       	out	0x37, r24	; 55
     8f6:	11 c0       	rjmp	.+34     	; 0x91a <TIMER_COUNTER1enable+0x186>
     8f8:	87 b7       	in	r24, 0x37	; 55
     8fa:	8c 61       	ori	r24, 0x1C	; 28
     8fc:	87 bf       	out	0x37, r24	; 55
     8fe:	ed e7       	ldi	r30, 0x7D	; 125
     900:	f0 e0       	ldi	r31, 0x00	; 0
     902:	80 81       	ld	r24, Z
     904:	81 60       	ori	r24, 0x01	; 1
     906:	80 83       	st	Z, r24
     908:	08 c0       	rjmp	.+16     	; 0x91a <TIMER_COUNTER1enable+0x186>
     90a:	87 b7       	in	r24, 0x37	; 55
     90c:	88 61       	ori	r24, 0x18	; 24
     90e:	87 bf       	out	0x37, r24	; 55
     910:	ed e7       	ldi	r30, 0x7D	; 125
     912:	f0 e0       	ldi	r31, 0x00	; 0
     914:	80 81       	ld	r24, Z
     916:	81 60       	ori	r24, 0x01	; 1
     918:	80 83       	st	Z, r24
     91a:	86 e3       	ldi	r24, 0x36	; 54
     91c:	93 e0       	ldi	r25, 0x03	; 3
     91e:	11 96       	adiw	r26, 0x01	; 1
     920:	9c 93       	st	X, r25
     922:	8e 93       	st	-X, r24
     924:	8b e4       	ldi	r24, 0x4B	; 75
     926:	93 e0       	ldi	r25, 0x03	; 3
     928:	13 96       	adiw	r26, 0x03	; 3
     92a:	9c 93       	st	X, r25
     92c:	8e 93       	st	-X, r24
     92e:	12 97       	sbiw	r26, 0x02	; 2
     930:	80 e6       	ldi	r24, 0x60	; 96
     932:	93 e0       	ldi	r25, 0x03	; 3
     934:	15 96       	adiw	r26, 0x05	; 5
     936:	9c 93       	st	X, r25
     938:	8e 93       	st	-X, r24
     93a:	14 97       	sbiw	r26, 0x04	; 4
     93c:	85 e7       	ldi	r24, 0x75	; 117
     93e:	93 e0       	ldi	r25, 0x03	; 3
     940:	17 96       	adiw	r26, 0x07	; 7
     942:	9c 93       	st	X, r25
     944:	8e 93       	st	-X, r24
     946:	16 97       	sbiw	r26, 0x06	; 6
     948:	88 e7       	ldi	r24, 0x78	; 120
     94a:	93 e0       	ldi	r25, 0x03	; 3
     94c:	19 96       	adiw	r26, 0x09	; 9
     94e:	9c 93       	st	X, r25
     950:	8e 93       	st	-X, r24
     952:	18 97       	sbiw	r26, 0x08	; 8
     954:	8b e7       	ldi	r24, 0x7B	; 123
     956:	93 e0       	ldi	r25, 0x03	; 3
     958:	1b 96       	adiw	r26, 0x0b	; 11
     95a:	9c 93       	st	X, r25
     95c:	8e 93       	st	-X, r24
     95e:	1a 97       	sbiw	r26, 0x0a	; 10
     960:	8f ee       	ldi	r24, 0xEF	; 239
     962:	92 e0       	ldi	r25, 0x02	; 2
     964:	1d 96       	adiw	r26, 0x0d	; 13
     966:	9c 93       	st	X, r25
     968:	8e 93       	st	-X, r24
     96a:	1c 97       	sbiw	r26, 0x0c	; 12
     96c:	80 e8       	ldi	r24, 0x80	; 128
     96e:	93 e0       	ldi	r25, 0x03	; 3
     970:	1f 96       	adiw	r26, 0x0f	; 15
     972:	9c 93       	st	X, r25
     974:	8e 93       	st	-X, r24
     976:	1e 97       	sbiw	r26, 0x0e	; 14
     978:	cd 01       	movw	r24, r26
     97a:	1f 91       	pop	r17
     97c:	0f 91       	pop	r16
     97e:	08 95       	ret

00000980 <__vector_16>:
	timer3_state=0;
}
/***Interrupt***/
// So that main will not freeze when not defined, therefore exclude here! before use.
//ISR(TIMER0_COMP_vect){ }
ISR(TIMER0_OVF_vect){ }
     980:	1f 92       	push	r1
     982:	0f 92       	push	r0
     984:	0f b6       	in	r0, 0x3f	; 63
     986:	0f 92       	push	r0
     988:	11 24       	eor	r1, r1
     98a:	0f 90       	pop	r0
     98c:	0f be       	out	0x3f, r0	; 63
     98e:	0f 90       	pop	r0
     990:	1f 90       	pop	r1
     992:	18 95       	reti

00000994 <__vector_11>:
ISR(TIMER1_CAPT_vect){ }
     994:	1f 92       	push	r1
     996:	0f 92       	push	r0
     998:	0f b6       	in	r0, 0x3f	; 63
     99a:	0f 92       	push	r0
     99c:	11 24       	eor	r1, r1
     99e:	0f 90       	pop	r0
     9a0:	0f be       	out	0x3f, r0	; 63
     9a2:	0f 90       	pop	r0
     9a4:	1f 90       	pop	r1
     9a6:	18 95       	reti

000009a8 <__vector_12>:
ISR(TIMER1_COMPA_vect){ }
     9a8:	1f 92       	push	r1
     9aa:	0f 92       	push	r0
     9ac:	0f b6       	in	r0, 0x3f	; 63
     9ae:	0f 92       	push	r0
     9b0:	11 24       	eor	r1, r1
     9b2:	0f 90       	pop	r0
     9b4:	0f be       	out	0x3f, r0	; 63
     9b6:	0f 90       	pop	r0
     9b8:	1f 90       	pop	r1
     9ba:	18 95       	reti

000009bc <__vector_13>:
ISR(TIMER1_COMPB_vect){ }
     9bc:	1f 92       	push	r1
     9be:	0f 92       	push	r0
     9c0:	0f b6       	in	r0, 0x3f	; 63
     9c2:	0f 92       	push	r0
     9c4:	11 24       	eor	r1, r1
     9c6:	0f 90       	pop	r0
     9c8:	0f be       	out	0x3f, r0	; 63
     9ca:	0f 90       	pop	r0
     9cc:	1f 90       	pop	r1
     9ce:	18 95       	reti

000009d0 <__vector_24>:
ISR(TIMER1_COMPC_vect){ }
     9d0:	1f 92       	push	r1
     9d2:	0f 92       	push	r0
     9d4:	0f b6       	in	r0, 0x3f	; 63
     9d6:	0f 92       	push	r0
     9d8:	11 24       	eor	r1, r1
     9da:	0f 90       	pop	r0
     9dc:	0f be       	out	0x3f, r0	; 63
     9de:	0f 90       	pop	r0
     9e0:	1f 90       	pop	r1
     9e2:	18 95       	reti

000009e4 <__vector_14>:
ISR(TIMER1_OVF_vect){ }
     9e4:	1f 92       	push	r1
     9e6:	0f 92       	push	r0
     9e8:	0f b6       	in	r0, 0x3f	; 63
     9ea:	0f 92       	push	r0
     9ec:	11 24       	eor	r1, r1
     9ee:	0f 90       	pop	r0
     9f0:	0f be       	out	0x3f, r0	; 63
     9f2:	0f 90       	pop	r0
     9f4:	1f 90       	pop	r1
     9f6:	18 95       	reti

000009f8 <__vector_10>:
ISR(TIMER2_OVF_vect){ }
     9f8:	1f 92       	push	r1
     9fa:	0f 92       	push	r0
     9fc:	0f b6       	in	r0, 0x3f	; 63
     9fe:	0f 92       	push	r0
     a00:	11 24       	eor	r1, r1
     a02:	0f 90       	pop	r0
     a04:	0f be       	out	0x3f, r0	; 63
     a06:	0f 90       	pop	r0
     a08:	1f 90       	pop	r1
     a0a:	18 95       	reti

00000a0c <__vector_25>:
ISR(TIMER3_CAPT_vect){ }
     a0c:	1f 92       	push	r1
     a0e:	0f 92       	push	r0
     a10:	0f b6       	in	r0, 0x3f	; 63
     a12:	0f 92       	push	r0
     a14:	11 24       	eor	r1, r1
     a16:	0f 90       	pop	r0
     a18:	0f be       	out	0x3f, r0	; 63
     a1a:	0f 90       	pop	r0
     a1c:	1f 90       	pop	r1
     a1e:	18 95       	reti

00000a20 <__vector_26>:
ISR(TIMER3_COMPA_vect){ }
     a20:	1f 92       	push	r1
     a22:	0f 92       	push	r0
     a24:	0f b6       	in	r0, 0x3f	; 63
     a26:	0f 92       	push	r0
     a28:	11 24       	eor	r1, r1
     a2a:	0f 90       	pop	r0
     a2c:	0f be       	out	0x3f, r0	; 63
     a2e:	0f 90       	pop	r0
     a30:	1f 90       	pop	r1
     a32:	18 95       	reti

00000a34 <__vector_27>:
ISR(TIMER3_COMPB_vect){ }
     a34:	1f 92       	push	r1
     a36:	0f 92       	push	r0
     a38:	0f b6       	in	r0, 0x3f	; 63
     a3a:	0f 92       	push	r0
     a3c:	11 24       	eor	r1, r1
     a3e:	0f 90       	pop	r0
     a40:	0f be       	out	0x3f, r0	; 63
     a42:	0f 90       	pop	r0
     a44:	1f 90       	pop	r1
     a46:	18 95       	reti

00000a48 <__vector_28>:
ISR(TIMER3_COMPC_vect){ }
     a48:	1f 92       	push	r1
     a4a:	0f 92       	push	r0
     a4c:	0f b6       	in	r0, 0x3f	; 63
     a4e:	0f 92       	push	r0
     a50:	11 24       	eor	r1, r1
     a52:	0f 90       	pop	r0
     a54:	0f be       	out	0x3f, r0	; 63
     a56:	0f 90       	pop	r0
     a58:	1f 90       	pop	r1
     a5a:	18 95       	reti

00000a5c <__vector_29>:
ISR(TIMER3_OVF_vect){ }
     a5c:	1f 92       	push	r1
     a5e:	0f 92       	push	r0
     a60:	0f b6       	in	r0, 0x3f	; 63
     a62:	0f 92       	push	r0
     a64:	11 24       	eor	r1, r1
     a66:	0f 90       	pop	r0
     a68:	0f be       	out	0x3f, r0	; 63
     a6a:	0f 90       	pop	r0
     a6c:	1f 90       	pop	r1
     a6e:	18 95       	reti

00000a70 <__vector_18>:
	}else{
		uart1_index=0;
		ret=uart1_msg;
	}
	return ret;
}
     a70:	1f 92       	push	r1
     a72:	0f 92       	push	r0
     a74:	0f b6       	in	r0, 0x3f	; 63
     a76:	0f 92       	push	r0
     a78:	11 24       	eor	r1, r1
     a7a:	0b b6       	in	r0, 0x3b	; 59
     a7c:	0f 92       	push	r0
     a7e:	8f 93       	push	r24
     a80:	9f 93       	push	r25
     a82:	ef 93       	push	r30
     a84:	ff 93       	push	r31
     a86:	8b b1       	in	r24, 0x0b	; 11
     a88:	9a b1       	in	r25, 0x0a	; 10
     a8a:	88 71       	andi	r24, 0x18	; 24
     a8c:	80 93 cd 01 	sts	0x01CD, r24	; 0x8001cd <UART_LastRxError>
     a90:	e0 91 d6 02 	lds	r30, 0x02D6	; 0x8002d6 <UART_RxHead>
     a94:	ef 5f       	subi	r30, 0xFF	; 255
     a96:	ef 73       	andi	r30, 0x3F	; 63
     a98:	90 91 d7 02 	lds	r25, 0x02D7	; 0x8002d7 <UART_RxTail>
     a9c:	e9 13       	cpse	r30, r25
     a9e:	04 c0       	rjmp	.+8      	; 0xaa8 <__vector_18+0x38>
     aa0:	82 e0       	ldi	r24, 0x02	; 2
     aa2:	80 93 cd 01 	sts	0x01CD, r24	; 0x8001cd <UART_LastRxError>
     aa6:	0f c0       	rjmp	.+30     	; 0xac6 <__vector_18+0x56>
     aa8:	9c b1       	in	r25, 0x0c	; 12
     aaa:	e0 93 d6 02 	sts	0x02D6, r30	; 0x8002d6 <UART_RxHead>
     aae:	88 23       	and	r24, r24
     ab0:	31 f0       	breq	.+12     	; 0xabe <__vector_18+0x4e>
     ab2:	f0 e0       	ldi	r31, 0x00	; 0
     ab4:	e7 52       	subi	r30, 0x27	; 39
     ab6:	fd 4f       	sbci	r31, 0xFD	; 253
     ab8:	88 e5       	ldi	r24, 0x58	; 88
     aba:	80 83       	st	Z, r24
     abc:	04 c0       	rjmp	.+8      	; 0xac6 <__vector_18+0x56>
     abe:	f0 e0       	ldi	r31, 0x00	; 0
     ac0:	e7 52       	subi	r30, 0x27	; 39
     ac2:	fd 4f       	sbci	r31, 0xFD	; 253
     ac4:	90 83       	st	Z, r25
     ac6:	ff 91       	pop	r31
     ac8:	ef 91       	pop	r30
     aca:	9f 91       	pop	r25
     acc:	8f 91       	pop	r24
     ace:	0f 90       	pop	r0
     ad0:	0b be       	out	0x3b, r0	; 59
     ad2:	0f 90       	pop	r0
     ad4:	0f be       	out	0x3f, r0	; 63
     ad6:	0f 90       	pop	r0
     ad8:	1f 90       	pop	r1
     ada:	18 95       	reti

00000adc <__vector_19>:
     adc:	1f 92       	push	r1
     ade:	0f 92       	push	r0
     ae0:	0f b6       	in	r0, 0x3f	; 63
     ae2:	0f 92       	push	r0
     ae4:	11 24       	eor	r1, r1
     ae6:	0b b6       	in	r0, 0x3b	; 59
     ae8:	0f 92       	push	r0
     aea:	8f 93       	push	r24
     aec:	9f 93       	push	r25
     aee:	ef 93       	push	r30
     af0:	ff 93       	push	r31
     af2:	e0 91 11 02 	lds	r30, 0x0211	; 0x800211 <UART_TxTail>
     af6:	f0 e0       	ldi	r31, 0x00	; 0
     af8:	ea 56       	subi	r30, 0x6A	; 106
     afa:	fd 4f       	sbci	r31, 0xFD	; 253
     afc:	80 81       	ld	r24, Z
     afe:	8c b9       	out	0x0c, r24	; 12
     b00:	10 82       	st	Z, r1
     b02:	80 91 11 02 	lds	r24, 0x0211	; 0x800211 <UART_TxTail>
     b06:	8f 5f       	subi	r24, 0xFF	; 255
     b08:	8f 73       	andi	r24, 0x3F	; 63
     b0a:	80 93 11 02 	sts	0x0211, r24	; 0x800211 <UART_TxTail>
     b0e:	90 91 cc 01 	lds	r25, 0x01CC	; 0x8001cc <UART_TxHead>
     b12:	89 13       	cpse	r24, r25
     b14:	01 c0       	rjmp	.+2      	; 0xb18 <__vector_19+0x3c>
     b16:	55 98       	cbi	0x0a, 5	; 10
     b18:	ff 91       	pop	r31
     b1a:	ef 91       	pop	r30
     b1c:	9f 91       	pop	r25
     b1e:	8f 91       	pop	r24
     b20:	0f 90       	pop	r0
     b22:	0b be       	out	0x3b, r0	; 59
     b24:	0f 90       	pop	r0
     b26:	0f be       	out	0x3f, r0	; 63
     b28:	0f 90       	pop	r0
     b2a:	1f 90       	pop	r1
     b2c:	18 95       	reti

00000b2e <__vector_30>:
	UART1_TxHead = UART1_TxTail;
}
/***Interrupt***/
/***SIGNAL(UART1_RECEIVE_INTERRUPT)***/
SIGNAL(UART1_RECEIVE_INTERRUPT)
{
     b2e:	1f 92       	push	r1
     b30:	0f 92       	push	r0
     b32:	0f b6       	in	r0, 0x3f	; 63
     b34:	0f 92       	push	r0
     b36:	11 24       	eor	r1, r1
     b38:	0b b6       	in	r0, 0x3b	; 59
     b3a:	0f 92       	push	r0
     b3c:	8f 93       	push	r24
     b3e:	9f 93       	push	r25
     b40:	ef 93       	push	r30
     b42:	ff 93       	push	r31
    unsigned char tmphead;
	unsigned char data;
	unsigned char bit9;
    unsigned char usr;
    /***read UART status register and UART data register***/
	usr  = UART1_STATUS;
     b44:	80 91 9b 00 	lds	r24, 0x009B	; 0x80009b <__TEXT_REGION_LENGTH__+0x7e009b>
    bit9 = UART1_CONTROL;
     b48:	90 91 9a 00 	lds	r25, 0x009A	; 0x80009a <__TEXT_REGION_LENGTH__+0x7e009a>
    bit9 = 0x01 & (bit9>>1);
    /***/
    UART1_LastRxError = (usr & (_BV(FE1)|_BV(DOR1)));
     b4c:	88 71       	andi	r24, 0x18	; 24
     b4e:	80 93 13 02 	sts	0x0213, r24	; 0x800213 <UART1_LastRxError>
	/***calculate buffer index***/
    tmphead = ( UART1_RxHead + 1) & UART_RX_BUFFER_MASK;
     b52:	e0 91 12 02 	lds	r30, 0x0212	; 0x800212 <UART1_RxHead>
     b56:	ef 5f       	subi	r30, 0xFF	; 255
     b58:	ef 73       	andi	r30, 0x3F	; 63
    if ( tmphead == UART1_RxTail ) {	
     b5a:	90 91 d8 02 	lds	r25, 0x02D8	; 0x8002d8 <UART1_RxTail>
     b5e:	e9 13       	cpse	r30, r25
     b60:	04 c0       	rjmp	.+8      	; 0xb6a <__vector_30+0x3c>
        /***error: receive buffer overflow, caracter is lost***/
        UART1_LastRxError = UART_BUFFER_OVERFLOW >> 8; 
     b62:	82 e0       	ldi	r24, 0x02	; 2
     b64:	80 93 13 02 	sts	0x0213, r24	; 0x800213 <UART1_LastRxError>
     b68:	10 c0       	rjmp	.+32     	; 0xb8a <__vector_30+0x5c>
	}else{
		data = UART1_DATA;
     b6a:	90 91 9c 00 	lds	r25, 0x009C	; 0x80009c <__TEXT_REGION_LENGTH__+0x7e009c>
        /***store new index***/
        UART1_RxHead = tmphead;
     b6e:	e0 93 12 02 	sts	0x0212, r30	; 0x800212 <UART1_RxHead>
		if(UART1_LastRxError){
     b72:	88 23       	and	r24, r24
     b74:	31 f0       	breq	.+12     	; 0xb82 <__vector_30+0x54>
			/***store indication data error in buffer***/
			UART1_RxBuf[tmphead] = 'X';
     b76:	f0 e0       	ldi	r31, 0x00	; 0
     b78:	e1 53       	subi	r30, 0x31	; 49
     b7a:	fe 4f       	sbci	r31, 0xFE	; 254
     b7c:	88 e5       	ldi	r24, 0x58	; 88
     b7e:	80 83       	st	Z, r24
     b80:	04 c0       	rjmp	.+8      	; 0xb8a <__vector_30+0x5c>
		}else{
			/***store received data in buffer***/
			UART1_RxBuf[tmphead] = data;
     b82:	f0 e0       	ldi	r31, 0x00	; 0
     b84:	e1 53       	subi	r30, 0x31	; 49
     b86:	fe 4f       	sbci	r31, 0xFE	; 254
     b88:	90 83       	st	Z, r25
		}
    }
}
     b8a:	ff 91       	pop	r31
     b8c:	ef 91       	pop	r30
     b8e:	9f 91       	pop	r25
     b90:	8f 91       	pop	r24
     b92:	0f 90       	pop	r0
     b94:	0b be       	out	0x3b, r0	; 59
     b96:	0f 90       	pop	r0
     b98:	0f be       	out	0x3f, r0	; 63
     b9a:	0f 90       	pop	r0
     b9c:	1f 90       	pop	r1
     b9e:	18 95       	reti

00000ba0 <__vector_31>:
/***SIGNAL(UART1_TRANSMIT_INTERRUPT)***/
SIGNAL(UART1_TRANSMIT_INTERRUPT)
{
     ba0:	1f 92       	push	r1
     ba2:	0f 92       	push	r0
     ba4:	0f b6       	in	r0, 0x3f	; 63
     ba6:	0f 92       	push	r0
     ba8:	11 24       	eor	r1, r1
     baa:	0b b6       	in	r0, 0x3b	; 59
     bac:	0f 92       	push	r0
     bae:	8f 93       	push	r24
     bb0:	9f 93       	push	r25
     bb2:	ef 93       	push	r30
     bb4:	ff 93       	push	r31
	uint8_t tail = UART1_TxTail;
	UART1_DATA = UART1_TxBuf[tail];
     bb6:	e0 91 ce 01 	lds	r30, 0x01CE	; 0x8001ce <UART1_TxTail>
     bba:	f0 e0       	ldi	r31, 0x00	; 0
     bbc:	ea 5a       	subi	r30, 0xAA	; 170
     bbe:	fd 4f       	sbci	r31, 0xFD	; 253
     bc0:	80 81       	ld	r24, Z
     bc2:	80 93 9c 00 	sts	0x009C, r24	; 0x80009c <__TEXT_REGION_LENGTH__+0x7e009c>
	UART1_TxBuf[tail]='\0';
     bc6:	10 82       	st	Z, r1
	UART1_TxTail = (UART1_TxTail + 1) & UART_TX_BUFFER_MASK;
     bc8:	80 91 ce 01 	lds	r24, 0x01CE	; 0x8001ce <UART1_TxTail>
     bcc:	8f 5f       	subi	r24, 0xFF	; 255
     bce:	8f 73       	andi	r24, 0x3F	; 63
     bd0:	80 93 ce 01 	sts	0x01CE, r24	; 0x8001ce <UART1_TxTail>
	if ( UART1_TxTail != UART1_TxHead )
     bd4:	90 91 14 02 	lds	r25, 0x0214	; 0x800214 <UART1_TxHead>
     bd8:	89 13       	cpse	r24, r25
     bda:	05 c0       	rjmp	.+10     	; 0xbe6 <__vector_31+0x46>
        ;
    else
		UART1_CONTROL &= ~_BV(UART1_UDRIE);
     bdc:	ea e9       	ldi	r30, 0x9A	; 154
     bde:	f0 e0       	ldi	r31, 0x00	; 0
     be0:	80 81       	ld	r24, Z
     be2:	8f 7d       	andi	r24, 0xDF	; 223
     be4:	80 83       	st	Z, r24
}
     be6:	ff 91       	pop	r31
     be8:	ef 91       	pop	r30
     bea:	9f 91       	pop	r25
     bec:	8f 91       	pop	r24
     bee:	0f 90       	pop	r0
     bf0:	0b be       	out	0x3b, r0	; 59
     bf2:	0f 90       	pop	r0
     bf4:	0f be       	out	0x3f, r0	; 63
     bf6:	0f 90       	pop	r0
     bf8:	1f 90       	pop	r1
     bfa:	18 95       	reti

00000bfc <FUNCpinmatch>:
}
//pinmatch
uint8_t FUNCpinmatch(uint8_t match, uint8_t pin, uint8_t HL)
{
	uint8_t result;
	result=match&pin;
     bfc:	68 23       	and	r22, r24
	if(HL){
     bfe:	44 23       	and	r20, r20
     c00:	21 f0       	breq	.+8      	; 0xc0a <FUNCpinmatch+0xe>
		if(result==match);
     c02:	86 17       	cp	r24, r22
     c04:	21 f0       	breq	.+8      	; 0xc0e <FUNCpinmatch+0x12>
		else
			result=0;
     c06:	80 e0       	ldi	r24, 0x00	; 0
     c08:	08 95       	ret
	}else{
		if(result)
     c0a:	61 11       	cpse	r22, r1
			result=0;
     c0c:	80 e0       	ldi	r24, 0x00	; 0
		else
			result=match;
	}
	return result;
}
     c0e:	08 95       	ret

00000c10 <FUNChmerge>:
// hmerge
uint8_t FUNChmerge(uint8_t X, uint8_t Y)
{
	return (X | Y);
}
     c10:	86 2b       	or	r24, r22
     c12:	08 95       	ret

00000c14 <FUNClmerge>:
// lmerge
uint8_t FUNClmerge(uint8_t X, uint8_t Y)
{
	return (X & Y);
}
     c14:	86 23       	and	r24, r22
     c16:	08 95       	ret

00000c18 <FUNChh>:
uint8_t FUNChh(uint8_t xi, uint8_t xf)
{
	uint8_t i;
	i=xi&xf;
	return i;
}
     c18:	86 23       	and	r24, r22
     c1a:	08 95       	ret

00000c1c <FUNCll>:
// ll
uint8_t FUNCll(uint8_t xi, uint8_t xf)
{
	uint8_t i;
	i=xi|xf;
	return ~i;
     c1c:	86 2b       	or	r24, r22
}
     c1e:	80 95       	com	r24
     c20:	08 95       	ret

00000c22 <FUNClh>:
// lh
uint8_t FUNClh(uint8_t xi, uint8_t xf)
{
	uint8_t i;
	i=xi^xf;
     c22:	86 27       	eor	r24, r22
	i&=xf;
	return i;
}
     c24:	86 23       	and	r24, r22
     c26:	08 95       	ret

00000c28 <FUNChl>:
// hl
uint8_t FUNChl(uint8_t xi, uint8_t xf)
{
	uint8_t i;
	i=xf^xi;
     c28:	60 95       	com	r22
	i&=xi;
	return i;
}
     c2a:	86 23       	and	r24, r22
     c2c:	08 95       	ret

00000c2e <FUNCdiff>:
// diff
uint8_t FUNCdiff(uint8_t xi, uint8_t xf)
{
	return xf^xi;
}
     c2e:	86 27       	eor	r24, r22
     c30:	08 95       	ret

00000c32 <FUNCswap>:
// interchange *px and *py
void FUNCswap(long *px, long *py)
{
     c32:	cf 92       	push	r12
     c34:	df 92       	push	r13
     c36:	ef 92       	push	r14
     c38:	ff 92       	push	r15
     c3a:	0f 93       	push	r16
     c3c:	1f 93       	push	r17
	long temp;
	temp = *px;
     c3e:	fc 01       	movw	r30, r24
     c40:	00 81       	ld	r16, Z
     c42:	11 81       	ldd	r17, Z+1	; 0x01
     c44:	22 81       	ldd	r18, Z+2	; 0x02
     c46:	33 81       	ldd	r19, Z+3	; 0x03
	*px = *py;
     c48:	fb 01       	movw	r30, r22
     c4a:	c0 80       	ld	r12, Z
     c4c:	d1 80       	ldd	r13, Z+1	; 0x01
     c4e:	e2 80       	ldd	r14, Z+2	; 0x02
     c50:	f3 80       	ldd	r15, Z+3	; 0x03
     c52:	fc 01       	movw	r30, r24
     c54:	c0 82       	st	Z, r12
     c56:	d1 82       	std	Z+1, r13	; 0x01
     c58:	e2 82       	std	Z+2, r14	; 0x02
     c5a:	f3 82       	std	Z+3, r15	; 0x03
	*py = temp;
     c5c:	fb 01       	movw	r30, r22
     c5e:	00 83       	st	Z, r16
     c60:	11 83       	std	Z+1, r17	; 0x01
     c62:	22 83       	std	Z+2, r18	; 0x02
     c64:	33 83       	std	Z+3, r19	; 0x03
}
     c66:	1f 91       	pop	r17
     c68:	0f 91       	pop	r16
     c6a:	ff 90       	pop	r15
     c6c:	ef 90       	pop	r14
     c6e:	df 90       	pop	r13
     c70:	cf 90       	pop	r12
     c72:	08 95       	ret

00000c74 <FUNCcopy>:
// copy: copy 'from' into 'to'; assume to is big enough
void FUNCcopy(char to[], char from[])
{
	int i;
	i = 0;
	while ((to[i] = from[i]) != '\0')
     c74:	fb 01       	movw	r30, r22
     c76:	20 81       	ld	r18, Z
     c78:	fc 01       	movw	r30, r24
     c7a:	20 83       	st	Z, r18
     c7c:	22 23       	and	r18, r18
     c7e:	39 f0       	breq	.+14     	; 0xc8e <FUNCcopy+0x1a>
     c80:	db 01       	movw	r26, r22
     c82:	11 96       	adiw	r26, 0x01	; 1
     c84:	31 96       	adiw	r30, 0x01	; 1
     c86:	9d 91       	ld	r25, X+
     c88:	91 93       	st	Z+, r25
     c8a:	91 11       	cpse	r25, r1
     c8c:	fc cf       	rjmp	.-8      	; 0xc86 <FUNCcopy+0x12>
     c8e:	08 95       	ret

00000c90 <FUNCsqueeze>:
		++i;
}
// squeeze: delete all c from s
void FUNCsqueeze(char s[], int c)
{
     c90:	cf 93       	push	r28
     c92:	df 93       	push	r29
     c94:	ec 01       	movw	r28, r24
	int i, j;
	for (i = j = 0; s[i] != '\0'; i++)
     c96:	98 81       	ld	r25, Y
     c98:	99 23       	and	r25, r25
     c9a:	99 f0       	breq	.+38     	; 0xcc2 <FUNCsqueeze+0x32>
     c9c:	fe 01       	movw	r30, r28
     c9e:	31 96       	adiw	r30, 0x01	; 1
     ca0:	20 e0       	ldi	r18, 0x00	; 0
     ca2:	30 e0       	ldi	r19, 0x00	; 0
		if (s[i] != c)
     ca4:	49 2f       	mov	r20, r25
     ca6:	50 e0       	ldi	r21, 0x00	; 0
     ca8:	46 17       	cp	r20, r22
     caa:	57 07       	cpc	r21, r23
     cac:	31 f0       	breq	.+12     	; 0xcba <FUNCsqueeze+0x2a>
			s[j++] = s[i];
     cae:	de 01       	movw	r26, r28
     cb0:	a2 0f       	add	r26, r18
     cb2:	b3 1f       	adc	r27, r19
     cb4:	9c 93       	st	X, r25
     cb6:	2f 5f       	subi	r18, 0xFF	; 255
     cb8:	3f 4f       	sbci	r19, 0xFF	; 255
}
// squeeze: delete all c from s
void FUNCsqueeze(char s[], int c)
{
	int i, j;
	for (i = j = 0; s[i] != '\0'; i++)
     cba:	91 91       	ld	r25, Z+
     cbc:	91 11       	cpse	r25, r1
     cbe:	f2 cf       	rjmp	.-28     	; 0xca4 <FUNCsqueeze+0x14>
     cc0:	02 c0       	rjmp	.+4      	; 0xcc6 <FUNCsqueeze+0x36>
     cc2:	20 e0       	ldi	r18, 0x00	; 0
     cc4:	30 e0       	ldi	r19, 0x00	; 0
		if (s[i] != c)
			s[j++] = s[i];
		s[j] = '\0';
     cc6:	fe 01       	movw	r30, r28
     cc8:	e2 0f       	add	r30, r18
     cca:	f3 1f       	adc	r31, r19
     ccc:	10 82       	st	Z, r1
}
     cce:	df 91       	pop	r29
     cd0:	cf 91       	pop	r28
     cd2:	08 95       	ret

00000cd4 <FUNCshellsort>:
// shellsort: sort v[0]...v[n-1] into increasing order
void FUNCshellsort(int v[], int n)
{
     cd4:	2f 92       	push	r2
     cd6:	3f 92       	push	r3
     cd8:	4f 92       	push	r4
     cda:	5f 92       	push	r5
     cdc:	6f 92       	push	r6
     cde:	7f 92       	push	r7
     ce0:	8f 92       	push	r8
     ce2:	9f 92       	push	r9
     ce4:	af 92       	push	r10
     ce6:	bf 92       	push	r11
     ce8:	cf 92       	push	r12
     cea:	df 92       	push	r13
     cec:	ef 92       	push	r14
     cee:	ff 92       	push	r15
     cf0:	0f 93       	push	r16
     cf2:	1f 93       	push	r17
     cf4:	cf 93       	push	r28
     cf6:	df 93       	push	r29
     cf8:	00 d0       	rcall	.+0      	; 0xcfa <FUNCshellsort+0x26>
     cfa:	00 d0       	rcall	.+0      	; 0xcfc <FUNCshellsort+0x28>
     cfc:	cd b7       	in	r28, 0x3d	; 61
     cfe:	de b7       	in	r29, 0x3e	; 62
     d00:	2c 01       	movw	r4, r24
     d02:	1b 01       	movw	r2, r22
	int gap, i, j, temp;
	for (gap = n/2; gap > 0; gap /= 2)
     d04:	4b 01       	movw	r8, r22
     d06:	77 23       	and	r23, r23
     d08:	1c f4       	brge	.+6      	; 0xd10 <FUNCshellsort+0x3c>
     d0a:	2f ef       	ldi	r18, 0xFF	; 255
     d0c:	82 1a       	sub	r8, r18
     d0e:	92 0a       	sbc	r9, r18
     d10:	95 94       	asr	r9
     d12:	87 94       	ror	r8
     d14:	18 14       	cp	r1, r8
     d16:	19 04       	cpc	r1, r9
     d18:	0c f4       	brge	.+2      	; 0xd1c <FUNCshellsort+0x48>
     d1a:	51 c0       	rjmp	.+162    	; 0xdbe <FUNCshellsort+0xea>
     d1c:	6a c0       	rjmp	.+212    	; 0xdf2 <FUNCshellsort+0x11e>
		for (i = gap; i < n; i++)
			for (j=i-gap; j>=0 && v[j]>v[j+gap]; j-=gap){
     d1e:	96 01       	movw	r18, r12
     d20:	dd 20       	and	r13, r13
     d22:	9c f1       	brlt	.+102    	; 0xd8a <FUNCshellsort+0xb6>
     d24:	f5 01       	movw	r30, r10
     d26:	40 81       	ld	r20, Z
     d28:	51 81       	ldd	r21, Z+1	; 0x01
     d2a:	f4 01       	movw	r30, r8
     d2c:	60 81       	ld	r22, Z
     d2e:	71 81       	ldd	r23, Z+1	; 0x01
     d30:	64 17       	cp	r22, r20
     d32:	75 07       	cpc	r23, r21
     d34:	54 f5       	brge	.+84     	; 0xd8a <FUNCshellsort+0xb6>
     d36:	8c 01       	movw	r16, r24
     d38:	0a 0d       	add	r16, r10
     d3a:	1b 1d       	adc	r17, r11
     d3c:	d4 01       	movw	r26, r8
     d3e:	bc 82       	std	Y+4, r11	; 0x04
     d40:	ab 82       	std	Y+3, r10	; 0x03
     d42:	ba 82       	std	Y+2, r11	; 0x02
     d44:	a9 82       	std	Y+1, r10	; 0x01
				temp = v[j];
				v[j] = v[j+gap];
     d46:	eb 81       	ldd	r30, Y+3	; 0x03
     d48:	fc 81       	ldd	r31, Y+4	; 0x04
     d4a:	71 83       	std	Z+1, r23	; 0x01
     d4c:	60 83       	st	Z, r22
				v[j+gap] = temp;
     d4e:	11 96       	adiw	r26, 0x01	; 1
     d50:	5c 93       	st	X, r21
     d52:	4e 93       	st	-X, r20
void FUNCshellsort(int v[], int n)
{
	int gap, i, j, temp;
	for (gap = n/2; gap > 0; gap /= 2)
		for (i = gap; i < n; i++)
			for (j=i-gap; j>=0 && v[j]>v[j+gap]; j-=gap){
     d54:	2e 19       	sub	r18, r14
     d56:	3f 09       	sbc	r19, r15
     d58:	c2 f0       	brmi	.+48     	; 0xd8a <FUNCshellsort+0xb6>
     d5a:	f8 01       	movw	r30, r16
     d5c:	40 81       	ld	r20, Z
     d5e:	51 81       	ldd	r21, Z+1	; 0x01
     d60:	e9 81       	ldd	r30, Y+1	; 0x01
     d62:	fa 81       	ldd	r31, Y+2	; 0x02
     d64:	60 81       	ld	r22, Z
     d66:	71 81       	ldd	r23, Z+1	; 0x01
     d68:	08 0f       	add	r16, r24
     d6a:	19 1f       	adc	r17, r25
     d6c:	e8 0f       	add	r30, r24
     d6e:	f9 1f       	adc	r31, r25
     d70:	fa 83       	std	Y+2, r31	; 0x02
     d72:	e9 83       	std	Y+1, r30	; 0x01
     d74:	eb 81       	ldd	r30, Y+3	; 0x03
     d76:	fc 81       	ldd	r31, Y+4	; 0x04
     d78:	e8 0f       	add	r30, r24
     d7a:	f9 1f       	adc	r31, r25
     d7c:	fc 83       	std	Y+4, r31	; 0x04
     d7e:	eb 83       	std	Y+3, r30	; 0x03
     d80:	a8 0f       	add	r26, r24
     d82:	b9 1f       	adc	r27, r25
     d84:	64 17       	cp	r22, r20
     d86:	75 07       	cpc	r23, r21
     d88:	f4 f2       	brlt	.-68     	; 0xd46 <FUNCshellsort+0x72>
     d8a:	ff ef       	ldi	r31, 0xFF	; 255
     d8c:	cf 1a       	sub	r12, r31
     d8e:	df 0a       	sbc	r13, r31
     d90:	22 e0       	ldi	r18, 0x02	; 2
     d92:	a2 0e       	add	r10, r18
     d94:	b1 1c       	adc	r11, r1
     d96:	e2 e0       	ldi	r30, 0x02	; 2
     d98:	8e 0e       	add	r8, r30
     d9a:	91 1c       	adc	r9, r1
// shellsort: sort v[0]...v[n-1] into increasing order
void FUNCshellsort(int v[], int n)
{
	int gap, i, j, temp;
	for (gap = n/2; gap > 0; gap /= 2)
		for (i = gap; i < n; i++)
     d9c:	c6 14       	cp	r12, r6
     d9e:	d7 04       	cpc	r13, r7
     da0:	09 f0       	breq	.+2      	; 0xda4 <FUNCshellsort+0xd0>
     da2:	bd cf       	rjmp	.-134    	; 0xd1e <FUNCshellsort+0x4a>
}
// shellsort: sort v[0]...v[n-1] into increasing order
void FUNCshellsort(int v[], int n)
{
	int gap, i, j, temp;
	for (gap = n/2; gap > 0; gap /= 2)
     da4:	47 01       	movw	r8, r14
     da6:	ff 20       	and	r15, r15
     da8:	1c f4       	brge	.+6      	; 0xdb0 <FUNCshellsort+0xdc>
     daa:	ff ef       	ldi	r31, 0xFF	; 255
     dac:	8f 1a       	sub	r8, r31
     dae:	9f 0a       	sbc	r9, r31
     db0:	95 94       	asr	r9
     db2:	87 94       	ror	r8
     db4:	18 14       	cp	r1, r8
     db6:	19 04       	cpc	r1, r9
     db8:	e4 f4       	brge	.+56     	; 0xdf2 <FUNCshellsort+0x11e>
     dba:	74 01       	movw	r14, r8
     dbc:	01 c0       	rjmp	.+2      	; 0xdc0 <FUNCshellsort+0xec>
     dbe:	74 01       	movw	r14, r8
		for (i = gap; i < n; i++)
     dc0:	82 14       	cp	r8, r2
     dc2:	93 04       	cpc	r9, r3
     dc4:	7c f7       	brge	.-34     	; 0xda4 <FUNCshellsort+0xd0>
     dc6:	64 01       	movw	r12, r8
     dc8:	ce 18       	sub	r12, r14
     dca:	df 08       	sbc	r13, r15
     dcc:	56 01       	movw	r10, r12
     dce:	aa 0c       	add	r10, r10
     dd0:	bb 1c       	adc	r11, r11
     dd2:	a4 0c       	add	r10, r4
     dd4:	b5 1c       	adc	r11, r5
     dd6:	88 0c       	add	r8, r8
     dd8:	99 1c       	adc	r9, r9
     dda:	84 0c       	add	r8, r4
     ddc:	95 1c       	adc	r9, r5
     dde:	31 01       	movw	r6, r2
     de0:	6e 18       	sub	r6, r14
     de2:	7f 08       	sbc	r7, r15
     de4:	c7 01       	movw	r24, r14
     de6:	88 0f       	add	r24, r24
     de8:	99 1f       	adc	r25, r25
     dea:	91 95       	neg	r25
     dec:	81 95       	neg	r24
     dee:	91 09       	sbc	r25, r1
     df0:	96 cf       	rjmp	.-212    	; 0xd1e <FUNCshellsort+0x4a>
			for (j=i-gap; j>=0 && v[j]>v[j+gap]; j-=gap){
				temp = v[j];
				v[j] = v[j+gap];
				v[j+gap] = temp;
			}
}
     df2:	0f 90       	pop	r0
     df4:	0f 90       	pop	r0
     df6:	0f 90       	pop	r0
     df8:	0f 90       	pop	r0
     dfa:	df 91       	pop	r29
     dfc:	cf 91       	pop	r28
     dfe:	1f 91       	pop	r17
     e00:	0f 91       	pop	r16
     e02:	ff 90       	pop	r15
     e04:	ef 90       	pop	r14
     e06:	df 90       	pop	r13
     e08:	cf 90       	pop	r12
     e0a:	bf 90       	pop	r11
     e0c:	af 90       	pop	r10
     e0e:	9f 90       	pop	r9
     e10:	8f 90       	pop	r8
     e12:	7f 90       	pop	r7
     e14:	6f 90       	pop	r6
     e16:	5f 90       	pop	r5
     e18:	4f 90       	pop	r4
     e1a:	3f 90       	pop	r3
     e1c:	2f 90       	pop	r2
     e1e:	08 95       	ret

00000e20 <FUNCpmax>:
	if(a1 > a2){
		biggest = a1;
	}else{
		biggest = a2;
	}
	return biggest;
     e20:	86 17       	cp	r24, r22
     e22:	97 07       	cpc	r25, r23
     e24:	0c f4       	brge	.+2      	; 0xe28 <FUNCpmax+0x8>
     e26:	cb 01       	movw	r24, r22
}
     e28:	08 95       	ret

00000e2a <FUNCgcd>:
// common divisor
int FUNCgcd (int u, int v)
{
     e2a:	9b 01       	movw	r18, r22
	int temp;
	while ( v != 0 ) {
     e2c:	67 2b       	or	r22, r23
     e2e:	11 f4       	brne	.+4      	; 0xe34 <FUNCgcd+0xa>
     e30:	08 95       	ret
		temp = u % v;
		u = v;
		v = temp;
     e32:	9a 01       	movw	r18, r20
// common divisor
int FUNCgcd (int u, int v)
{
	int temp;
	while ( v != 0 ) {
		temp = u % v;
     e34:	b9 01       	movw	r22, r18
     e36:	0e 94 90 1b 	call	0x3720	; 0x3720 <__divmodhi4>
     e3a:	ac 01       	movw	r20, r24
     e3c:	82 2f       	mov	r24, r18
     e3e:	93 2f       	mov	r25, r19
}
// common divisor
int FUNCgcd (int u, int v)
{
	int temp;
	while ( v != 0 ) {
     e40:	41 15       	cp	r20, r1
     e42:	51 05       	cpc	r21, r1
     e44:	b1 f7       	brne	.-20     	; 0xe32 <FUNCgcd+0x8>
		temp = u % v;
		u = v;
		v = temp;
	}
	return u;
}
     e46:	08 95       	ret

00000e48 <FUNCstrToInt>:
// Function to convert a string to an integer
int FUNCstrToInt (const char string[])
{
     e48:	fc 01       	movw	r30, r24
	int i, intValue, result = 0;
	for ( i = 0; string[i] >= '0' && string[i] <= '9'; ++i ){
     e4a:	90 81       	ld	r25, Z
     e4c:	80 ed       	ldi	r24, 0xD0	; 208
     e4e:	89 0f       	add	r24, r25
     e50:	8a 30       	cpi	r24, 0x0A	; 10
     e52:	d0 f4       	brcc	.+52     	; 0xe88 <FUNCstrToInt+0x40>
     e54:	31 96       	adiw	r30, 0x01	; 1
     e56:	20 e0       	ldi	r18, 0x00	; 0
     e58:	30 e0       	ldi	r19, 0x00	; 0
		intValue = string[i] - '0';
		result = result * 10 + intValue;
     e5a:	a9 01       	movw	r20, r18
     e5c:	44 0f       	add	r20, r20
     e5e:	55 1f       	adc	r21, r21
     e60:	22 0f       	add	r18, r18
     e62:	33 1f       	adc	r19, r19
     e64:	22 0f       	add	r18, r18
     e66:	33 1f       	adc	r19, r19
     e68:	22 0f       	add	r18, r18
     e6a:	33 1f       	adc	r19, r19
     e6c:	42 0f       	add	r20, r18
     e6e:	53 1f       	adc	r21, r19
     e70:	29 2f       	mov	r18, r25
     e72:	30 e0       	ldi	r19, 0x00	; 0
     e74:	20 53       	subi	r18, 0x30	; 48
     e76:	31 09       	sbc	r19, r1
     e78:	24 0f       	add	r18, r20
     e7a:	35 1f       	adc	r19, r21
}
// Function to convert a string to an integer
int FUNCstrToInt (const char string[])
{
	int i, intValue, result = 0;
	for ( i = 0; string[i] >= '0' && string[i] <= '9'; ++i ){
     e7c:	91 91       	ld	r25, Z+
     e7e:	80 ed       	ldi	r24, 0xD0	; 208
     e80:	89 0f       	add	r24, r25
     e82:	8a 30       	cpi	r24, 0x0A	; 10
     e84:	50 f3       	brcs	.-44     	; 0xe5a <FUNCstrToInt+0x12>
     e86:	02 c0       	rjmp	.+4      	; 0xe8c <FUNCstrToInt+0x44>
	return u;
}
// Function to convert a string to an integer
int FUNCstrToInt (const char string[])
{
	int i, intValue, result = 0;
     e88:	20 e0       	ldi	r18, 0x00	; 0
     e8a:	30 e0       	ldi	r19, 0x00	; 0
	for ( i = 0; string[i] >= '0' && string[i] <= '9'; ++i ){
		intValue = string[i] - '0';
		result = result * 10 + intValue;
	}
	return result;
}
     e8c:	c9 01       	movw	r24, r18
     e8e:	08 95       	ret

00000e90 <FUNCfilter>:
uint8_t FUNCfilter(uint8_t mask, uint8_t data)
{
	uint8_t Z;
	Z=mask & data;
	return Z;
}
     e90:	86 23       	and	r24, r22
     e92:	08 95       	ret

00000e94 <FUNCticks>:
// ticks
unsigned int FUNCticks(unsigned int num)
{
	unsigned int count;
	for(count=0;count<num;count++)
     e94:	00 97       	sbiw	r24, 0x00	; 0
     e96:	39 f0       	breq	.+14     	; 0xea6 <FUNCticks+0x12>
     e98:	20 e0       	ldi	r18, 0x00	; 0
     e9a:	30 e0       	ldi	r19, 0x00	; 0
     e9c:	2f 5f       	subi	r18, 0xFF	; 255
     e9e:	3f 4f       	sbci	r19, 0xFF	; 255
     ea0:	82 17       	cp	r24, r18
     ea2:	93 07       	cpc	r25, r19
     ea4:	d9 f7       	brne	.-10     	; 0xe9c <FUNCticks+0x8>
		;
	return count;
}
     ea6:	08 95       	ret

00000ea8 <FUNCtwocomptoint8bit>:
// Two's Complement function
int FUNCtwocomptoint8bit(int twoscomp){
  
  //Let's see if the byte is negative
  if (twoscomp & 0B10000000){
     ea8:	87 ff       	sbrs	r24, 7
     eaa:	08 c0       	rjmp	.+16     	; 0xebc <FUNCtwocomptoint8bit+0x14>
    //Invert
    twoscomp = ~twoscomp + 1;
     eac:	91 95       	neg	r25
     eae:	81 95       	neg	r24
     eb0:	91 09       	sbc	r25, r1
	twoscomp = (twoscomp & 0B11111111);
    //Cast as int and multiply by negative one
    int value = (int)(twoscomp)*(-1);
     eb2:	99 27       	eor	r25, r25
     eb4:	91 95       	neg	r25
     eb6:	81 95       	neg	r24
     eb8:	91 09       	sbc	r25, r1
    return value;
     eba:	08 95       	ret
    //Byte is non-negative, therefore convert to decimal and display
    //Make sure we are never over 1279
    twoscomp = (twoscomp & 0B01111111);
    //Cast as int and return
    int value = (int)(twoscomp);
    return value;
     ebc:	8f 77       	andi	r24, 0x7F	; 127
     ebe:	99 27       	eor	r25, r25
  }
}
     ec0:	08 95       	ret

00000ec2 <FUNCtwocomptoint10bit>:
// Two's Complement function, shifts 10 bit binary to signed integers (-512 to 512)
int FUNCtwocomptoint10bit(int twoscomp){
	
  //Let's see if the byte is negative
  if (twoscomp & 0x200){
     ec2:	91 ff       	sbrs	r25, 1
     ec4:	08 c0       	rjmp	.+16     	; 0xed6 <FUNCtwocomptoint10bit+0x14>
    //Invert
    twoscomp = ~twoscomp + 1;
     ec6:	91 95       	neg	r25
     ec8:	81 95       	neg	r24
     eca:	91 09       	sbc	r25, r1
    twoscomp = (twoscomp & 0x3FF);
    //Cast as int and multiply by negative one
    int value = (int)(twoscomp)*(-1);
     ecc:	93 70       	andi	r25, 0x03	; 3
     ece:	91 95       	neg	r25
     ed0:	81 95       	neg	r24
     ed2:	91 09       	sbc	r25, r1
    return value;
     ed4:	08 95       	ret
    //Byte is non-negative, therefore convert to decimal and display
    twoscomp = (twoscomp & 0x1FF);
    //Cast as int and return
    //Serial.println(twoscomp);
    int value = (int)(twoscomp);
    return value;
     ed6:	91 70       	andi	r25, 0x01	; 1
  }
}
     ed8:	08 95       	ret

00000eda <FUNCtwocomptointnbit>:
// Two's Complement function, nbits
int FUNCtwocomptointnbit(int twoscomp, uint8_t nbits){
  unsigned int signmask;
  unsigned int mask;
  signmask = (1<<(nbits-1));
     eda:	61 50       	subi	r22, 0x01	; 1
     edc:	21 e0       	ldi	r18, 0x01	; 1
     ede:	30 e0       	ldi	r19, 0x00	; 0
     ee0:	02 c0       	rjmp	.+4      	; 0xee6 <FUNCtwocomptointnbit+0xc>
     ee2:	22 0f       	add	r18, r18
     ee4:	33 1f       	adc	r19, r19
     ee6:	6a 95       	dec	r22
     ee8:	e2 f7       	brpl	.-8      	; 0xee2 <FUNCtwocomptointnbit+0x8>
  mask=signmask-1;
     eea:	a9 01       	movw	r20, r18
     eec:	41 50       	subi	r20, 0x01	; 1
     eee:	51 09       	sbc	r21, r1
  //Let's see if the number is negative
  if (twoscomp & signmask){
     ef0:	b9 01       	movw	r22, r18
     ef2:	68 23       	and	r22, r24
     ef4:	79 23       	and	r23, r25
     ef6:	67 2b       	or	r22, r23
     ef8:	29 f0       	breq	.+10     	; 0xf04 <FUNCtwocomptointnbit+0x2a>
	twoscomp &= mask;
    twoscomp -= signmask;
     efa:	84 23       	and	r24, r20
     efc:	95 23       	and	r25, r21
     efe:	82 1b       	sub	r24, r18
     f00:	93 0b       	sbc	r25, r19
     f02:	08 95       	ret
  }else{
	  twoscomp &= mask;
     f04:	84 23       	and	r24, r20
     f06:	95 23       	and	r25, r21
  }
  return twoscomp;
}
     f08:	08 95       	ret

00000f0a <FUNCdec2bcd>:
// Convert Decimal to Binary Coded Decimal (BCD)
char FUNCdec2bcd(char num)
{
	return ((num/10 * 16) + (num % 10));
     f0a:	9d ec       	ldi	r25, 0xCD	; 205
     f0c:	89 9f       	mul	r24, r25
     f0e:	91 2d       	mov	r25, r1
     f10:	11 24       	eor	r1, r1
     f12:	96 95       	lsr	r25
     f14:	96 95       	lsr	r25
     f16:	96 95       	lsr	r25
     f18:	39 2f       	mov	r19, r25
     f1a:	33 0f       	add	r19, r19
     f1c:	23 2f       	mov	r18, r19
     f1e:	22 0f       	add	r18, r18
     f20:	22 0f       	add	r18, r18
     f22:	23 0f       	add	r18, r19
     f24:	82 1b       	sub	r24, r18
}
     f26:	20 e1       	ldi	r18, 0x10	; 16
     f28:	92 9f       	mul	r25, r18
     f2a:	80 0d       	add	r24, r0
     f2c:	11 24       	eor	r1, r1
     f2e:	08 95       	ret

00000f30 <FUNCbcd2dec>:
// Convert Binary Coded Decimal (BCD) to Decimal
char FUNCbcd2dec(char num)
{
	return ((num/16 * 10) + (num % 16));
     f30:	98 2f       	mov	r25, r24
     f32:	92 95       	swap	r25
     f34:	9f 70       	andi	r25, 0x0F	; 15
     f36:	99 0f       	add	r25, r25
     f38:	29 2f       	mov	r18, r25
     f3a:	22 0f       	add	r18, r18
     f3c:	22 0f       	add	r18, r18
     f3e:	92 0f       	add	r25, r18
     f40:	8f 70       	andi	r24, 0x0F	; 15
}
     f42:	89 0f       	add	r24, r25
     f44:	08 95       	ret

00000f46 <FUNCresizestr>:
char* FUNCresizestr(char *string, int size)
{
     f46:	fc 01       	movw	r30, r24
	int i;
	FUNCstr[size]='\0';
     f48:	db 01       	movw	r26, r22
     f4a:	a7 5e       	subi	r26, 0xE7	; 231
     f4c:	bc 4f       	sbci	r27, 0xFC	; 252
     f4e:	1c 92       	st	X, r1
	for(i=0;i<size;i++){
     f50:	16 16       	cp	r1, r22
     f52:	17 06       	cpc	r1, r23
     f54:	14 f5       	brge	.+68     	; 0xf9a <FUNCresizestr+0x54>
		if(*(string+i)=='\0'){
     f56:	90 81       	ld	r25, Z
     f58:	91 11       	cpse	r25, r1
     f5a:	0c c0       	rjmp	.+24     	; 0xf74 <FUNCresizestr+0x2e>
     f5c:	17 c0       	rjmp	.+46     	; 0xf8c <FUNCresizestr+0x46>
     f5e:	91 91       	ld	r25, Z+
     f60:	91 11       	cpse	r25, r1
     f62:	0d c0       	rjmp	.+26     	; 0xf7e <FUNCresizestr+0x38>
     f64:	15 c0       	rjmp	.+42     	; 0xf90 <FUNCresizestr+0x4a>
			for(;i<size;i++){
				FUNCstr[i]=' ';
     f66:	81 93       	st	Z+, r24
{
	int i;
	FUNCstr[size]='\0';
	for(i=0;i<size;i++){
		if(*(string+i)=='\0'){
			for(;i<size;i++){
     f68:	2f 5f       	subi	r18, 0xFF	; 255
     f6a:	3f 4f       	sbci	r19, 0xFF	; 255
     f6c:	26 17       	cp	r18, r22
     f6e:	37 07       	cpc	r19, r23
     f70:	d4 f3       	brlt	.-12     	; 0xf66 <FUNCresizestr+0x20>
     f72:	13 c0       	rjmp	.+38     	; 0xf9a <FUNCresizestr+0x54>
     f74:	a9 e1       	ldi	r26, 0x19	; 25
     f76:	b3 e0       	ldi	r27, 0x03	; 3
     f78:	31 96       	adiw	r30, 0x01	; 1
char* FUNCresizestr(char *string, int size)
{
	int i;
	FUNCstr[size]='\0';
	for(i=0;i<size;i++){
		if(*(string+i)=='\0'){
     f7a:	20 e0       	ldi	r18, 0x00	; 0
     f7c:	30 e0       	ldi	r19, 0x00	; 0
			for(;i<size;i++){
				FUNCstr[i]=' ';
			}
			break;
		}
		FUNCstr[i]=*(string+i);
     f7e:	9d 93       	st	X+, r25
}
char* FUNCresizestr(char *string, int size)
{
	int i;
	FUNCstr[size]='\0';
	for(i=0;i<size;i++){
     f80:	2f 5f       	subi	r18, 0xFF	; 255
     f82:	3f 4f       	sbci	r19, 0xFF	; 255
     f84:	62 17       	cp	r22, r18
     f86:	73 07       	cpc	r23, r19
     f88:	51 f7       	brne	.-44     	; 0xf5e <FUNCresizestr+0x18>
     f8a:	07 c0       	rjmp	.+14     	; 0xf9a <FUNCresizestr+0x54>
     f8c:	20 e0       	ldi	r18, 0x00	; 0
     f8e:	30 e0       	ldi	r19, 0x00	; 0
     f90:	f9 01       	movw	r30, r18
     f92:	e7 5e       	subi	r30, 0xE7	; 231
     f94:	fc 4f       	sbci	r31, 0xFC	; 252
		if(*(string+i)=='\0'){
			for(;i<size;i++){
				FUNCstr[i]=' ';
     f96:	80 e2       	ldi	r24, 0x20	; 32
     f98:	e6 cf       	rjmp	.-52     	; 0xf66 <FUNCresizestr+0x20>
			break;
		}
		FUNCstr[i]=*(string+i);
	}
	return FUNCstr;
}
     f9a:	89 e1       	ldi	r24, 0x19	; 25
     f9c:	93 e0       	ldi	r25, 0x03	; 3
     f9e:	08 95       	ret

00000fa0 <FUNCtrimmer>:
long FUNCtrimmer(long x, long in_min, long in_max, long out_min, long out_max)
/***
same as arduino map function.
***/
{
     fa0:	4f 92       	push	r4
     fa2:	5f 92       	push	r5
     fa4:	6f 92       	push	r6
     fa6:	7f 92       	push	r7
     fa8:	af 92       	push	r10
     faa:	bf 92       	push	r11
     fac:	cf 92       	push	r12
     fae:	df 92       	push	r13
     fb0:	ef 92       	push	r14
     fb2:	ff 92       	push	r15
     fb4:	0f 93       	push	r16
     fb6:	1f 93       	push	r17
     fb8:	cf 93       	push	r28
     fba:	df 93       	push	r29
     fbc:	cd b7       	in	r28, 0x3d	; 61
     fbe:	de b7       	in	r29, 0x3e	; 62
     fc0:	29 01       	movw	r4, r18
     fc2:	3a 01       	movw	r6, r20
	return (x - in_min) * (out_max - out_min) / (in_max - in_min) + out_min;
     fc4:	9b 01       	movw	r18, r22
     fc6:	ac 01       	movw	r20, r24
     fc8:	24 19       	sub	r18, r4
     fca:	35 09       	sbc	r19, r5
     fcc:	46 09       	sbc	r20, r6
     fce:	57 09       	sbc	r21, r7
     fd0:	89 89       	ldd	r24, Y+17	; 0x11
     fd2:	9a 89       	ldd	r25, Y+18	; 0x12
     fd4:	ab 89       	ldd	r26, Y+19	; 0x13
     fd6:	bc 89       	ldd	r27, Y+20	; 0x14
     fd8:	bc 01       	movw	r22, r24
     fda:	cd 01       	movw	r24, r26
     fdc:	6a 19       	sub	r22, r10
     fde:	7b 09       	sbc	r23, r11
     fe0:	8c 09       	sbc	r24, r12
     fe2:	9d 09       	sbc	r25, r13
     fe4:	0e 94 6d 1b 	call	0x36da	; 0x36da <__mulsi3>
     fe8:	a8 01       	movw	r20, r16
     fea:	97 01       	movw	r18, r14
     fec:	24 19       	sub	r18, r4
     fee:	35 09       	sbc	r19, r5
     ff0:	46 09       	sbc	r20, r6
     ff2:	57 09       	sbc	r21, r7
     ff4:	0e 94 c5 1b 	call	0x378a	; 0x378a <__divmodsi4>
     ff8:	ca 01       	movw	r24, r20
     ffa:	b9 01       	movw	r22, r18
     ffc:	6a 0d       	add	r22, r10
     ffe:	7b 1d       	adc	r23, r11
    1000:	8c 1d       	adc	r24, r12
    1002:	9d 1d       	adc	r25, r13
}
    1004:	df 91       	pop	r29
    1006:	cf 91       	pop	r28
    1008:	1f 91       	pop	r17
    100a:	0f 91       	pop	r16
    100c:	ff 90       	pop	r15
    100e:	ef 90       	pop	r14
    1010:	df 90       	pop	r13
    1012:	cf 90       	pop	r12
    1014:	bf 90       	pop	r11
    1016:	af 90       	pop	r10
    1018:	7f 90       	pop	r7
    101a:	6f 90       	pop	r6
    101c:	5f 90       	pop	r5
    101e:	4f 90       	pop	r4
    1020:	08 95       	ret

00001022 <Pwr>:
// power: raise base to n-th power; n >= 0
unsigned int Pwr(uint8_t bs, uint8_t n)
{
    unsigned int i, p;
    p = 1;
    for (i = 1; i <= n; ++i)
    1022:	70 e0       	ldi	r23, 0x00	; 0
    1024:	61 15       	cp	r22, r1
    1026:	71 05       	cpc	r23, r1
    1028:	99 f0       	breq	.+38     	; 0x1050 <Pwr+0x2e>
    102a:	41 e0       	ldi	r20, 0x01	; 1
    102c:	50 e0       	ldi	r21, 0x00	; 0
    102e:	21 e0       	ldi	r18, 0x01	; 1
    1030:	30 e0       	ldi	r19, 0x00	; 0
        p = p * bs;
    1032:	90 e0       	ldi	r25, 0x00	; 0
    1034:	fa 01       	movw	r30, r20
    1036:	e8 9f       	mul	r30, r24
    1038:	a0 01       	movw	r20, r0
    103a:	e9 9f       	mul	r30, r25
    103c:	50 0d       	add	r21, r0
    103e:	f8 9f       	mul	r31, r24
    1040:	50 0d       	add	r21, r0
    1042:	11 24       	eor	r1, r1
// power: raise base to n-th power; n >= 0
unsigned int Pwr(uint8_t bs, uint8_t n)
{
    unsigned int i, p;
    p = 1;
    for (i = 1; i <= n; ++i)
    1044:	2f 5f       	subi	r18, 0xFF	; 255
    1046:	3f 4f       	sbci	r19, 0xFF	; 255
    1048:	62 17       	cp	r22, r18
    104a:	73 07       	cpc	r23, r19
    104c:	98 f7       	brcc	.-26     	; 0x1034 <Pwr+0x12>
    104e:	02 c0       	rjmp	.+4      	; 0x1054 <Pwr+0x32>
}
// power: raise base to n-th power; n >= 0
unsigned int Pwr(uint8_t bs, uint8_t n)
{
    unsigned int i, p;
    p = 1;
    1050:	41 e0       	ldi	r20, 0x01	; 1
    1052:	50 e0       	ldi	r21, 0x00	; 0
    for (i = 1; i <= n; ++i)
        p = p * bs;
    return p;
}
    1054:	ca 01       	movw	r24, r20
    1056:	08 95       	ret

00001058 <StringLength>:
// Function to count the number of characters in a string
int StringLength (const char string[])
{
	int count = 0;
	while ( string[count] != '\0' )
    1058:	fc 01       	movw	r30, r24
    105a:	20 81       	ld	r18, Z
    105c:	22 23       	and	r18, r18
    105e:	41 f0       	breq	.+16     	; 0x1070 <StringLength+0x18>
    1060:	31 96       	adiw	r30, 0x01	; 1
    1062:	80 e0       	ldi	r24, 0x00	; 0
    1064:	90 e0       	ldi	r25, 0x00	; 0
		++count;
    1066:	01 96       	adiw	r24, 0x01	; 1
}
// Function to count the number of characters in a string
int StringLength (const char string[])
{
	int count = 0;
	while ( string[count] != '\0' )
    1068:	21 91       	ld	r18, Z+
    106a:	21 11       	cpse	r18, r1
    106c:	fc cf       	rjmp	.-8      	; 0x1066 <StringLength+0xe>
    106e:	08 95       	ret
    return p;
}
// Function to count the number of characters in a string
int StringLength (const char string[])
{
	int count = 0;
    1070:	80 e0       	ldi	r24, 0x00	; 0
    1072:	90 e0       	ldi	r25, 0x00	; 0
	while ( string[count] != '\0' )
		++count;
	return count;
}
    1074:	08 95       	ret

00001076 <FUNCtrim>:
	Reverse(FUNCstr);
	return FUNCstr;
}
// trim: remove trailing blanks, tabs, newlines
int FUNCtrim(char s[])
{
    1076:	cf 93       	push	r28
    1078:	df 93       	push	r29
    107a:	ec 01       	movw	r28, r24
	int n;
	for (n = StringLength(s)-1; n >= 0; n--)
    107c:	ed df       	rcall	.-38     	; 0x1058 <StringLength>
    107e:	9c 01       	movw	r18, r24
    1080:	21 50       	subi	r18, 0x01	; 1
    1082:	31 09       	sbc	r19, r1
    1084:	62 f0       	brmi	.+24     	; 0x109e <FUNCtrim+0x28>
    1086:	fe 01       	movw	r30, r28
    1088:	e8 0f       	add	r30, r24
    108a:	f9 1f       	adc	r31, r25
		if (s[n] != ' ' && s[n] != '\t' && s[n] != '\n')
    108c:	92 91       	ld	r25, -Z
    108e:	90 32       	cpi	r25, 0x20	; 32
    1090:	19 f0       	breq	.+6      	; 0x1098 <FUNCtrim+0x22>
    1092:	99 50       	subi	r25, 0x09	; 9
    1094:	92 30       	cpi	r25, 0x02	; 2
    1096:	18 f4       	brcc	.+6      	; 0x109e <FUNCtrim+0x28>
}
// trim: remove trailing blanks, tabs, newlines
int FUNCtrim(char s[])
{
	int n;
	for (n = StringLength(s)-1; n >= 0; n--)
    1098:	21 50       	subi	r18, 0x01	; 1
    109a:	31 09       	sbc	r19, r1
    109c:	b8 f7       	brcc	.-18     	; 0x108c <FUNCtrim+0x16>
		if (s[n] != ' ' && s[n] != '\t' && s[n] != '\n')
			break;
	s[n+1] = '\0';
    109e:	c2 0f       	add	r28, r18
    10a0:	d3 1f       	adc	r29, r19
    10a2:	19 82       	std	Y+1, r1	; 0x01
	return n;
}
    10a4:	c9 01       	movw	r24, r18
    10a6:	df 91       	pop	r29
    10a8:	cf 91       	pop	r28
    10aa:	08 95       	ret

000010ac <Reverse>:
		++count;
	return count;
}
// reverse: reverse string s in place
void Reverse(char s[])
{
    10ac:	cf 93       	push	r28
    10ae:	df 93       	push	r29
    10b0:	ec 01       	movw	r28, r24
	int c, i, j;
	for (i = 0, j = StringLength(s)-1; i < j; i++, j--){
    10b2:	d2 df       	rcall	.-92     	; 0x1058 <StringLength>
    10b4:	9c 01       	movw	r18, r24
    10b6:	21 50       	subi	r18, 0x01	; 1
    10b8:	31 09       	sbc	r19, r1
    10ba:	12 16       	cp	r1, r18
    10bc:	13 06       	cpc	r1, r19
    10be:	84 f4       	brge	.+32     	; 0x10e0 <Reverse+0x34>
    10c0:	de 01       	movw	r26, r28
    10c2:	a8 0f       	add	r26, r24
    10c4:	b9 1f       	adc	r27, r25
    10c6:	fe 01       	movw	r30, r28
    10c8:	80 e0       	ldi	r24, 0x00	; 0
    10ca:	90 e0       	ldi	r25, 0x00	; 0
		c = s[i];
    10cc:	40 81       	ld	r20, Z
		s[i] = s[j];
    10ce:	5e 91       	ld	r21, -X
    10d0:	51 93       	st	Z+, r21
		s[j] = c;
    10d2:	4c 93       	st	X, r20
}
// reverse: reverse string s in place
void Reverse(char s[])
{
	int c, i, j;
	for (i = 0, j = StringLength(s)-1; i < j; i++, j--){
    10d4:	01 96       	adiw	r24, 0x01	; 1
    10d6:	21 50       	subi	r18, 0x01	; 1
    10d8:	31 09       	sbc	r19, r1
    10da:	82 17       	cp	r24, r18
    10dc:	93 07       	cpc	r25, r19
    10de:	b4 f3       	brlt	.-20     	; 0x10cc <Reverse+0x20>
		c = s[i];
		s[i] = s[j];
		s[j] = c;
	}
}
    10e0:	df 91       	pop	r29
    10e2:	cf 91       	pop	r28
    10e4:	08 95       	ret

000010e6 <FUNCi32toa>:
				v[j+gap] = temp;
			}
}
// i32toa: convert n to characters in s
char* FUNCi32toa(int32_t n)
{
    10e6:	8f 92       	push	r8
    10e8:	9f 92       	push	r9
    10ea:	af 92       	push	r10
    10ec:	bf 92       	push	r11
    10ee:	cf 92       	push	r12
    10f0:	df 92       	push	r13
    10f2:	ef 92       	push	r14
    10f4:	ff 92       	push	r15
    10f6:	0f 93       	push	r16
    10f8:	1f 93       	push	r17
    10fa:	cf 93       	push	r28
    10fc:	df 93       	push	r29
    10fe:	6b 01       	movw	r12, r22
    1100:	7c 01       	movw	r14, r24
    1102:	dc 01       	movw	r26, r24
    1104:	cb 01       	movw	r24, r22
    1106:	ff 20       	and	r15, r15
    1108:	3c f4       	brge	.+14     	; 0x1118 <__stack+0x19>
    110a:	88 27       	eor	r24, r24
    110c:	99 27       	eor	r25, r25
    110e:	dc 01       	movw	r26, r24
    1110:	8c 19       	sub	r24, r12
    1112:	9d 09       	sbc	r25, r13
    1114:	ae 09       	sbc	r26, r14
    1116:	bf 09       	sbc	r27, r15
    1118:	bc 01       	movw	r22, r24
    111a:	cd 01       	movw	r24, r26
    111c:	10 e0       	ldi	r17, 0x00	; 0
	int32_t sign;
	if ((sign = n) < 0) // record sign
	n = -n; // make n positive
	i = 0;
	do { // generate digits in reverse order
		FUNCstr[i++] = n % 10 + '0'; // get next digit
    111e:	0f 2e       	mov	r0, r31
    1120:	fa e0       	ldi	r31, 0x0A	; 10
    1122:	8f 2e       	mov	r8, r31
    1124:	91 2c       	mov	r9, r1
    1126:	a1 2c       	mov	r10, r1
    1128:	b1 2c       	mov	r11, r1
    112a:	f0 2d       	mov	r31, r0
    112c:	01 c0       	rjmp	.+2      	; 0x1130 <__stack+0x31>
    112e:	10 2f       	mov	r17, r16
    1130:	01 e0       	ldi	r16, 0x01	; 1
    1132:	01 0f       	add	r16, r17
    1134:	c1 2f       	mov	r28, r17
    1136:	d0 e0       	ldi	r29, 0x00	; 0
    1138:	c7 5e       	subi	r28, 0xE7	; 231
    113a:	dc 4f       	sbci	r29, 0xFC	; 252
    113c:	a5 01       	movw	r20, r10
    113e:	94 01       	movw	r18, r8
    1140:	0e 94 c5 1b 	call	0x378a	; 0x378a <__divmodsi4>
    1144:	60 5d       	subi	r22, 0xD0	; 208
    1146:	68 83       	st	Y, r22
	}while ((n /= 10) > 0); // delete it
    1148:	62 2f       	mov	r22, r18
    114a:	73 2f       	mov	r23, r19
    114c:	84 2f       	mov	r24, r20
    114e:	95 2f       	mov	r25, r21
    1150:	16 16       	cp	r1, r22
    1152:	17 06       	cpc	r1, r23
    1154:	18 06       	cpc	r1, r24
    1156:	19 06       	cpc	r1, r25
    1158:	54 f3       	brlt	.-44     	; 0x112e <__stack+0x2f>
	if (sign < 0)
    115a:	ff 20       	and	r15, r15
    115c:	44 f4       	brge	.+16     	; 0x116e <__stack+0x6f>
	FUNCstr[i++] = '-';
    115e:	e0 2f       	mov	r30, r16
    1160:	f0 e0       	ldi	r31, 0x00	; 0
    1162:	e7 5e       	subi	r30, 0xE7	; 231
    1164:	fc 4f       	sbci	r31, 0xFC	; 252
    1166:	8d e2       	ldi	r24, 0x2D	; 45
    1168:	80 83       	st	Z, r24
    116a:	02 e0       	ldi	r16, 0x02	; 2
    116c:	01 0f       	add	r16, r17
	FUNCstr[i] = '\0';
    116e:	e0 2f       	mov	r30, r16
    1170:	f0 e0       	ldi	r31, 0x00	; 0
    1172:	e7 5e       	subi	r30, 0xE7	; 231
    1174:	fc 4f       	sbci	r31, 0xFC	; 252
    1176:	10 82       	st	Z, r1
	Reverse(FUNCstr);
    1178:	89 e1       	ldi	r24, 0x19	; 25
    117a:	93 e0       	ldi	r25, 0x03	; 3
    117c:	97 df       	rcall	.-210    	; 0x10ac <Reverse>
	return FUNCstr;
}
    117e:	89 e1       	ldi	r24, 0x19	; 25
    1180:	93 e0       	ldi	r25, 0x03	; 3
    1182:	df 91       	pop	r29
    1184:	cf 91       	pop	r28
    1186:	1f 91       	pop	r17
    1188:	0f 91       	pop	r16
    118a:	ff 90       	pop	r15
    118c:	ef 90       	pop	r14
    118e:	df 90       	pop	r13
    1190:	cf 90       	pop	r12
    1192:	bf 90       	pop	r11
    1194:	af 90       	pop	r10
    1196:	9f 90       	pop	r9
    1198:	8f 90       	pop	r8
    119a:	08 95       	ret

0000119c <FUNCi16toa>:
// i16toa: convert n to characters in s
char* FUNCi16toa(int16_t n)
{
    119c:	0f 93       	push	r16
    119e:	1f 93       	push	r17
    11a0:	cf 93       	push	r28
    11a2:	df 93       	push	r29
    11a4:	ec 01       	movw	r28, r24
    11a6:	99 23       	and	r25, r25
    11a8:	24 f4       	brge	.+8      	; 0x11b2 <FUNCi16toa+0x16>
    11aa:	88 27       	eor	r24, r24
    11ac:	99 27       	eor	r25, r25
    11ae:	8c 1b       	sub	r24, r28
    11b0:	9d 0b       	sbc	r25, r29
    11b2:	20 e0       	ldi	r18, 0x00	; 0
	int16_t sign;
	if ((sign = n) < 0) // record sign
		n = -n; // make n positive
	i = 0;
	do { // generate digits in reverse order
		FUNCstr[i++] = n % 10 + '0'; // get next digit
    11b4:	0a e0       	ldi	r16, 0x0A	; 10
    11b6:	10 e0       	ldi	r17, 0x00	; 0
    11b8:	01 c0       	rjmp	.+2      	; 0x11bc <FUNCi16toa+0x20>
    11ba:	23 2f       	mov	r18, r19
    11bc:	31 e0       	ldi	r19, 0x01	; 1
    11be:	32 0f       	add	r19, r18
    11c0:	e2 2f       	mov	r30, r18
    11c2:	f0 e0       	ldi	r31, 0x00	; 0
    11c4:	e7 5e       	subi	r30, 0xE7	; 231
    11c6:	fc 4f       	sbci	r31, 0xFC	; 252
    11c8:	b8 01       	movw	r22, r16
    11ca:	0e 94 90 1b 	call	0x3720	; 0x3720 <__divmodhi4>
    11ce:	80 5d       	subi	r24, 0xD0	; 208
    11d0:	80 83       	st	Z, r24
	}while ((n /= 10) > 0); // delete it
    11d2:	86 2f       	mov	r24, r22
    11d4:	97 2f       	mov	r25, r23
    11d6:	18 16       	cp	r1, r24
    11d8:	19 06       	cpc	r1, r25
    11da:	7c f3       	brlt	.-34     	; 0x11ba <FUNCi16toa+0x1e>
	if (sign < 0)
    11dc:	dd 23       	and	r29, r29
    11de:	44 f4       	brge	.+16     	; 0x11f0 <FUNCi16toa+0x54>
		FUNCstr[i++] = '-';
    11e0:	e3 2f       	mov	r30, r19
    11e2:	f0 e0       	ldi	r31, 0x00	; 0
    11e4:	e7 5e       	subi	r30, 0xE7	; 231
    11e6:	fc 4f       	sbci	r31, 0xFC	; 252
    11e8:	8d e2       	ldi	r24, 0x2D	; 45
    11ea:	80 83       	st	Z, r24
    11ec:	32 e0       	ldi	r19, 0x02	; 2
    11ee:	32 0f       	add	r19, r18
	FUNCstr[i] = '\0';
    11f0:	e3 2f       	mov	r30, r19
    11f2:	f0 e0       	ldi	r31, 0x00	; 0
    11f4:	e7 5e       	subi	r30, 0xE7	; 231
    11f6:	fc 4f       	sbci	r31, 0xFC	; 252
    11f8:	10 82       	st	Z, r1
	Reverse(FUNCstr);
    11fa:	89 e1       	ldi	r24, 0x19	; 25
    11fc:	93 e0       	ldi	r25, 0x03	; 3
    11fe:	56 df       	rcall	.-340    	; 0x10ac <Reverse>
	return FUNCstr;
}
    1200:	89 e1       	ldi	r24, 0x19	; 25
    1202:	93 e0       	ldi	r25, 0x03	; 3
    1204:	df 91       	pop	r29
    1206:	cf 91       	pop	r28
    1208:	1f 91       	pop	r17
    120a:	0f 91       	pop	r16
    120c:	08 95       	ret

0000120e <FUNCui16toa>:
// ui16toa: convert n to characters in s
char* FUNCui16toa(uint16_t n)
{
    120e:	cf 93       	push	r28
    1210:	ac 01       	movw	r20, r24
	uint8_t i;
	i = 0;
    1212:	e0 e0       	ldi	r30, 0x00	; 0
	do { // generate digits in reverse order
		FUNCstr[i++] = n % 10 + '0'; // get next digit
    1214:	c1 e0       	ldi	r28, 0x01	; 1
    1216:	ce 0f       	add	r28, r30
    1218:	f0 e0       	ldi	r31, 0x00	; 0
    121a:	e7 5e       	subi	r30, 0xE7	; 231
    121c:	fc 4f       	sbci	r31, 0xFC	; 252
    121e:	9a 01       	movw	r18, r20
    1220:	ad ec       	ldi	r26, 0xCD	; 205
    1222:	bc ec       	ldi	r27, 0xCC	; 204
    1224:	0e 94 ea 1b 	call	0x37d4	; 0x37d4 <__umulhisi3>
    1228:	96 95       	lsr	r25
    122a:	87 95       	ror	r24
    122c:	96 95       	lsr	r25
    122e:	87 95       	ror	r24
    1230:	96 95       	lsr	r25
    1232:	87 95       	ror	r24
    1234:	9c 01       	movw	r18, r24
    1236:	22 0f       	add	r18, r18
    1238:	33 1f       	adc	r19, r19
    123a:	88 0f       	add	r24, r24
    123c:	99 1f       	adc	r25, r25
    123e:	88 0f       	add	r24, r24
    1240:	99 1f       	adc	r25, r25
    1242:	88 0f       	add	r24, r24
    1244:	99 1f       	adc	r25, r25
    1246:	82 0f       	add	r24, r18
    1248:	93 1f       	adc	r25, r19
    124a:	9a 01       	movw	r18, r20
    124c:	28 1b       	sub	r18, r24
    124e:	39 0b       	sbc	r19, r25
    1250:	c9 01       	movw	r24, r18
    1252:	80 5d       	subi	r24, 0xD0	; 208
    1254:	80 83       	st	Z, r24
	}while ((n /= 10) > 0); // delete it
    1256:	9a 01       	movw	r18, r20
    1258:	0e 94 ea 1b 	call	0x37d4	; 0x37d4 <__umulhisi3>
    125c:	ac 01       	movw	r20, r24
    125e:	56 95       	lsr	r21
    1260:	47 95       	ror	r20
    1262:	56 95       	lsr	r21
    1264:	47 95       	ror	r20
    1266:	56 95       	lsr	r21
    1268:	47 95       	ror	r20
char* FUNCui16toa(uint16_t n)
{
	uint8_t i;
	i = 0;
	do { // generate digits in reverse order
		FUNCstr[i++] = n % 10 + '0'; // get next digit
    126a:	ec 2f       	mov	r30, r28
	}while ((n /= 10) > 0); // delete it
    126c:	41 15       	cp	r20, r1
    126e:	51 05       	cpc	r21, r1
    1270:	89 f6       	brne	.-94     	; 0x1214 <FUNCui16toa+0x6>
	FUNCstr[i] = '\0';
    1272:	ec 2f       	mov	r30, r28
    1274:	f0 e0       	ldi	r31, 0x00	; 0
    1276:	e7 5e       	subi	r30, 0xE7	; 231
    1278:	fc 4f       	sbci	r31, 0xFC	; 252
    127a:	10 82       	st	Z, r1
	Reverse(FUNCstr);
    127c:	89 e1       	ldi	r24, 0x19	; 25
    127e:	93 e0       	ldi	r25, 0x03	; 3
    1280:	15 df       	rcall	.-470    	; 0x10ac <Reverse>
	return FUNCstr;
}
    1282:	89 e1       	ldi	r24, 0x19	; 25
    1284:	93 e0       	ldi	r25, 0x03	; 3
    1286:	cf 91       	pop	r28
    1288:	08 95       	ret

0000128a <FUNCbcd2bin>:
		s[j] = c;
	}
}
unsigned char FUNCbcd2bin(unsigned char val)
{
	return (val & 0x0f) + (val >> 4) * 10;
    128a:	98 2f       	mov	r25, r24
    128c:	92 95       	swap	r25
    128e:	9f 70       	andi	r25, 0x0F	; 15
    1290:	99 0f       	add	r25, r25
    1292:	29 2f       	mov	r18, r25
    1294:	22 0f       	add	r18, r18
    1296:	22 0f       	add	r18, r18
    1298:	92 0f       	add	r25, r18
    129a:	8f 70       	andi	r24, 0x0F	; 15
}
    129c:	89 0f       	add	r24, r25
    129e:	08 95       	ret

000012a0 <FUNCbin2bcd>:
unsigned char FUNCbin2bcd(unsigned val)
{
    12a0:	ac 01       	movw	r20, r24
	return ((val / 10) << 4) + val % 10;
    12a2:	9c 01       	movw	r18, r24
    12a4:	ad ec       	ldi	r26, 0xCD	; 205
    12a6:	bc ec       	ldi	r27, 0xCC	; 204
    12a8:	0e 94 ea 1b 	call	0x37d4	; 0x37d4 <__umulhisi3>
    12ac:	96 95       	lsr	r25
    12ae:	87 95       	ror	r24
    12b0:	96 95       	lsr	r25
    12b2:	87 95       	ror	r24
    12b4:	96 95       	lsr	r25
    12b6:	87 95       	ror	r24
    12b8:	bc 01       	movw	r22, r24
    12ba:	66 0f       	add	r22, r22
    12bc:	77 1f       	adc	r23, r23
    12be:	9c 01       	movw	r18, r24
    12c0:	22 0f       	add	r18, r18
    12c2:	33 1f       	adc	r19, r19
    12c4:	22 0f       	add	r18, r18
    12c6:	33 1f       	adc	r19, r19
    12c8:	22 0f       	add	r18, r18
    12ca:	33 1f       	adc	r19, r19
    12cc:	26 0f       	add	r18, r22
    12ce:	37 1f       	adc	r19, r23
    12d0:	42 1b       	sub	r20, r18
    12d2:	53 0b       	sbc	r21, r19
}
    12d4:	34 2f       	mov	r19, r20
    12d6:	20 e1       	ldi	r18, 0x10	; 16
    12d8:	82 9f       	mul	r24, r18
    12da:	30 0d       	add	r19, r0
    12dc:	11 24       	eor	r1, r1
    12de:	83 2f       	mov	r24, r19
    12e0:	08 95       	ret

000012e2 <FUNCgcd1>:
long FUNCgcd1(long a, long b)
{
    12e2:	cf 92       	push	r12
    12e4:	df 92       	push	r13
    12e6:	ef 92       	push	r14
    12e8:	ff 92       	push	r15
    12ea:	cf 93       	push	r28
    12ec:	df 93       	push	r29
    12ee:	cd b7       	in	r28, 0x3d	; 61
    12f0:	de b7       	in	r29, 0x3e	; 62
    12f2:	28 97       	sbiw	r28, 0x08	; 8
    12f4:	0f b6       	in	r0, 0x3f	; 63
    12f6:	f8 94       	cli
    12f8:	de bf       	out	0x3e, r29	; 62
    12fa:	0f be       	out	0x3f, r0	; 63
    12fc:	cd bf       	out	0x3d, r28	; 61
    12fe:	6b 01       	movw	r12, r22
    1300:	7c 01       	movw	r14, r24
    1302:	69 83       	std	Y+1, r22	; 0x01
    1304:	7a 83       	std	Y+2, r23	; 0x02
    1306:	8b 83       	std	Y+3, r24	; 0x03
    1308:	9c 83       	std	Y+4, r25	; 0x04
    130a:	2d 83       	std	Y+5, r18	; 0x05
    130c:	3e 83       	std	Y+6, r19	; 0x06
    130e:	4f 83       	std	Y+7, r20	; 0x07
    1310:	58 87       	std	Y+8, r21	; 0x08
	long r;
	if (a < b)
    1312:	c2 16       	cp	r12, r18
    1314:	d3 06       	cpc	r13, r19
    1316:	e4 06       	cpc	r14, r20
    1318:	f5 06       	cpc	r15, r21
    131a:	34 f4       	brge	.+12     	; 0x1328 <FUNCgcd1+0x46>
		FUNCswap(&a, &b);
    131c:	be 01       	movw	r22, r28
    131e:	6b 5f       	subi	r22, 0xFB	; 251
    1320:	7f 4f       	sbci	r23, 0xFF	; 255
    1322:	ce 01       	movw	r24, r28
    1324:	01 96       	adiw	r24, 0x01	; 1
    1326:	85 dc       	rcall	.-1782   	; 0xc32 <FUNCswap>
	if (!b){
    1328:	8d 81       	ldd	r24, Y+5	; 0x05
    132a:	9e 81       	ldd	r25, Y+6	; 0x06
    132c:	af 81       	ldd	r26, Y+7	; 0x07
    132e:	b8 85       	ldd	r27, Y+8	; 0x08
    1330:	89 2b       	or	r24, r25
    1332:	8a 2b       	or	r24, r26
    1334:	8b 2b       	or	r24, r27
    1336:	71 f4       	brne	.+28     	; 0x1354 <FUNCgcd1+0x72>
		while ((r = a % b) != 0) {
    1338:	69 81       	ldd	r22, Y+1	; 0x01
    133a:	7a 81       	ldd	r23, Y+2	; 0x02
    133c:	8b 81       	ldd	r24, Y+3	; 0x03
    133e:	9c 81       	ldd	r25, Y+4	; 0x04
    1340:	20 e0       	ldi	r18, 0x00	; 0
    1342:	30 e0       	ldi	r19, 0x00	; 0
    1344:	a9 01       	movw	r20, r18
    1346:	0e 94 c5 1b 	call	0x378a	; 0x378a <__divmodsi4>
    134a:	61 15       	cp	r22, r1
    134c:	71 05       	cpc	r23, r1
    134e:	81 05       	cpc	r24, r1
    1350:	91 05       	cpc	r25, r1
    1352:	29 f4       	brne	.+10     	; 0x135e <FUNCgcd1+0x7c>
			a = b;
			b = r;
		}
	}	
	return b;
    1354:	6d 81       	ldd	r22, Y+5	; 0x05
    1356:	7e 81       	ldd	r23, Y+6	; 0x06
    1358:	8f 81       	ldd	r24, Y+7	; 0x07
    135a:	98 85       	ldd	r25, Y+8	; 0x08
    135c:	05 c0       	rjmp	.+10     	; 0x1368 <FUNCgcd1+0x86>
	if (a < b)
		FUNCswap(&a, &b);
	if (!b){
		while ((r = a % b) != 0) {
			a = b;
			b = r;
    135e:	6d 83       	std	Y+5, r22	; 0x05
    1360:	7e 83       	std	Y+6, r23	; 0x06
    1362:	8f 83       	std	Y+7, r24	; 0x07
    1364:	98 87       	std	Y+8, r25	; 0x08
    1366:	f6 cf       	rjmp	.-20     	; 0x1354 <FUNCgcd1+0x72>
		}
	}	
	return b;
}
    1368:	28 96       	adiw	r28, 0x08	; 8
    136a:	0f b6       	in	r0, 0x3f	; 63
    136c:	f8 94       	cli
    136e:	de bf       	out	0x3e, r29	; 62
    1370:	0f be       	out	0x3f, r0	; 63
    1372:	cd bf       	out	0x3d, r28	; 61
    1374:	df 91       	pop	r29
    1376:	cf 91       	pop	r28
    1378:	ff 90       	pop	r15
    137a:	ef 90       	pop	r14
    137c:	df 90       	pop	r13
    137e:	cf 90       	pop	r12
    1380:	08 95       	ret

00001382 <FUNCpincheck>:
	uint8_t lh;
	if(port & (1<<pin))
		lh=1;
	else
		lh=0;
	return lh;
    1382:	90 e0       	ldi	r25, 0x00	; 0
    1384:	02 c0       	rjmp	.+4      	; 0x138a <FUNCpincheck+0x8>
    1386:	95 95       	asr	r25
    1388:	87 95       	ror	r24
    138a:	6a 95       	dec	r22
    138c:	e2 f7       	brpl	.-8      	; 0x1386 <FUNCpincheck+0x4>
}
    138e:	81 70       	andi	r24, 0x01	; 1
    1390:	08 95       	ret

00001392 <FUNCprint_binary>:
char* FUNCprint_binary(uint8_t number)
{
    1392:	e9 e1       	ldi	r30, 0x19	; 25
    1394:	f3 e0       	ldi	r31, 0x03	; 3
	uint8_t i,c;
    for(i=128,c=0;i;i>>=1,c++){
    1396:	90 e0       	ldi	r25, 0x00	; 0
    1398:	20 e8       	ldi	r18, 0x80	; 128
	(number & i) ? (FUNCstr[c]='1') : (FUNCstr[c]='0');
    139a:	50 e3       	ldi	r21, 0x30	; 48
    139c:	41 e3       	ldi	r20, 0x31	; 49
    139e:	38 2f       	mov	r19, r24
    13a0:	32 23       	and	r19, r18
    13a2:	11 f0       	breq	.+4      	; 0x13a8 <FUNCprint_binary+0x16>
    13a4:	40 83       	st	Z, r20
    13a6:	01 c0       	rjmp	.+2      	; 0x13aa <FUNCprint_binary+0x18>
    13a8:	50 83       	st	Z, r21
	return lh;
}
char* FUNCprint_binary(uint8_t number)
{
	uint8_t i,c;
    for(i=128,c=0;i;i>>=1,c++){
    13aa:	26 95       	lsr	r18
    13ac:	9f 5f       	subi	r25, 0xFF	; 255
    13ae:	31 96       	adiw	r30, 0x01	; 1
    13b0:	98 30       	cpi	r25, 0x08	; 8
    13b2:	a9 f7       	brne	.-22     	; 0x139e <FUNCprint_binary+0xc>
	(number & i) ? (FUNCstr[c]='1') : (FUNCstr[c]='0');
	}
	FUNCstr[c]='\0';
    13b4:	10 92 21 03 	sts	0x0321, r1	; 0x800321 <FUNCstr+0x8>
	return FUNCstr;
}
    13b8:	89 e1       	ldi	r24, 0x19	; 25
    13ba:	93 e0       	ldi	r25, 0x03	; 3
    13bc:	08 95       	ret

000013be <FUNCmayia>:
// power: raise base to n-th power; n >= 0
unsigned int Pwr(uint8_t bs, uint8_t n)
{
    unsigned int i, p;
    p = 1;
    for (i = 1; i <= n; ++i)
    13be:	a4 2f       	mov	r26, r20
    13c0:	b0 e0       	ldi	r27, 0x00	; 0
    13c2:	10 97       	sbiw	r26, 0x00	; 0
    13c4:	61 f0       	breq	.+24     	; 0x13de <FUNCmayia+0x20>
    13c6:	21 e0       	ldi	r18, 0x01	; 1
    13c8:	30 e0       	ldi	r19, 0x00	; 0
    13ca:	e1 e0       	ldi	r30, 0x01	; 1
    13cc:	f0 e0       	ldi	r31, 0x00	; 0
        p = p * bs;
    13ce:	ee 0f       	add	r30, r30
    13d0:	ff 1f       	adc	r31, r31
// power: raise base to n-th power; n >= 0
unsigned int Pwr(uint8_t bs, uint8_t n)
{
    unsigned int i, p;
    p = 1;
    for (i = 1; i <= n; ++i)
    13d2:	2f 5f       	subi	r18, 0xFF	; 255
    13d4:	3f 4f       	sbci	r19, 0xFF	; 255
    13d6:	a2 17       	cp	r26, r18
    13d8:	b3 07       	cpc	r27, r19
    13da:	c8 f7       	brcc	.-14     	; 0x13ce <FUNCmayia+0x10>
    13dc:	02 c0       	rjmp	.+4      	; 0x13e2 <FUNCmayia+0x24>
}
// power: raise base to n-th power; n >= 0
unsigned int Pwr(uint8_t bs, uint8_t n)
{
    unsigned int i, p;
    p = 1;
    13de:	e1 e0       	ldi	r30, 0x01	; 1
    13e0:	f0 e0       	ldi	r31, 0x00	; 0
unsigned int FUNCmayia(unsigned int xi, unsigned int xf, uint8_t nbits)
{//magic formula
	unsigned int mask;
	unsigned int diff;
	unsigned int trans;
	mask=Pwr(2,nbits)-1;
    13e2:	31 97       	sbiw	r30, 0x01	; 1
	xi&=mask;
	xf&=mask;
    13e4:	6e 23       	and	r22, r30
    13e6:	7f 23       	and	r23, r31
	diff=xf^xi;
    13e8:	8e 23       	and	r24, r30
    13ea:	9f 23       	and	r25, r31
    13ec:	86 27       	eor	r24, r22
    13ee:	97 27       	eor	r25, r23
	trans=diff&xf;
	return (trans<<nbits)|diff;
    13f0:	68 23       	and	r22, r24
    13f2:	79 23       	and	r23, r25
    13f4:	02 c0       	rjmp	.+4      	; 0x13fa <FUNCmayia+0x3c>
    13f6:	66 0f       	add	r22, r22
    13f8:	77 1f       	adc	r23, r23
    13fa:	4a 95       	dec	r20
    13fc:	e2 f7       	brpl	.-8      	; 0x13f6 <FUNCmayia+0x38>
}
    13fe:	86 2b       	or	r24, r22
    1400:	97 2b       	or	r25, r23
    1402:	08 95       	ret

00001404 <FUNCenable>:
int FUNCreadint(int nmin, int nmax);
***/
// uint8_t TRANupdate(struct TRAN *tr, uint8_t idata);
/***Procedure & Function***/
FUNC FUNCenable( void )
{
    1404:	fc 01       	movw	r30, r24
	uint8_t tSREG;
	tSREG=SREG;
    1406:	9f b7       	in	r25, 0x3f	; 63
	SREG&=~(1<<GLOBAL_INTERRUPT_ENABLE);
    1408:	8f b7       	in	r24, 0x3f	; 63
    140a:	8f 77       	andi	r24, 0x7F	; 127
    140c:	8f bf       	out	0x3f, r24	; 63
	func.putstr=FUNCputstr;
	func.getnum=FUNCgetnum;
	func.getnumv2=FUNCgetnumv2;
	func.readint=FUNCreadint;
	*/
	SREG=tSREG;
    140e:	9f bf       	out	0x3f, r25	; 63
	/******/
	return func;
    1410:	81 e1       	ldi	r24, 0x11	; 17
    1412:	98 e0       	ldi	r25, 0x08	; 8
    1414:	91 83       	std	Z+1, r25	; 0x01
    1416:	80 83       	st	Z, r24
    1418:	8c e2       	ldi	r24, 0x2C	; 44
    141a:	98 e0       	ldi	r25, 0x08	; 8
    141c:	93 83       	std	Z+3, r25	; 0x03
    141e:	82 83       	std	Z+2, r24	; 0x02
    1420:	86 e5       	ldi	r24, 0x56	; 86
    1422:	98 e0       	ldi	r25, 0x08	; 8
    1424:	95 83       	std	Z+5, r25	; 0x05
    1426:	84 83       	std	Z+4, r24	; 0x04
    1428:	8f ed       	ldi	r24, 0xDF	; 223
    142a:	99 e0       	ldi	r25, 0x09	; 9
    142c:	97 83       	std	Z+7, r25	; 0x07
    142e:	86 83       	std	Z+6, r24	; 0x06
    1430:	8e ef       	ldi	r24, 0xFE	; 254
    1432:	95 e0       	ldi	r25, 0x05	; 5
    1434:	91 87       	std	Z+9, r25	; 0x09
    1436:	80 87       	std	Z+8, r24	; 0x08
    1438:	8c e0       	ldi	r24, 0x0C	; 12
    143a:	96 e0       	ldi	r25, 0x06	; 6
    143c:	93 87       	std	Z+11, r25	; 0x0b
    143e:	82 87       	std	Z+10, r24	; 0x0a
    1440:	8e e0       	ldi	r24, 0x0E	; 14
    1442:	96 e0       	ldi	r25, 0x06	; 6
    1444:	95 87       	std	Z+13, r25	; 0x0d
    1446:	84 87       	std	Z+12, r24	; 0x0c
    1448:	81 e1       	ldi	r24, 0x11	; 17
    144a:	96 e0       	ldi	r25, 0x06	; 6
    144c:	97 87       	std	Z+15, r25	; 0x0f
    144e:	86 87       	std	Z+14, r24	; 0x0e
    1450:	84 e1       	ldi	r24, 0x14	; 20
    1452:	96 e0       	ldi	r25, 0x06	; 6
    1454:	91 8b       	std	Z+17, r25	; 0x11
    1456:	80 8b       	std	Z+16, r24	; 0x10
    1458:	87 e1       	ldi	r24, 0x17	; 23
    145a:	96 e0       	ldi	r25, 0x06	; 6
    145c:	93 8b       	std	Z+19, r25	; 0x13
    145e:	82 8b       	std	Z+18, r24	; 0x12
    1460:	88 e0       	ldi	r24, 0x08	; 8
    1462:	96 e0       	ldi	r25, 0x06	; 6
    1464:	95 8b       	std	Z+21, r25	; 0x15
    1466:	84 8b       	std	Z+20, r24	; 0x14
    1468:	8a e0       	ldi	r24, 0x0A	; 10
    146a:	96 e0       	ldi	r25, 0x06	; 6
    146c:	97 8b       	std	Z+23, r25	; 0x17
    146e:	86 8b       	std	Z+22, r24	; 0x16
    1470:	89 e1       	ldi	r24, 0x19	; 25
    1472:	96 e0       	ldi	r25, 0x06	; 6
    1474:	91 8f       	std	Z+25, r25	; 0x19
    1476:	80 8f       	std	Z+24, r24	; 0x18
    1478:	8a e3       	ldi	r24, 0x3A	; 58
    147a:	96 e0       	ldi	r25, 0x06	; 6
    147c:	93 8f       	std	Z+27, r25	; 0x1b
    147e:	82 8f       	std	Z+26, r24	; 0x1a
    1480:	88 e4       	ldi	r24, 0x48	; 72
    1482:	96 e0       	ldi	r25, 0x06	; 6
    1484:	95 8f       	std	Z+29, r25	; 0x1d
    1486:	84 8f       	std	Z+28, r24	; 0x1c
    1488:	8a e6       	ldi	r24, 0x6A	; 106
    148a:	96 e0       	ldi	r25, 0x06	; 6
    148c:	97 8f       	std	Z+31, r25	; 0x1f
    148e:	86 8f       	std	Z+30, r24	; 0x1e
    1490:	8e ec       	ldi	r24, 0xCE	; 206
    1492:	98 e0       	ldi	r25, 0x08	; 8
    1494:	91 a3       	std	Z+33, r25	; 0x21
    1496:	80 a3       	std	Z+32, r24	; 0x20
    1498:	87 e0       	ldi	r24, 0x07	; 7
    149a:	99 e0       	ldi	r25, 0x09	; 9
    149c:	93 a3       	std	Z+35, r25	; 0x23
    149e:	82 a3       	std	Z+34, r24	; 0x22
    14a0:	83 e7       	ldi	r24, 0x73	; 115
    14a2:	98 e0       	ldi	r25, 0x08	; 8
    14a4:	95 a3       	std	Z+37, r25	; 0x25
    14a6:	84 a3       	std	Z+36, r24	; 0x24
    14a8:	8b e3       	ldi	r24, 0x3B	; 59
    14aa:	98 e0       	ldi	r25, 0x08	; 8
    14ac:	97 a3       	std	Z+39, r25	; 0x27
    14ae:	86 a3       	std	Z+38, r24	; 0x26
    14b0:	80 e1       	ldi	r24, 0x10	; 16
    14b2:	97 e0       	ldi	r25, 0x07	; 7
    14b4:	91 a7       	std	Z+41, r25	; 0x29
    14b6:	80 a7       	std	Z+40, r24	; 0x28
    14b8:	85 e1       	ldi	r24, 0x15	; 21
    14ba:	97 e0       	ldi	r25, 0x07	; 7
    14bc:	93 a7       	std	Z+43, r25	; 0x2b
    14be:	82 a7       	std	Z+42, r24	; 0x2a
    14c0:	84 e2       	ldi	r24, 0x24	; 36
    14c2:	97 e0       	ldi	r25, 0x07	; 7
    14c4:	95 a7       	std	Z+45, r25	; 0x2d
    14c6:	84 a7       	std	Z+44, r24	; 0x2c
    14c8:	88 e4       	ldi	r24, 0x48	; 72
    14ca:	97 e0       	ldi	r25, 0x07	; 7
    14cc:	97 a7       	std	Z+47, r25	; 0x2f
    14ce:	86 a7       	std	Z+46, r24	; 0x2e
    14d0:	8a e4       	ldi	r24, 0x4A	; 74
    14d2:	97 e0       	ldi	r25, 0x07	; 7
    14d4:	91 ab       	std	Z+49, r25	; 0x31
    14d6:	80 ab       	std	Z+48, r24	; 0x30
    14d8:	84 e5       	ldi	r24, 0x54	; 84
    14da:	97 e0       	ldi	r25, 0x07	; 7
    14dc:	93 ab       	std	Z+51, r25	; 0x33
    14de:	82 ab       	std	Z+50, r24	; 0x32
    14e0:	81 e6       	ldi	r24, 0x61	; 97
    14e2:	97 e0       	ldi	r25, 0x07	; 7
    14e4:	95 ab       	std	Z+53, r25	; 0x35
    14e6:	84 ab       	std	Z+52, r24	; 0x34
    14e8:	8d e6       	ldi	r24, 0x6D	; 109
    14ea:	97 e0       	ldi	r25, 0x07	; 7
    14ec:	97 ab       	std	Z+55, r25	; 0x37
    14ee:	86 ab       	std	Z+54, r24	; 0x36
    14f0:	85 e8       	ldi	r24, 0x85	; 133
    14f2:	97 e0       	ldi	r25, 0x07	; 7
    14f4:	91 af       	std	Z+57, r25	; 0x39
    14f6:	80 af       	std	Z+56, r24	; 0x38
    14f8:	88 e9       	ldi	r24, 0x98	; 152
    14fa:	97 e0       	ldi	r25, 0x07	; 7
    14fc:	93 af       	std	Z+59, r25	; 0x3b
    14fe:	82 af       	std	Z+58, r24	; 0x3a
    1500:	83 ea       	ldi	r24, 0xA3	; 163
    1502:	97 e0       	ldi	r25, 0x07	; 7
    1504:	95 af       	std	Z+61, r25	; 0x3d
    1506:	84 af       	std	Z+60, r24	; 0x3c
    1508:	80 ed       	ldi	r24, 0xD0	; 208
    150a:	97 e0       	ldi	r25, 0x07	; 7
    150c:	97 af       	std	Z+63, r25	; 0x3f
    150e:	86 af       	std	Z+62, r24	; 0x3e
    1510:	df 01       	movw	r26, r30
    1512:	a0 5c       	subi	r26, 0xC0	; 192
    1514:	bf 4f       	sbci	r27, 0xFF	; 255
    1516:	85 e4       	ldi	r24, 0x45	; 69
    1518:	99 e0       	ldi	r25, 0x09	; 9
    151a:	11 96       	adiw	r26, 0x01	; 1
    151c:	9c 93       	st	X, r25
    151e:	8e 93       	st	-X, r24
    1520:	12 96       	adiw	r26, 0x02	; 2
    1522:	80 e5       	ldi	r24, 0x50	; 80
    1524:	99 e0       	ldi	r25, 0x09	; 9
    1526:	11 96       	adiw	r26, 0x01	; 1
    1528:	9c 93       	st	X, r25
    152a:	8e 93       	st	-X, r24
    152c:	12 96       	adiw	r26, 0x02	; 2
    152e:	81 e7       	ldi	r24, 0x71	; 113
    1530:	99 e0       	ldi	r25, 0x09	; 9
    1532:	11 96       	adiw	r26, 0x01	; 1
    1534:	9c 93       	st	X, r25
    1536:	8e 93       	st	-X, r24
    1538:	12 96       	adiw	r26, 0x02	; 2
    153a:	81 ec       	ldi	r24, 0xC1	; 193
    153c:	99 e0       	ldi	r25, 0x09	; 9
    153e:	11 96       	adiw	r26, 0x01	; 1
    1540:	9c 93       	st	X, r25
    1542:	8e 93       	st	-X, r24
    1544:	12 96       	adiw	r26, 0x02	; 2
    1546:	89 ec       	ldi	r24, 0xC9	; 201
    1548:	99 e0       	ldi	r25, 0x09	; 9
    154a:	8d 93       	st	X+, r24
    154c:	9c 93       	st	X, r25
}
    154e:	cf 01       	movw	r24, r30
    1550:	08 95       	ret

00001552 <KEYPAD_get>:
	}
	return data;
}
/***read***/
struct keypadata KEYPAD_get(void)
{
    1552:	cf 93       	push	r28
    1554:	df 93       	push	r29
    1556:	00 d0       	rcall	.+0      	; 0x1558 <KEYPAD_get+0x6>
    1558:	00 d0       	rcall	.+0      	; 0x155a <KEYPAD_get+0x8>
    155a:	1f 92       	push	r1
    155c:	cd b7       	in	r28, 0x3d	; 61
    155e:	de b7       	in	r29, 0x3e	; 62
	return data;
    1560:	85 e0       	ldi	r24, 0x05	; 5
    1562:	ec e6       	ldi	r30, 0x6C	; 108
    1564:	f3 e0       	ldi	r31, 0x03	; 3
    1566:	de 01       	movw	r26, r28
    1568:	11 96       	adiw	r26, 0x01	; 1
    156a:	01 90       	ld	r0, Z+
    156c:	0d 92       	st	X+, r0
    156e:	8a 95       	dec	r24
    1570:	e1 f7       	brne	.-8      	; 0x156a <KEYPAD_get+0x18>
    1572:	29 81       	ldd	r18, Y+1	; 0x01
    1574:	3a 81       	ldd	r19, Y+2	; 0x02
    1576:	4b 81       	ldd	r20, Y+3	; 0x03
    1578:	5c 81       	ldd	r21, Y+4	; 0x04
    157a:	6d 81       	ldd	r22, Y+5	; 0x05
}
    157c:	70 e0       	ldi	r23, 0x00	; 0
    157e:	80 e0       	ldi	r24, 0x00	; 0
    1580:	90 e0       	ldi	r25, 0x00	; 0
    1582:	0f 90       	pop	r0
    1584:	0f 90       	pop	r0
    1586:	0f 90       	pop	r0
    1588:	0f 90       	pop	r0
    158a:	0f 90       	pop	r0
    158c:	df 91       	pop	r29
    158e:	cf 91       	pop	r28
    1590:	08 95       	ret

00001592 <KEYPAD_flush>:
/***flush***/
void KEYPAD_flush(void)
{
	KEYPADSTRINGINDEX=0;
    1592:	10 92 39 03 	sts	0x0339, r1	; 0x800339 <KEYPADSTRINGINDEX>
	data.character=' ';
    1596:	ec e6       	ldi	r30, 0x6C	; 108
    1598:	f3 e0       	ldi	r31, 0x03	; 3
    159a:	80 e2       	ldi	r24, 0x20	; 32
    159c:	80 83       	st	Z, r24
	data.printstring="\0";
    159e:	80 e1       	ldi	r24, 0x10	; 16
    15a0:	91 e0       	ldi	r25, 0x01	; 1
    15a2:	92 83       	std	Z+2, r25	; 0x02
    15a4:	81 83       	std	Z+1, r24	; 0x01
	data.string="\0";
    15a6:	94 83       	std	Z+4, r25	; 0x04
    15a8:	83 83       	std	Z+3, r24	; 0x03
    15aa:	08 95       	ret

000015ac <KEYPAD_getkey>:
	*keypad_PORT|=(1<<KEYPADLINE_1) | (1<<KEYPADLINE_2) | (1<<KEYPADLINE_3) | (1<<KEYPADLINE_4);
	//Going to use pull down method.
	return keypad;
}
char KEYPAD_getkey(void)
{
    15ac:	cf 93       	push	r28
    15ae:	df 93       	push	r29
    15b0:	21 e0       	ldi	r18, 0x01	; 1
	uint8_t HL;
	char c='\0';
    15b2:	80 e0       	ldi	r24, 0x00	; 0
				*keypad_PORT|=(1<<KEYPADLINE_1);
				break;
			case 1: //line 2 index 1
				*keypad_DDR|=(1<<KEYPADLINE_2);
				*keypad_PORT&=~(1<<KEYPADLINE_2);
				keypad_dataf.line_2=*keypad_PIN & ((1<<KEYPADDATA_1) | (1<<KEYPADDATA_2) | (1<<KEYPADDATA_3) | (1<<KEYPADDATA_4));
    15b4:	a1 e3       	ldi	r26, 0x31	; 49
    15b6:	b3 e0       	ldi	r27, 0x03	; 3
				HL=KEYPADhl(keypad_datai.line_2,keypad_dataf.line_2);
    15b8:	e5 e3       	ldi	r30, 0x35	; 53
    15ba:	f3 e0       	ldi	r31, 0x03	; 3
					if(HL == (1<<KEYPADDATA_2))
						c=keypadvalue[1][1];
					if(HL == (1<<KEYPADDATA_3))
						c=keypadvalue[1][2];
					if(HL == (1<<KEYPADDATA_4))
						c=keypadvalue[1][3];
    15bc:	60 e0       	ldi	r22, 0x00	; 0
    15be:	71 e0       	ldi	r23, 0x01	; 1
    15c0:	01 c0       	rjmp	.+2      	; 0x15c4 <KEYPAD_getkey+0x18>
    15c2:	2f 5f       	subi	r18, 0xFF	; 255
{
	uint8_t HL;
	char c='\0';
	uint8_t keypad_option;
	for(keypad_option=0;keypad_option<KEYPADLINES;keypad_option++){
		switch (keypad_option)
    15c4:	9f ef       	ldi	r25, 0xFF	; 255
    15c6:	92 0f       	add	r25, r18
    15c8:	91 30       	cpi	r25, 0x01	; 1
    15ca:	09 f4       	brne	.+2      	; 0x15ce <KEYPAD_getkey+0x22>
    15cc:	4b c0       	rjmp	.+150    	; 0x1664 <KEYPAD_getkey+0xb8>
    15ce:	38 f0       	brcs	.+14     	; 0x15de <KEYPAD_getkey+0x32>
    15d0:	92 30       	cpi	r25, 0x02	; 2
    15d2:	09 f4       	brne	.+2      	; 0x15d6 <KEYPAD_getkey+0x2a>
    15d4:	8c c0       	rjmp	.+280    	; 0x16ee <KEYPAD_getkey+0x142>
    15d6:	93 30       	cpi	r25, 0x03	; 3
    15d8:	09 f4       	brne	.+2      	; 0x15dc <KEYPAD_getkey+0x30>
    15da:	ce c0       	rjmp	.+412    	; 0x1778 <KEYPAD_getkey+0x1cc>
    15dc:	0e c1       	rjmp	.+540    	; 0x17fa <KEYPAD_getkey+0x24e>
		{
			case 0: //line 1 index 0
				*keypad_DDR|=(1<<KEYPADLINE_1);
    15de:	40 91 3c 03 	lds	r20, 0x033C	; 0x80033c <keypad_DDR>
    15e2:	50 91 3d 03 	lds	r21, 0x033D	; 0x80033d <keypad_DDR+0x1>
    15e6:	ea 01       	movw	r28, r20
    15e8:	98 81       	ld	r25, Y
    15ea:	90 68       	ori	r25, 0x80	; 128
    15ec:	98 83       	st	Y, r25
				*keypad_PORT&=~(1<<KEYPADLINE_1);
    15ee:	40 91 2e 03 	lds	r20, 0x032E	; 0x80032e <keypad_PORT>
    15f2:	50 91 2f 03 	lds	r21, 0x032F	; 0x80032f <keypad_PORT+0x1>
    15f6:	ea 01       	movw	r28, r20
    15f8:	98 81       	ld	r25, Y
    15fa:	9f 77       	andi	r25, 0x7F	; 127
    15fc:	98 83       	st	Y, r25
				keypad_dataf.line_1=*keypad_PIN & ((1<<KEYPADDATA_1) | (1<<KEYPADDATA_2) | (1<<KEYPADDATA_3) | (1<<KEYPADDATA_4));
    15fe:	40 91 3a 03 	lds	r20, 0x033A	; 0x80033a <keypad_PIN>
    1602:	50 91 3b 03 	lds	r21, 0x033B	; 0x80033b <keypad_PIN+0x1>
    1606:	ea 01       	movw	r28, r20
    1608:	38 81       	ld	r19, Y
    160a:	34 77       	andi	r19, 0x74	; 116
    160c:	3c 93       	st	X, r19
				HL=KEYPADhl(keypad_datai.line_1,keypad_dataf.line_1);
    160e:	90 81       	ld	r25, Z
uint8_t KEYPADhl(uint8_t xi, uint8_t xf)
{
	uint8_t i;
	//printf("KEYPADhl\n");
	i=xf^xi;
	i&=xi;
    1610:	43 2f       	mov	r20, r19
    1612:	49 27       	eor	r20, r25
    1614:	94 23       	and	r25, r20
			case 0: //line 1 index 0
				*keypad_DDR|=(1<<KEYPADLINE_1);
				*keypad_PORT&=~(1<<KEYPADLINE_1);
				keypad_dataf.line_1=*keypad_PIN & ((1<<KEYPADDATA_1) | (1<<KEYPADDATA_2) | (1<<KEYPADDATA_3) | (1<<KEYPADDATA_4));
				HL=KEYPADhl(keypad_datai.line_1,keypad_dataf.line_1);
				keypad_datai.line_1=keypad_dataf.line_1;
    1616:	30 83       	st	Z, r19
				if(HL){
    1618:	99 23       	and	r25, r25
    161a:	99 f0       	breq	.+38     	; 0x1642 <KEYPAD_getkey+0x96>
					//decode index line one column what ?
					if(HL == (1<<KEYPADDATA_1))
    161c:	94 30       	cpi	r25, 0x04	; 4
    161e:	19 f4       	brne	.+6      	; 0x1626 <KEYPAD_getkey+0x7a>
						c=keypadvalue[0][0];
    1620:	eb 01       	movw	r28, r22
    1622:	88 81       	ld	r24, Y
    1624:	0a c0       	rjmp	.+20     	; 0x163a <KEYPAD_getkey+0x8e>
					if(HL == (1<<KEYPADDATA_2))
    1626:	90 31       	cpi	r25, 0x10	; 16
    1628:	19 f4       	brne	.+6      	; 0x1630 <KEYPAD_getkey+0x84>
						c=keypadvalue[0][1];
    162a:	eb 01       	movw	r28, r22
    162c:	89 81       	ldd	r24, Y+1	; 0x01
    162e:	09 c0       	rjmp	.+18     	; 0x1642 <KEYPAD_getkey+0x96>
					if(HL == (1<<KEYPADDATA_3))
    1630:	90 32       	cpi	r25, 0x20	; 32
    1632:	19 f4       	brne	.+6      	; 0x163a <KEYPAD_getkey+0x8e>
						c=keypadvalue[0][2];
    1634:	eb 01       	movw	r28, r22
    1636:	8a 81       	ldd	r24, Y+2	; 0x02
    1638:	04 c0       	rjmp	.+8      	; 0x1642 <KEYPAD_getkey+0x96>
					if(HL == (1<<KEYPADDATA_4))
    163a:	90 34       	cpi	r25, 0x40	; 64
    163c:	11 f4       	brne	.+4      	; 0x1642 <KEYPAD_getkey+0x96>
						c=keypadvalue[0][3];
    163e:	eb 01       	movw	r28, r22
    1640:	8b 81       	ldd	r24, Y+3	; 0x03
				}
				*keypad_DDR&=~(1<<KEYPADLINE_1);
    1642:	40 91 3c 03 	lds	r20, 0x033C	; 0x80033c <keypad_DDR>
    1646:	50 91 3d 03 	lds	r21, 0x033D	; 0x80033d <keypad_DDR+0x1>
    164a:	ea 01       	movw	r28, r20
    164c:	98 81       	ld	r25, Y
    164e:	9f 77       	andi	r25, 0x7F	; 127
    1650:	98 83       	st	Y, r25
				*keypad_PORT|=(1<<KEYPADLINE_1);
    1652:	40 91 2e 03 	lds	r20, 0x032E	; 0x80032e <keypad_PORT>
    1656:	50 91 2f 03 	lds	r21, 0x032F	; 0x80032f <keypad_PORT+0x1>
    165a:	ea 01       	movw	r28, r20
    165c:	98 81       	ld	r25, Y
    165e:	90 68       	ori	r25, 0x80	; 128
    1660:	98 83       	st	Y, r25
				break;
    1662:	af cf       	rjmp	.-162    	; 0x15c2 <KEYPAD_getkey+0x16>
			case 1: //line 2 index 1
				*keypad_DDR|=(1<<KEYPADLINE_2);
    1664:	40 91 3c 03 	lds	r20, 0x033C	; 0x80033c <keypad_DDR>
    1668:	50 91 3d 03 	lds	r21, 0x033D	; 0x80033d <keypad_DDR+0x1>
    166c:	ea 01       	movw	r28, r20
    166e:	98 81       	ld	r25, Y
    1670:	91 60       	ori	r25, 0x01	; 1
    1672:	98 83       	st	Y, r25
				*keypad_PORT&=~(1<<KEYPADLINE_2);
    1674:	40 91 2e 03 	lds	r20, 0x032E	; 0x80032e <keypad_PORT>
    1678:	50 91 2f 03 	lds	r21, 0x032F	; 0x80032f <keypad_PORT+0x1>
    167c:	ea 01       	movw	r28, r20
    167e:	98 81       	ld	r25, Y
    1680:	9e 7f       	andi	r25, 0xFE	; 254
    1682:	98 83       	st	Y, r25
				keypad_dataf.line_2=*keypad_PIN & ((1<<KEYPADDATA_1) | (1<<KEYPADDATA_2) | (1<<KEYPADDATA_3) | (1<<KEYPADDATA_4));
    1684:	40 91 3a 03 	lds	r20, 0x033A	; 0x80033a <keypad_PIN>
    1688:	50 91 3b 03 	lds	r21, 0x033B	; 0x80033b <keypad_PIN+0x1>
    168c:	ea 01       	movw	r28, r20
    168e:	38 81       	ld	r19, Y
    1690:	34 77       	andi	r19, 0x74	; 116
    1692:	11 96       	adiw	r26, 0x01	; 1
    1694:	3c 93       	st	X, r19
    1696:	11 97       	sbiw	r26, 0x01	; 1
				HL=KEYPADhl(keypad_datai.line_2,keypad_dataf.line_2);
    1698:	91 81       	ldd	r25, Z+1	; 0x01
uint8_t KEYPADhl(uint8_t xi, uint8_t xf)
{
	uint8_t i;
	//printf("KEYPADhl\n");
	i=xf^xi;
	i&=xi;
    169a:	43 2f       	mov	r20, r19
    169c:	49 27       	eor	r20, r25
    169e:	94 23       	and	r25, r20
			case 1: //line 2 index 1
				*keypad_DDR|=(1<<KEYPADLINE_2);
				*keypad_PORT&=~(1<<KEYPADLINE_2);
				keypad_dataf.line_2=*keypad_PIN & ((1<<KEYPADDATA_1) | (1<<KEYPADDATA_2) | (1<<KEYPADDATA_3) | (1<<KEYPADDATA_4));
				HL=KEYPADhl(keypad_datai.line_2,keypad_dataf.line_2);
				keypad_datai.line_2=keypad_dataf.line_2;
    16a0:	31 83       	std	Z+1, r19	; 0x01
				if(HL){
    16a2:	99 23       	and	r25, r25
    16a4:	99 f0       	breq	.+38     	; 0x16cc <KEYPAD_getkey+0x120>
					//decode index line two column what ?
					if(HL == (1<<KEYPADDATA_1))
    16a6:	94 30       	cpi	r25, 0x04	; 4
    16a8:	19 f4       	brne	.+6      	; 0x16b0 <KEYPAD_getkey+0x104>
						c=keypadvalue[1][0];
    16aa:	eb 01       	movw	r28, r22
    16ac:	8c 81       	ldd	r24, Y+4	; 0x04
    16ae:	0a c0       	rjmp	.+20     	; 0x16c4 <KEYPAD_getkey+0x118>
					if(HL == (1<<KEYPADDATA_2))
    16b0:	90 31       	cpi	r25, 0x10	; 16
    16b2:	19 f4       	brne	.+6      	; 0x16ba <KEYPAD_getkey+0x10e>
						c=keypadvalue[1][1];
    16b4:	eb 01       	movw	r28, r22
    16b6:	8d 81       	ldd	r24, Y+5	; 0x05
    16b8:	09 c0       	rjmp	.+18     	; 0x16cc <KEYPAD_getkey+0x120>
					if(HL == (1<<KEYPADDATA_3))
    16ba:	90 32       	cpi	r25, 0x20	; 32
    16bc:	19 f4       	brne	.+6      	; 0x16c4 <KEYPAD_getkey+0x118>
						c=keypadvalue[1][2];
    16be:	eb 01       	movw	r28, r22
    16c0:	8e 81       	ldd	r24, Y+6	; 0x06
    16c2:	04 c0       	rjmp	.+8      	; 0x16cc <KEYPAD_getkey+0x120>
					if(HL == (1<<KEYPADDATA_4))
    16c4:	90 34       	cpi	r25, 0x40	; 64
    16c6:	11 f4       	brne	.+4      	; 0x16cc <KEYPAD_getkey+0x120>
						c=keypadvalue[1][3];
    16c8:	eb 01       	movw	r28, r22
    16ca:	8f 81       	ldd	r24, Y+7	; 0x07
				}
				*keypad_DDR&=~(1<<KEYPADLINE_2);
    16cc:	40 91 3c 03 	lds	r20, 0x033C	; 0x80033c <keypad_DDR>
    16d0:	50 91 3d 03 	lds	r21, 0x033D	; 0x80033d <keypad_DDR+0x1>
    16d4:	ea 01       	movw	r28, r20
    16d6:	98 81       	ld	r25, Y
    16d8:	9e 7f       	andi	r25, 0xFE	; 254
    16da:	98 83       	st	Y, r25
				*keypad_PORT|=(1<<KEYPADLINE_2);
    16dc:	40 91 2e 03 	lds	r20, 0x032E	; 0x80032e <keypad_PORT>
    16e0:	50 91 2f 03 	lds	r21, 0x032F	; 0x80032f <keypad_PORT+0x1>
    16e4:	ea 01       	movw	r28, r20
    16e6:	98 81       	ld	r25, Y
    16e8:	91 60       	ori	r25, 0x01	; 1
    16ea:	98 83       	st	Y, r25
				break;
    16ec:	6a cf       	rjmp	.-300    	; 0x15c2 <KEYPAD_getkey+0x16>
			case 2: //line 3 index 2
				*keypad_DDR|=(1<<KEYPADLINE_3);
    16ee:	40 91 3c 03 	lds	r20, 0x033C	; 0x80033c <keypad_DDR>
    16f2:	50 91 3d 03 	lds	r21, 0x033D	; 0x80033d <keypad_DDR+0x1>
    16f6:	ea 01       	movw	r28, r20
    16f8:	98 81       	ld	r25, Y
    16fa:	92 60       	ori	r25, 0x02	; 2
    16fc:	98 83       	st	Y, r25
				*keypad_PORT&=~(1<<KEYPADLINE_3);
    16fe:	40 91 2e 03 	lds	r20, 0x032E	; 0x80032e <keypad_PORT>
    1702:	50 91 2f 03 	lds	r21, 0x032F	; 0x80032f <keypad_PORT+0x1>
    1706:	ea 01       	movw	r28, r20
    1708:	98 81       	ld	r25, Y
    170a:	9d 7f       	andi	r25, 0xFD	; 253
    170c:	98 83       	st	Y, r25
				keypad_dataf.line_3=*keypad_PIN & ((1<<KEYPADDATA_1) | (1<<KEYPADDATA_2) | (1<<KEYPADDATA_3) | (1<<KEYPADDATA_4));
    170e:	40 91 3a 03 	lds	r20, 0x033A	; 0x80033a <keypad_PIN>
    1712:	50 91 3b 03 	lds	r21, 0x033B	; 0x80033b <keypad_PIN+0x1>
    1716:	ea 01       	movw	r28, r20
    1718:	38 81       	ld	r19, Y
    171a:	34 77       	andi	r19, 0x74	; 116
    171c:	12 96       	adiw	r26, 0x02	; 2
    171e:	3c 93       	st	X, r19
    1720:	12 97       	sbiw	r26, 0x02	; 2
				HL=KEYPADhl(keypad_datai.line_3,keypad_dataf.line_3);
    1722:	92 81       	ldd	r25, Z+2	; 0x02
uint8_t KEYPADhl(uint8_t xi, uint8_t xf)
{
	uint8_t i;
	//printf("KEYPADhl\n");
	i=xf^xi;
	i&=xi;
    1724:	43 2f       	mov	r20, r19
    1726:	49 27       	eor	r20, r25
    1728:	94 23       	and	r25, r20
			case 2: //line 3 index 2
				*keypad_DDR|=(1<<KEYPADLINE_3);
				*keypad_PORT&=~(1<<KEYPADLINE_3);
				keypad_dataf.line_3=*keypad_PIN & ((1<<KEYPADDATA_1) | (1<<KEYPADDATA_2) | (1<<KEYPADDATA_3) | (1<<KEYPADDATA_4));
				HL=KEYPADhl(keypad_datai.line_3,keypad_dataf.line_3);
				keypad_datai.line_3=keypad_dataf.line_3;
    172a:	32 83       	std	Z+2, r19	; 0x02
				if(HL){
    172c:	99 23       	and	r25, r25
    172e:	99 f0       	breq	.+38     	; 0x1756 <KEYPAD_getkey+0x1aa>
					//decode index line three column what ?
					if(HL == (1<<KEYPADDATA_1))
    1730:	94 30       	cpi	r25, 0x04	; 4
    1732:	19 f4       	brne	.+6      	; 0x173a <KEYPAD_getkey+0x18e>
						c=keypadvalue[2][0];
    1734:	eb 01       	movw	r28, r22
    1736:	88 85       	ldd	r24, Y+8	; 0x08
    1738:	0a c0       	rjmp	.+20     	; 0x174e <KEYPAD_getkey+0x1a2>
					if(HL == (1<<KEYPADDATA_2))
    173a:	90 31       	cpi	r25, 0x10	; 16
    173c:	19 f4       	brne	.+6      	; 0x1744 <KEYPAD_getkey+0x198>
						c=keypadvalue[2][1];
    173e:	eb 01       	movw	r28, r22
    1740:	89 85       	ldd	r24, Y+9	; 0x09
    1742:	09 c0       	rjmp	.+18     	; 0x1756 <KEYPAD_getkey+0x1aa>
					if(HL == (1<<KEYPADDATA_3))
    1744:	90 32       	cpi	r25, 0x20	; 32
    1746:	19 f4       	brne	.+6      	; 0x174e <KEYPAD_getkey+0x1a2>
						c=keypadvalue[2][2];
    1748:	eb 01       	movw	r28, r22
    174a:	8a 85       	ldd	r24, Y+10	; 0x0a
    174c:	04 c0       	rjmp	.+8      	; 0x1756 <KEYPAD_getkey+0x1aa>
					if(HL == (1<<KEYPADDATA_4))
    174e:	90 34       	cpi	r25, 0x40	; 64
    1750:	11 f4       	brne	.+4      	; 0x1756 <KEYPAD_getkey+0x1aa>
						c=keypadvalue[2][3];
    1752:	eb 01       	movw	r28, r22
    1754:	8b 85       	ldd	r24, Y+11	; 0x0b
				}
				*keypad_DDR&=~(1<<KEYPADLINE_3);
    1756:	40 91 3c 03 	lds	r20, 0x033C	; 0x80033c <keypad_DDR>
    175a:	50 91 3d 03 	lds	r21, 0x033D	; 0x80033d <keypad_DDR+0x1>
    175e:	ea 01       	movw	r28, r20
    1760:	98 81       	ld	r25, Y
    1762:	9d 7f       	andi	r25, 0xFD	; 253
    1764:	98 83       	st	Y, r25
				*keypad_PORT|=(1<<KEYPADLINE_3);
    1766:	40 91 2e 03 	lds	r20, 0x032E	; 0x80032e <keypad_PORT>
    176a:	50 91 2f 03 	lds	r21, 0x032F	; 0x80032f <keypad_PORT+0x1>
    176e:	ea 01       	movw	r28, r20
    1770:	98 81       	ld	r25, Y
    1772:	92 60       	ori	r25, 0x02	; 2
    1774:	98 83       	st	Y, r25
				break;
    1776:	25 cf       	rjmp	.-438    	; 0x15c2 <KEYPAD_getkey+0x16>
			case 3: //line 4 index 3
				*keypad_DDR|=(1<<KEYPADLINE_4);
    1778:	e0 91 3c 03 	lds	r30, 0x033C	; 0x80033c <keypad_DDR>
    177c:	f0 91 3d 03 	lds	r31, 0x033D	; 0x80033d <keypad_DDR+0x1>
    1780:	90 81       	ld	r25, Z
    1782:	98 60       	ori	r25, 0x08	; 8
    1784:	90 83       	st	Z, r25
				*keypad_PORT&=~(1<<KEYPADLINE_4);
    1786:	e0 91 2e 03 	lds	r30, 0x032E	; 0x80032e <keypad_PORT>
    178a:	f0 91 2f 03 	lds	r31, 0x032F	; 0x80032f <keypad_PORT+0x1>
    178e:	90 81       	ld	r25, Z
    1790:	97 7f       	andi	r25, 0xF7	; 247
    1792:	90 83       	st	Z, r25
				keypad_dataf.line_4=*keypad_PIN & ((1<<KEYPADDATA_1) | (1<<KEYPADDATA_2) | (1<<KEYPADDATA_3) | (1<<KEYPADDATA_4));
    1794:	e0 91 3a 03 	lds	r30, 0x033A	; 0x80033a <keypad_PIN>
    1798:	f0 91 3b 03 	lds	r31, 0x033B	; 0x80033b <keypad_PIN+0x1>
    179c:	20 81       	ld	r18, Z
    179e:	24 77       	andi	r18, 0x74	; 116
    17a0:	20 93 34 03 	sts	0x0334, r18	; 0x800334 <keypad_dataf+0x3>
				HL=KEYPADhl(keypad_datai.line_4,keypad_dataf.line_4);
    17a4:	e5 e3       	ldi	r30, 0x35	; 53
    17a6:	f3 e0       	ldi	r31, 0x03	; 3
    17a8:	93 81       	ldd	r25, Z+3	; 0x03
uint8_t KEYPADhl(uint8_t xi, uint8_t xf)
{
	uint8_t i;
	//printf("KEYPADhl\n");
	i=xf^xi;
	i&=xi;
    17aa:	32 2f       	mov	r19, r18
    17ac:	39 27       	eor	r19, r25
    17ae:	93 23       	and	r25, r19
			case 3: //line 4 index 3
				*keypad_DDR|=(1<<KEYPADLINE_4);
				*keypad_PORT&=~(1<<KEYPADLINE_4);
				keypad_dataf.line_4=*keypad_PIN & ((1<<KEYPADDATA_1) | (1<<KEYPADDATA_2) | (1<<KEYPADDATA_3) | (1<<KEYPADDATA_4));
				HL=KEYPADhl(keypad_datai.line_4,keypad_dataf.line_4);
				keypad_datai.line_4=keypad_dataf.line_4;
    17b0:	23 83       	std	Z+3, r18	; 0x03
				if(HL){
    17b2:	99 23       	and	r25, r25
    17b4:	99 f0       	breq	.+38     	; 0x17dc <KEYPAD_getkey+0x230>
					//decode index line four column what ?
					if(HL == (1<<KEYPADDATA_1))
    17b6:	94 30       	cpi	r25, 0x04	; 4
    17b8:	19 f4       	brne	.+6      	; 0x17c0 <KEYPAD_getkey+0x214>
						c=keypadvalue[3][0];
    17ba:	80 91 0c 01 	lds	r24, 0x010C	; 0x80010c <__DATA_REGION_ORIGIN__+0xc>
    17be:	0a c0       	rjmp	.+20     	; 0x17d4 <KEYPAD_getkey+0x228>
					if(HL == (1<<KEYPADDATA_2))
    17c0:	90 31       	cpi	r25, 0x10	; 16
    17c2:	19 f4       	brne	.+6      	; 0x17ca <KEYPAD_getkey+0x21e>
						c=keypadvalue[3][1];
    17c4:	80 91 0d 01 	lds	r24, 0x010D	; 0x80010d <__DATA_REGION_ORIGIN__+0xd>
    17c8:	09 c0       	rjmp	.+18     	; 0x17dc <KEYPAD_getkey+0x230>
					if(HL == (1<<KEYPADDATA_3))
    17ca:	90 32       	cpi	r25, 0x20	; 32
    17cc:	19 f4       	brne	.+6      	; 0x17d4 <KEYPAD_getkey+0x228>
						c=keypadvalue[3][2];
    17ce:	80 91 0e 01 	lds	r24, 0x010E	; 0x80010e <__DATA_REGION_ORIGIN__+0xe>
    17d2:	04 c0       	rjmp	.+8      	; 0x17dc <KEYPAD_getkey+0x230>
					if(HL == (1<<KEYPADDATA_4))
    17d4:	90 34       	cpi	r25, 0x40	; 64
    17d6:	11 f4       	brne	.+4      	; 0x17dc <KEYPAD_getkey+0x230>
						c=keypadvalue[3][3];
    17d8:	80 91 0f 01 	lds	r24, 0x010F	; 0x80010f <__DATA_REGION_ORIGIN__+0xf>
				}
				*keypad_DDR&=~(1<<KEYPADLINE_4);
    17dc:	e0 91 3c 03 	lds	r30, 0x033C	; 0x80033c <keypad_DDR>
    17e0:	f0 91 3d 03 	lds	r31, 0x033D	; 0x80033d <keypad_DDR+0x1>
    17e4:	90 81       	ld	r25, Z
    17e6:	97 7f       	andi	r25, 0xF7	; 247
    17e8:	90 83       	st	Z, r25
				*keypad_PORT|=(1<<KEYPADLINE_4);
    17ea:	e0 91 2e 03 	lds	r30, 0x032E	; 0x80032e <keypad_PORT>
    17ee:	f0 91 2f 03 	lds	r31, 0x032F	; 0x80032f <keypad_PORT+0x1>
    17f2:	90 81       	ld	r25, Z
    17f4:	98 60       	ori	r25, 0x08	; 8
    17f6:	90 83       	st	Z, r25
    17f8:	03 c0       	rjmp	.+6      	; 0x1800 <KEYPAD_getkey+0x254>
char KEYPAD_getkey(void)
{
	uint8_t HL;
	char c='\0';
	uint8_t keypad_option;
	for(keypad_option=0;keypad_option<KEYPADLINES;keypad_option++){
    17fa:	24 30       	cpi	r18, 0x04	; 4
    17fc:	08 f4       	brcc	.+2      	; 0x1800 <KEYPAD_getkey+0x254>
    17fe:	e1 ce       	rjmp	.-574    	; 0x15c2 <KEYPAD_getkey+0x16>
			default:
				break;
		}
	}
	return c;
}
    1800:	df 91       	pop	r29
    1802:	cf 91       	pop	r28
    1804:	08 95       	ret

00001806 <KEYPAD_read>:
/***read***/
struct keypadata KEYPAD_read(void)
{
    1806:	cf 93       	push	r28
    1808:	df 93       	push	r29
    180a:	00 d0       	rcall	.+0      	; 0x180c <KEYPAD_read+0x6>
    180c:	00 d0       	rcall	.+0      	; 0x180e <KEYPAD_read+0x8>
    180e:	1f 92       	push	r1
    1810:	cd b7       	in	r28, 0x3d	; 61
    1812:	de b7       	in	r29, 0x3e	; 62
	char c;
	c=KEYPAD_getkey(); //returns null all the time when no entry
    1814:	cb de       	rcall	.-618    	; 0x15ac <KEYPAD_getkey>
	if(c){
    1816:	88 23       	and	r24, r24
    1818:	b1 f1       	breq	.+108    	; 0x1886 <KEYPAD_read+0x80>
		data.character=c;
    181a:	80 93 6c 03 	sts	0x036C, r24	; 0x80036c <data>
		if(KEYPADSTRINGINDEX<(KEYPADSTRINGSIZE)){
    181e:	90 91 39 03 	lds	r25, 0x0339	; 0x800339 <KEYPADSTRINGINDEX>
    1822:	94 31       	cpi	r25, 0x14	; 20
    1824:	88 f4       	brcc	.+34     	; 0x1848 <KEYPAD_read+0x42>
			KEYPAD_string[KEYPADSTRINGINDEX]=c;
    1826:	e0 91 39 03 	lds	r30, 0x0339	; 0x800339 <KEYPADSTRINGINDEX>
    182a:	f0 e0       	ldi	r31, 0x00	; 0
    182c:	e2 5c       	subi	r30, 0xC2	; 194
    182e:	fc 4f       	sbci	r31, 0xFC	; 252
    1830:	80 83       	st	Z, r24
			KEYPADSTRINGINDEX++;
    1832:	90 91 39 03 	lds	r25, 0x0339	; 0x800339 <KEYPADSTRINGINDEX>
    1836:	9f 5f       	subi	r25, 0xFF	; 255
    1838:	90 93 39 03 	sts	0x0339, r25	; 0x800339 <KEYPADSTRINGINDEX>
			KEYPAD_string[KEYPADSTRINGINDEX]='\0';
    183c:	e0 91 39 03 	lds	r30, 0x0339	; 0x800339 <KEYPADSTRINGINDEX>
    1840:	f0 e0       	ldi	r31, 0x00	; 0
    1842:	e2 5c       	subi	r30, 0xC2	; 194
    1844:	fc 4f       	sbci	r31, 0xFC	; 252
    1846:	10 82       	st	Z, r1
		}
		if(c==KEYPADENTERKEY){
    1848:	84 34       	cpi	r24, 0x44	; 68
    184a:	99 f4       	brne	.+38     	; 0x1872 <KEYPAD_read+0x6c>
			KEYPAD_string[KEYPADSTRINGINDEX-1]='\0';
    184c:	e0 91 39 03 	lds	r30, 0x0339	; 0x800339 <KEYPADSTRINGINDEX>
    1850:	f0 e0       	ldi	r31, 0x00	; 0
    1852:	e3 5c       	subi	r30, 0xC3	; 195
    1854:	fc 4f       	sbci	r31, 0xFC	; 252
    1856:	10 82       	st	Z, r1
			KEYPADSTRINGINDEX=0;
    1858:	10 92 39 03 	sts	0x0339, r1	; 0x800339 <KEYPADSTRINGINDEX>
			data.printstring="\0";
    185c:	ec e6       	ldi	r30, 0x6C	; 108
    185e:	f3 e0       	ldi	r31, 0x03	; 3
    1860:	80 e1       	ldi	r24, 0x10	; 16
    1862:	91 e0       	ldi	r25, 0x01	; 1
    1864:	92 83       	std	Z+2, r25	; 0x02
    1866:	81 83       	std	Z+1, r24	; 0x01
			data.string=KEYPAD_string; // shift output
    1868:	8e e3       	ldi	r24, 0x3E	; 62
    186a:	93 e0       	ldi	r25, 0x03	; 3
    186c:	94 83       	std	Z+4, r25	; 0x04
    186e:	83 83       	std	Z+3, r24	; 0x03
    1870:	0a c0       	rjmp	.+20     	; 0x1886 <KEYPAD_read+0x80>
		}else{
			data.printstring=KEYPAD_string;
    1872:	ec e6       	ldi	r30, 0x6C	; 108
    1874:	f3 e0       	ldi	r31, 0x03	; 3
    1876:	8e e3       	ldi	r24, 0x3E	; 62
    1878:	93 e0       	ldi	r25, 0x03	; 3
    187a:	92 83       	std	Z+2, r25	; 0x02
    187c:	81 83       	std	Z+1, r24	; 0x01
			data.string="\0"; // clear output
    187e:	80 e1       	ldi	r24, 0x10	; 16
    1880:	91 e0       	ldi	r25, 0x01	; 1
    1882:	94 83       	std	Z+4, r25	; 0x04
    1884:	83 83       	std	Z+3, r24	; 0x03
		}
	}
	return data;
    1886:	85 e0       	ldi	r24, 0x05	; 5
    1888:	ec e6       	ldi	r30, 0x6C	; 108
    188a:	f3 e0       	ldi	r31, 0x03	; 3
    188c:	de 01       	movw	r26, r28
    188e:	11 96       	adiw	r26, 0x01	; 1
    1890:	01 90       	ld	r0, Z+
    1892:	0d 92       	st	X+, r0
    1894:	8a 95       	dec	r24
    1896:	e1 f7       	brne	.-8      	; 0x1890 <KEYPAD_read+0x8a>
    1898:	29 81       	ldd	r18, Y+1	; 0x01
    189a:	3a 81       	ldd	r19, Y+2	; 0x02
    189c:	4b 81       	ldd	r20, Y+3	; 0x03
    189e:	5c 81       	ldd	r21, Y+4	; 0x04
    18a0:	6d 81       	ldd	r22, Y+5	; 0x05
}
    18a2:	70 e0       	ldi	r23, 0x00	; 0
    18a4:	80 e0       	ldi	r24, 0x00	; 0
    18a6:	90 e0       	ldi	r25, 0x00	; 0
    18a8:	0f 90       	pop	r0
    18aa:	0f 90       	pop	r0
    18ac:	0f 90       	pop	r0
    18ae:	0f 90       	pop	r0
    18b0:	0f 90       	pop	r0
    18b2:	df 91       	pop	r29
    18b4:	cf 91       	pop	r28
    18b6:	08 95       	ret

000018b8 <KEYPADenable>:
uint8_t KEYPADlh(uint8_t xi, uint8_t xf);
/***hl***/
uint8_t KEYPADhl(uint8_t xi, uint8_t xf);
/***Procedure & Function***/
KEYPAD KEYPADenable(volatile uint8_t *ddr, volatile uint8_t *pin, volatile uint8_t *port)
{
    18b8:	cf 93       	push	r28
    18ba:	df 93       	push	r29
    18bc:	cd b7       	in	r28, 0x3d	; 61
    18be:	de b7       	in	r29, 0x3e	; 62
    18c0:	28 97       	sbiw	r28, 0x08	; 8
    18c2:	0f b6       	in	r0, 0x3f	; 63
    18c4:	f8 94       	cli
    18c6:	de bf       	out	0x3e, r29	; 62
    18c8:	0f be       	out	0x3f, r0	; 63
    18ca:	cd bf       	out	0x3d, r28	; 61
	//LOCAL VARIABLE
	uint8_t tSREG;
	tSREG=SREG;
    18cc:	2f b7       	in	r18, 0x3f	; 63
	data.character=' ';
    18ce:	30 e2       	ldi	r19, 0x20	; 32
    18d0:	30 93 6c 03 	sts	0x036C, r19	; 0x80036c <data>
	//ALLOCAÇÂO MEMORIA PARA Estrutura
	KEYPAD keypad;
	//import parametros
	keypad_DDR=ddr;
    18d4:	90 93 3d 03 	sts	0x033D, r25	; 0x80033d <keypad_DDR+0x1>
    18d8:	80 93 3c 03 	sts	0x033C, r24	; 0x80033c <keypad_DDR>
	keypad_PIN=pin;
    18dc:	70 93 3b 03 	sts	0x033B, r23	; 0x80033b <keypad_PIN+0x1>
    18e0:	60 93 3a 03 	sts	0x033A, r22	; 0x80033a <keypad_PIN>
	keypad_PORT=port;
    18e4:	50 93 2f 03 	sts	0x032F, r21	; 0x80032f <keypad_PORT+0x1>
    18e8:	40 93 2e 03 	sts	0x032E, r20	; 0x80032e <keypad_PORT>
	//inic variables
	*keypad_DDR=(1<<KEYPADLINE_1) | (1<<KEYPADLINE_2) | (1<<KEYPADLINE_3) | (1<<KEYPADLINE_4);
    18ec:	3b e8       	ldi	r19, 0x8B	; 139
    18ee:	fc 01       	movw	r30, r24
    18f0:	30 83       	st	Z, r19
	*keypad_PORT=(1<<KEYPADDATA_1) | (1<<KEYPADDATA_2) | (1<<KEYPADDATA_3) | (1<<KEYPADDATA_4);
    18f2:	e0 91 2e 03 	lds	r30, 0x032E	; 0x80032e <keypad_PORT>
    18f6:	f0 91 2f 03 	lds	r31, 0x032F	; 0x80032f <keypad_PORT+0x1>
    18fa:	84 e7       	ldi	r24, 0x74	; 116
    18fc:	80 83       	st	Z, r24
	keypad_datai.line_1=keypad_dataf.line_1=(1<<KEYPADDATA_1) | (1<<KEYPADDATA_2) | (1<<KEYPADDATA_3) | (1<<KEYPADDATA_4);
    18fe:	a1 e3       	ldi	r26, 0x31	; 49
    1900:	b3 e0       	ldi	r27, 0x03	; 3
    1902:	8c 93       	st	X, r24
    1904:	e5 e3       	ldi	r30, 0x35	; 53
    1906:	f3 e0       	ldi	r31, 0x03	; 3
    1908:	80 83       	st	Z, r24
	keypad_datai.line_2=keypad_dataf.line_2=(1<<KEYPADDATA_1) | (1<<KEYPADDATA_2) | (1<<KEYPADDATA_3) | (1<<KEYPADDATA_4);
    190a:	11 96       	adiw	r26, 0x01	; 1
    190c:	8c 93       	st	X, r24
    190e:	11 97       	sbiw	r26, 0x01	; 1
    1910:	81 83       	std	Z+1, r24	; 0x01
	keypad_datai.line_3=keypad_dataf.line_3=(1<<KEYPADDATA_1) | (1<<KEYPADDATA_2) | (1<<KEYPADDATA_3) | (1<<KEYPADDATA_4);
    1912:	12 96       	adiw	r26, 0x02	; 2
    1914:	8c 93       	st	X, r24
    1916:	12 97       	sbiw	r26, 0x02	; 2
    1918:	82 83       	std	Z+2, r24	; 0x02
	keypad_datai.line_4=keypad_dataf.line_4=(1<<KEYPADDATA_1) | (1<<KEYPADDATA_2) | (1<<KEYPADDATA_3) | (1<<KEYPADDATA_4);
    191a:	13 96       	adiw	r26, 0x03	; 3
    191c:	8c 93       	st	X, r24
    191e:	83 83       	std	Z+3, r24	; 0x03
	KEYPADSTRINGINDEX=0;
    1920:	10 92 39 03 	sts	0x0339, r1	; 0x800339 <KEYPADSTRINGINDEX>
	//Vtable
	keypad.getkey=KEYPAD_getkey;
	keypad.read=KEYPAD_read;
	keypad.get=KEYPAD_get;
	keypad.flush=KEYPAD_flush;
	SREG=tSREG;
    1924:	2f bf       	out	0x3f, r18	; 63
	//
	*keypad_PORT|=(1<<KEYPADLINE_1) | (1<<KEYPADLINE_2) | (1<<KEYPADLINE_3) | (1<<KEYPADLINE_4);
    1926:	e0 91 2e 03 	lds	r30, 0x032E	; 0x80032e <keypad_PORT>
    192a:	f0 91 2f 03 	lds	r31, 0x032F	; 0x80032f <keypad_PORT+0x1>
    192e:	80 81       	ld	r24, Z
    1930:	8b 68       	ori	r24, 0x8B	; 139
    1932:	80 83       	st	Z, r24
	//Going to use pull down method.
	return keypad;
    1934:	26 ed       	ldi	r18, 0xD6	; 214
    1936:	3a e0       	ldi	r19, 0x0A	; 10
    1938:	3a 83       	std	Y+2, r19	; 0x02
    193a:	29 83       	std	Y+1, r18	; 0x01
    193c:	43 e0       	ldi	r20, 0x03	; 3
    193e:	5c e0       	ldi	r21, 0x0C	; 12
    1940:	5c 83       	std	Y+4, r21	; 0x04
    1942:	4b 83       	std	Y+3, r20	; 0x03
    1944:	69 ea       	ldi	r22, 0xA9	; 169
    1946:	7a e0       	ldi	r23, 0x0A	; 10
    1948:	7e 83       	std	Y+6, r23	; 0x06
    194a:	6d 83       	std	Y+5, r22	; 0x05
    194c:	89 ec       	ldi	r24, 0xC9	; 201
    194e:	9a e0       	ldi	r25, 0x0A	; 10
    1950:	98 87       	std	Y+8, r25	; 0x08
    1952:	8f 83       	std	Y+7, r24	; 0x07
    1954:	3a 81       	ldd	r19, Y+2	; 0x02
    1956:	5c 81       	ldd	r21, Y+4	; 0x04
    1958:	7e 81       	ldd	r23, Y+6	; 0x06
}
    195a:	98 85       	ldd	r25, Y+8	; 0x08
    195c:	28 96       	adiw	r28, 0x08	; 8
    195e:	0f b6       	in	r0, 0x3f	; 63
    1960:	f8 94       	cli
    1962:	de bf       	out	0x3e, r29	; 62
    1964:	0f be       	out	0x3f, r0	; 63
    1966:	cd bf       	out	0x3d, r28	; 61
    1968:	df 91       	pop	r29
    196a:	cf 91       	pop	r28
    196c:	08 95       	ret

0000196e <LCD0_write>:
	#else
		//round up by default
		__ticks_dc = (uint32_t)(ceil(fabs(__tmp)));
	#endif

	__builtin_avr_delay_cycles(__ticks_dc);
    196e:	e0 91 5d 03 	lds	r30, 0x035D	; 0x80035d <lcd0_PORT>
    1972:	f0 91 5e 03 	lds	r31, 0x035E	; 0x80035e <lcd0_PORT+0x1>
    1976:	90 81       	ld	r25, Z
    1978:	9d 7f       	andi	r25, 0xFD	; 253
    197a:	90 83       	st	Z, r25
    197c:	67 2b       	or	r22, r23
    197e:	41 f0       	breq	.+16     	; 0x1990 <LCD0_write+0x22>
    1980:	e0 91 5d 03 	lds	r30, 0x035D	; 0x80035d <lcd0_PORT>
    1984:	f0 91 5e 03 	lds	r31, 0x035E	; 0x80035e <lcd0_PORT+0x1>
    1988:	90 81       	ld	r25, Z
    198a:	91 60       	ori	r25, 0x01	; 1
    198c:	90 83       	st	Z, r25
    198e:	07 c0       	rjmp	.+14     	; 0x199e <LCD0_write+0x30>
    1990:	e0 91 5d 03 	lds	r30, 0x035D	; 0x80035d <lcd0_PORT>
    1994:	f0 91 5e 03 	lds	r31, 0x035E	; 0x80035e <lcd0_PORT+0x1>
    1998:	90 81       	ld	r25, Z
    199a:	9e 7f       	andi	r25, 0xFE	; 254
    199c:	90 83       	st	Z, r25
    199e:	e0 91 5a 03 	lds	r30, 0x035A	; 0x80035a <lcd0_DDR>
    19a2:	f0 91 5b 03 	lds	r31, 0x035B	; 0x80035b <lcd0_DDR+0x1>
    19a6:	90 81       	ld	r25, Z
    19a8:	90 6f       	ori	r25, 0xF0	; 240
    19aa:	90 83       	st	Z, r25
    19ac:	e0 91 5d 03 	lds	r30, 0x035D	; 0x80035d <lcd0_PORT>
    19b0:	f0 91 5e 03 	lds	r31, 0x035E	; 0x80035e <lcd0_PORT+0x1>
    19b4:	90 81       	ld	r25, Z
    19b6:	94 60       	ori	r25, 0x04	; 4
    19b8:	90 83       	st	Z, r25
    19ba:	88 23       	and	r24, r24
    19bc:	44 f4       	brge	.+16     	; 0x19ce <LCD0_write+0x60>
    19be:	e0 91 5d 03 	lds	r30, 0x035D	; 0x80035d <lcd0_PORT>
    19c2:	f0 91 5e 03 	lds	r31, 0x035E	; 0x80035e <lcd0_PORT+0x1>
    19c6:	90 81       	ld	r25, Z
    19c8:	90 68       	ori	r25, 0x80	; 128
    19ca:	90 83       	st	Z, r25
    19cc:	07 c0       	rjmp	.+14     	; 0x19dc <LCD0_write+0x6e>
    19ce:	e0 91 5d 03 	lds	r30, 0x035D	; 0x80035d <lcd0_PORT>
    19d2:	f0 91 5e 03 	lds	r31, 0x035E	; 0x80035e <lcd0_PORT+0x1>
    19d6:	90 81       	ld	r25, Z
    19d8:	9f 77       	andi	r25, 0x7F	; 127
    19da:	90 83       	st	Z, r25
    19dc:	86 ff       	sbrs	r24, 6
    19de:	08 c0       	rjmp	.+16     	; 0x19f0 <LCD0_write+0x82>
    19e0:	e0 91 5d 03 	lds	r30, 0x035D	; 0x80035d <lcd0_PORT>
    19e4:	f0 91 5e 03 	lds	r31, 0x035E	; 0x80035e <lcd0_PORT+0x1>
    19e8:	90 81       	ld	r25, Z
    19ea:	90 64       	ori	r25, 0x40	; 64
    19ec:	90 83       	st	Z, r25
    19ee:	07 c0       	rjmp	.+14     	; 0x19fe <LCD0_write+0x90>
    19f0:	e0 91 5d 03 	lds	r30, 0x035D	; 0x80035d <lcd0_PORT>
    19f4:	f0 91 5e 03 	lds	r31, 0x035E	; 0x80035e <lcd0_PORT+0x1>
    19f8:	90 81       	ld	r25, Z
    19fa:	9f 7b       	andi	r25, 0xBF	; 191
    19fc:	90 83       	st	Z, r25
    19fe:	85 ff       	sbrs	r24, 5
    1a00:	08 c0       	rjmp	.+16     	; 0x1a12 <LCD0_write+0xa4>
    1a02:	e0 91 5d 03 	lds	r30, 0x035D	; 0x80035d <lcd0_PORT>
    1a06:	f0 91 5e 03 	lds	r31, 0x035E	; 0x80035e <lcd0_PORT+0x1>
    1a0a:	90 81       	ld	r25, Z
    1a0c:	90 62       	ori	r25, 0x20	; 32
    1a0e:	90 83       	st	Z, r25
    1a10:	07 c0       	rjmp	.+14     	; 0x1a20 <LCD0_write+0xb2>
    1a12:	e0 91 5d 03 	lds	r30, 0x035D	; 0x80035d <lcd0_PORT>
    1a16:	f0 91 5e 03 	lds	r31, 0x035E	; 0x80035e <lcd0_PORT+0x1>
    1a1a:	90 81       	ld	r25, Z
    1a1c:	9f 7d       	andi	r25, 0xDF	; 223
    1a1e:	90 83       	st	Z, r25
    1a20:	84 ff       	sbrs	r24, 4
    1a22:	08 c0       	rjmp	.+16     	; 0x1a34 <LCD0_write+0xc6>
    1a24:	e0 91 5d 03 	lds	r30, 0x035D	; 0x80035d <lcd0_PORT>
    1a28:	f0 91 5e 03 	lds	r31, 0x035E	; 0x80035e <lcd0_PORT+0x1>
    1a2c:	90 81       	ld	r25, Z
    1a2e:	90 61       	ori	r25, 0x10	; 16
    1a30:	90 83       	st	Z, r25
    1a32:	07 c0       	rjmp	.+14     	; 0x1a42 <LCD0_write+0xd4>
    1a34:	e0 91 5d 03 	lds	r30, 0x035D	; 0x80035d <lcd0_PORT>
    1a38:	f0 91 5e 03 	lds	r31, 0x035E	; 0x80035e <lcd0_PORT+0x1>
    1a3c:	90 81       	ld	r25, Z
    1a3e:	9f 7e       	andi	r25, 0xEF	; 239
    1a40:	90 83       	st	Z, r25
    1a42:	e0 91 5d 03 	lds	r30, 0x035D	; 0x80035d <lcd0_PORT>
    1a46:	f0 91 5e 03 	lds	r31, 0x035E	; 0x80035e <lcd0_PORT+0x1>
    1a4a:	90 81       	ld	r25, Z
    1a4c:	9b 7f       	andi	r25, 0xFB	; 251
    1a4e:	90 83       	st	Z, r25
    1a50:	e0 91 5d 03 	lds	r30, 0x035D	; 0x80035d <lcd0_PORT>
    1a54:	f0 91 5e 03 	lds	r31, 0x035E	; 0x80035e <lcd0_PORT+0x1>
    1a58:	90 81       	ld	r25, Z
    1a5a:	94 60       	ori	r25, 0x04	; 4
    1a5c:	90 83       	st	Z, r25
    1a5e:	83 ff       	sbrs	r24, 3
    1a60:	08 c0       	rjmp	.+16     	; 0x1a72 <LCD0_write+0x104>
    1a62:	e0 91 5d 03 	lds	r30, 0x035D	; 0x80035d <lcd0_PORT>
    1a66:	f0 91 5e 03 	lds	r31, 0x035E	; 0x80035e <lcd0_PORT+0x1>
    1a6a:	90 81       	ld	r25, Z
    1a6c:	90 68       	ori	r25, 0x80	; 128
    1a6e:	90 83       	st	Z, r25
    1a70:	07 c0       	rjmp	.+14     	; 0x1a80 <LCD0_write+0x112>
    1a72:	e0 91 5d 03 	lds	r30, 0x035D	; 0x80035d <lcd0_PORT>
    1a76:	f0 91 5e 03 	lds	r31, 0x035E	; 0x80035e <lcd0_PORT+0x1>
    1a7a:	90 81       	ld	r25, Z
    1a7c:	9f 77       	andi	r25, 0x7F	; 127
    1a7e:	90 83       	st	Z, r25
    1a80:	82 ff       	sbrs	r24, 2
    1a82:	08 c0       	rjmp	.+16     	; 0x1a94 <LCD0_write+0x126>
    1a84:	e0 91 5d 03 	lds	r30, 0x035D	; 0x80035d <lcd0_PORT>
    1a88:	f0 91 5e 03 	lds	r31, 0x035E	; 0x80035e <lcd0_PORT+0x1>
    1a8c:	90 81       	ld	r25, Z
    1a8e:	90 64       	ori	r25, 0x40	; 64
    1a90:	90 83       	st	Z, r25
    1a92:	07 c0       	rjmp	.+14     	; 0x1aa2 <LCD0_write+0x134>
    1a94:	e0 91 5d 03 	lds	r30, 0x035D	; 0x80035d <lcd0_PORT>
    1a98:	f0 91 5e 03 	lds	r31, 0x035E	; 0x80035e <lcd0_PORT+0x1>
    1a9c:	90 81       	ld	r25, Z
    1a9e:	9f 7b       	andi	r25, 0xBF	; 191
    1aa0:	90 83       	st	Z, r25
    1aa2:	81 ff       	sbrs	r24, 1
    1aa4:	08 c0       	rjmp	.+16     	; 0x1ab6 <LCD0_write+0x148>
    1aa6:	e0 91 5d 03 	lds	r30, 0x035D	; 0x80035d <lcd0_PORT>
    1aaa:	f0 91 5e 03 	lds	r31, 0x035E	; 0x80035e <lcd0_PORT+0x1>
    1aae:	90 81       	ld	r25, Z
    1ab0:	90 62       	ori	r25, 0x20	; 32
    1ab2:	90 83       	st	Z, r25
    1ab4:	07 c0       	rjmp	.+14     	; 0x1ac4 <LCD0_write+0x156>
    1ab6:	e0 91 5d 03 	lds	r30, 0x035D	; 0x80035d <lcd0_PORT>
    1aba:	f0 91 5e 03 	lds	r31, 0x035E	; 0x80035e <lcd0_PORT+0x1>
    1abe:	90 81       	ld	r25, Z
    1ac0:	9f 7d       	andi	r25, 0xDF	; 223
    1ac2:	90 83       	st	Z, r25
    1ac4:	80 ff       	sbrs	r24, 0
    1ac6:	08 c0       	rjmp	.+16     	; 0x1ad8 <LCD0_write+0x16a>
    1ac8:	e0 91 5d 03 	lds	r30, 0x035D	; 0x80035d <lcd0_PORT>
    1acc:	f0 91 5e 03 	lds	r31, 0x035E	; 0x80035e <lcd0_PORT+0x1>
    1ad0:	80 81       	ld	r24, Z
    1ad2:	80 61       	ori	r24, 0x10	; 16
    1ad4:	80 83       	st	Z, r24
    1ad6:	07 c0       	rjmp	.+14     	; 0x1ae6 <LCD0_write+0x178>
    1ad8:	e0 91 5d 03 	lds	r30, 0x035D	; 0x80035d <lcd0_PORT>
    1adc:	f0 91 5e 03 	lds	r31, 0x035E	; 0x80035e <lcd0_PORT+0x1>
    1ae0:	80 81       	ld	r24, Z
    1ae2:	8f 7e       	andi	r24, 0xEF	; 239
    1ae4:	80 83       	st	Z, r24
    1ae6:	e0 91 5d 03 	lds	r30, 0x035D	; 0x80035d <lcd0_PORT>
    1aea:	f0 91 5e 03 	lds	r31, 0x035E	; 0x80035e <lcd0_PORT+0x1>
    1aee:	80 81       	ld	r24, Z
    1af0:	8b 7f       	andi	r24, 0xFB	; 251
    1af2:	80 83       	st	Z, r24
    1af4:	08 95       	ret

00001af6 <LCD0_read>:
    1af6:	e0 91 5a 03 	lds	r30, 0x035A	; 0x80035a <lcd0_DDR>
    1afa:	f0 91 5b 03 	lds	r31, 0x035B	; 0x80035b <lcd0_DDR+0x1>
    1afe:	20 81       	ld	r18, Z
    1b00:	2f 70       	andi	r18, 0x0F	; 15
    1b02:	20 83       	st	Z, r18
    1b04:	e0 91 5d 03 	lds	r30, 0x035D	; 0x80035d <lcd0_PORT>
    1b08:	f0 91 5e 03 	lds	r31, 0x035E	; 0x80035e <lcd0_PORT+0x1>
    1b0c:	20 81       	ld	r18, Z
    1b0e:	20 6f       	ori	r18, 0xF0	; 240
    1b10:	20 83       	st	Z, r18
    1b12:	e0 91 5d 03 	lds	r30, 0x035D	; 0x80035d <lcd0_PORT>
    1b16:	f0 91 5e 03 	lds	r31, 0x035E	; 0x80035e <lcd0_PORT+0x1>
    1b1a:	20 81       	ld	r18, Z
    1b1c:	22 60       	ori	r18, 0x02	; 2
    1b1e:	20 83       	st	Z, r18
    1b20:	89 2b       	or	r24, r25
    1b22:	41 f0       	breq	.+16     	; 0x1b34 <LCD0_read+0x3e>
    1b24:	e0 91 5d 03 	lds	r30, 0x035D	; 0x80035d <lcd0_PORT>
    1b28:	f0 91 5e 03 	lds	r31, 0x035E	; 0x80035e <lcd0_PORT+0x1>
    1b2c:	80 81       	ld	r24, Z
    1b2e:	81 60       	ori	r24, 0x01	; 1
    1b30:	80 83       	st	Z, r24
    1b32:	07 c0       	rjmp	.+14     	; 0x1b42 <LCD0_read+0x4c>
    1b34:	e0 91 5d 03 	lds	r30, 0x035D	; 0x80035d <lcd0_PORT>
    1b38:	f0 91 5e 03 	lds	r31, 0x035E	; 0x80035e <lcd0_PORT+0x1>
    1b3c:	80 81       	ld	r24, Z
    1b3e:	8e 7f       	andi	r24, 0xFE	; 254
    1b40:	80 83       	st	Z, r24
    1b42:	e0 91 5d 03 	lds	r30, 0x035D	; 0x80035d <lcd0_PORT>
    1b46:	f0 91 5e 03 	lds	r31, 0x035E	; 0x80035e <lcd0_PORT+0x1>
    1b4a:	80 81       	ld	r24, Z
    1b4c:	84 60       	ori	r24, 0x04	; 4
    1b4e:	80 83       	st	Z, r24
    1b50:	e0 91 53 03 	lds	r30, 0x0353	; 0x800353 <lcd0_PIN>
    1b54:	f0 91 54 03 	lds	r31, 0x0354	; 0x800354 <lcd0_PIN+0x1>
    1b58:	80 81       	ld	r24, Z
    1b5a:	88 23       	and	r24, r24
    1b5c:	14 f0       	brlt	.+4      	; 0x1b62 <LCD0_read+0x6c>
    1b5e:	80 e0       	ldi	r24, 0x00	; 0
    1b60:	01 c0       	rjmp	.+2      	; 0x1b64 <LCD0_read+0x6e>
    1b62:	80 e8       	ldi	r24, 0x80	; 128
    1b64:	90 81       	ld	r25, Z
    1b66:	96 ff       	sbrs	r25, 6
    1b68:	02 c0       	rjmp	.+4      	; 0x1b6e <LCD0_read+0x78>
    1b6a:	80 64       	ori	r24, 0x40	; 64
    1b6c:	01 c0       	rjmp	.+2      	; 0x1b70 <LCD0_read+0x7a>
    1b6e:	8f 7b       	andi	r24, 0xBF	; 191
    1b70:	90 81       	ld	r25, Z
    1b72:	95 ff       	sbrs	r25, 5
    1b74:	02 c0       	rjmp	.+4      	; 0x1b7a <LCD0_read+0x84>
    1b76:	80 62       	ori	r24, 0x20	; 32
    1b78:	01 c0       	rjmp	.+2      	; 0x1b7c <LCD0_read+0x86>
    1b7a:	8f 7d       	andi	r24, 0xDF	; 223
    1b7c:	90 81       	ld	r25, Z
    1b7e:	94 ff       	sbrs	r25, 4
    1b80:	02 c0       	rjmp	.+4      	; 0x1b86 <LCD0_read+0x90>
    1b82:	80 61       	ori	r24, 0x10	; 16
    1b84:	01 c0       	rjmp	.+2      	; 0x1b88 <LCD0_read+0x92>
    1b86:	8f 7e       	andi	r24, 0xEF	; 239
    1b88:	e0 91 5d 03 	lds	r30, 0x035D	; 0x80035d <lcd0_PORT>
    1b8c:	f0 91 5e 03 	lds	r31, 0x035E	; 0x80035e <lcd0_PORT+0x1>
    1b90:	90 81       	ld	r25, Z
    1b92:	9b 7f       	andi	r25, 0xFB	; 251
    1b94:	90 83       	st	Z, r25
    1b96:	e0 91 5d 03 	lds	r30, 0x035D	; 0x80035d <lcd0_PORT>
    1b9a:	f0 91 5e 03 	lds	r31, 0x035E	; 0x80035e <lcd0_PORT+0x1>
    1b9e:	90 81       	ld	r25, Z
    1ba0:	94 60       	ori	r25, 0x04	; 4
    1ba2:	90 83       	st	Z, r25
    1ba4:	e0 91 53 03 	lds	r30, 0x0353	; 0x800353 <lcd0_PIN>
    1ba8:	f0 91 54 03 	lds	r31, 0x0354	; 0x800354 <lcd0_PIN+0x1>
    1bac:	90 81       	ld	r25, Z
    1bae:	99 23       	and	r25, r25
    1bb0:	14 f4       	brge	.+4      	; 0x1bb6 <LCD0_read+0xc0>
    1bb2:	88 60       	ori	r24, 0x08	; 8
    1bb4:	01 c0       	rjmp	.+2      	; 0x1bb8 <LCD0_read+0xc2>
    1bb6:	87 7f       	andi	r24, 0xF7	; 247
    1bb8:	90 81       	ld	r25, Z
    1bba:	96 ff       	sbrs	r25, 6
    1bbc:	02 c0       	rjmp	.+4      	; 0x1bc2 <LCD0_read+0xcc>
    1bbe:	84 60       	ori	r24, 0x04	; 4
    1bc0:	01 c0       	rjmp	.+2      	; 0x1bc4 <LCD0_read+0xce>
    1bc2:	8b 7f       	andi	r24, 0xFB	; 251
    1bc4:	90 81       	ld	r25, Z
    1bc6:	95 ff       	sbrs	r25, 5
    1bc8:	02 c0       	rjmp	.+4      	; 0x1bce <LCD0_read+0xd8>
    1bca:	82 60       	ori	r24, 0x02	; 2
    1bcc:	01 c0       	rjmp	.+2      	; 0x1bd0 <LCD0_read+0xda>
    1bce:	8d 7f       	andi	r24, 0xFD	; 253
    1bd0:	90 81       	ld	r25, Z
    1bd2:	94 ff       	sbrs	r25, 4
    1bd4:	02 c0       	rjmp	.+4      	; 0x1bda <LCD0_read+0xe4>
    1bd6:	81 60       	ori	r24, 0x01	; 1
    1bd8:	01 c0       	rjmp	.+2      	; 0x1bdc <LCD0_read+0xe6>
    1bda:	8e 7f       	andi	r24, 0xFE	; 254
    1bdc:	e0 91 5d 03 	lds	r30, 0x035D	; 0x80035d <lcd0_PORT>
    1be0:	f0 91 5e 03 	lds	r31, 0x035E	; 0x80035e <lcd0_PORT+0x1>
    1be4:	90 81       	ld	r25, Z
    1be6:	9b 7f       	andi	r25, 0xFB	; 251
    1be8:	90 83       	st	Z, r25
    1bea:	08 95       	ret

00001bec <LCD0_BF>:
    1bec:	cf 93       	push	r28
    1bee:	df 93       	push	r29
    1bf0:	80 e0       	ldi	r24, 0x00	; 0
    1bf2:	90 e0       	ldi	r25, 0x00	; 0
    1bf4:	80 df       	rcall	.-256    	; 0x1af6 <LCD0_read>
    1bf6:	cb e0       	ldi	r28, 0x0B	; 11
    1bf8:	d0 e0       	ldi	r29, 0x00	; 0
    1bfa:	05 c0       	rjmp	.+10     	; 0x1c06 <LCD0_BF+0x1a>
    1bfc:	80 e0       	ldi	r24, 0x00	; 0
    1bfe:	90 e0       	ldi	r25, 0x00	; 0
    1c00:	7a df       	rcall	.-268    	; 0x1af6 <LCD0_read>
    1c02:	21 97       	sbiw	r28, 0x01	; 1
    1c04:	11 f0       	breq	.+4      	; 0x1c0a <LCD0_BF+0x1e>
    1c06:	88 23       	and	r24, r24
    1c08:	cc f3       	brlt	.-14     	; 0x1bfc <LCD0_BF+0x10>
    1c0a:	df 91       	pop	r29
    1c0c:	cf 91       	pop	r28
    1c0e:	08 95       	ret

00001c10 <LCD0_putch>:
    1c10:	61 e0       	ldi	r22, 0x01	; 1
    1c12:	70 e0       	ldi	r23, 0x00	; 0
    1c14:	ac de       	rcall	.-680    	; 0x196e <LCD0_write>
    1c16:	ea cf       	rjmp	.-44     	; 0x1bec <LCD0_BF>
    1c18:	08 95       	ret

00001c1a <LCD0_getch>:
    1c1a:	cf 93       	push	r28
    1c1c:	81 e0       	ldi	r24, 0x01	; 1
    1c1e:	90 e0       	ldi	r25, 0x00	; 0
    1c20:	6a df       	rcall	.-300    	; 0x1af6 <LCD0_read>
    1c22:	c8 2f       	mov	r28, r24
    1c24:	e3 df       	rcall	.-58     	; 0x1bec <LCD0_BF>
    1c26:	8c 2f       	mov	r24, r28
    1c28:	cf 91       	pop	r28
    1c2a:	08 95       	ret

00001c2c <LCD0_string>:
    1c2c:	cf 93       	push	r28
    1c2e:	df 93       	push	r29
    1c30:	ec 01       	movw	r28, r24
    1c32:	88 81       	ld	r24, Y
    1c34:	88 23       	and	r24, r24
    1c36:	41 f0       	breq	.+16     	; 0x1c48 <LCD0_string+0x1c>
    1c38:	21 96       	adiw	r28, 0x01	; 1
    1c3a:	61 e0       	ldi	r22, 0x01	; 1
    1c3c:	70 e0       	ldi	r23, 0x00	; 0
    1c3e:	97 de       	rcall	.-722    	; 0x196e <LCD0_write>
    1c40:	d5 df       	rcall	.-86     	; 0x1bec <LCD0_BF>
    1c42:	89 91       	ld	r24, Y+
    1c44:	81 11       	cpse	r24, r1
    1c46:	f9 cf       	rjmp	.-14     	; 0x1c3a <LCD0_string+0xe>
    1c48:	df 91       	pop	r29
    1c4a:	cf 91       	pop	r28
    1c4c:	08 95       	ret

00001c4e <LCD0_string_size>:
    1c4e:	0f 93       	push	r16
    1c50:	1f 93       	push	r17
    1c52:	cf 93       	push	r28
    1c54:	df 93       	push	r29
    1c56:	fc 01       	movw	r30, r24
    1c58:	d6 2f       	mov	r29, r22
    1c5a:	80 81       	ld	r24, Z
    1c5c:	88 23       	and	r24, r24
    1c5e:	51 f0       	breq	.+20     	; 0x1c74 <LCD0_string_size+0x26>
    1c60:	8f 01       	movw	r16, r30
    1c62:	0f 5f       	subi	r16, 0xFF	; 255
    1c64:	1f 4f       	sbci	r17, 0xFF	; 255
    1c66:	61 11       	cpse	r22, r1
    1c68:	09 c0       	rjmp	.+18     	; 0x1c7c <LCD0_string_size+0x2e>
    1c6a:	1b c0       	rjmp	.+54     	; 0x1ca2 <LCD0_string_size+0x54>
    1c6c:	cf 5f       	subi	r28, 0xFF	; 255
    1c6e:	dc 17       	cp	r29, r28
    1c70:	30 f4       	brcc	.+12     	; 0x1c7e <LCD0_string_size+0x30>
    1c72:	01 c0       	rjmp	.+2      	; 0x1c76 <LCD0_string_size+0x28>
    1c74:	c0 e0       	ldi	r28, 0x00	; 0
    1c76:	cd 17       	cp	r28, r29
    1c78:	60 f0       	brcs	.+24     	; 0x1c92 <LCD0_string_size+0x44>
    1c7a:	13 c0       	rjmp	.+38     	; 0x1ca2 <LCD0_string_size+0x54>
    1c7c:	c1 e0       	ldi	r28, 0x01	; 1
    1c7e:	61 e0       	ldi	r22, 0x01	; 1
    1c80:	70 e0       	ldi	r23, 0x00	; 0
    1c82:	75 de       	rcall	.-790    	; 0x196e <LCD0_write>
    1c84:	b3 df       	rcall	.-154    	; 0x1bec <LCD0_BF>
    1c86:	f8 01       	movw	r30, r16
    1c88:	81 91       	ld	r24, Z+
    1c8a:	8f 01       	movw	r16, r30
    1c8c:	81 11       	cpse	r24, r1
    1c8e:	ee cf       	rjmp	.-36     	; 0x1c6c <LCD0_string_size+0x1e>
    1c90:	f2 cf       	rjmp	.-28     	; 0x1c76 <LCD0_string_size+0x28>
    1c92:	cf 5f       	subi	r28, 0xFF	; 255
    1c94:	61 e0       	ldi	r22, 0x01	; 1
    1c96:	70 e0       	ldi	r23, 0x00	; 0
    1c98:	80 e2       	ldi	r24, 0x20	; 32
    1c9a:	69 de       	rcall	.-814    	; 0x196e <LCD0_write>
    1c9c:	a7 df       	rcall	.-178    	; 0x1bec <LCD0_BF>
    1c9e:	cd 17       	cp	r28, r29
    1ca0:	c0 f3       	brcs	.-16     	; 0x1c92 <LCD0_string_size+0x44>
    1ca2:	df 91       	pop	r29
    1ca4:	cf 91       	pop	r28
    1ca6:	1f 91       	pop	r17
    1ca8:	0f 91       	pop	r16
    1caa:	08 95       	ret

00001cac <LCD0_hspace>:
    1cac:	cf 93       	push	r28
    1cae:	c8 2f       	mov	r28, r24
    1cb0:	88 23       	and	r24, r24
    1cb2:	39 f0       	breq	.+14     	; 0x1cc2 <LCD0_hspace+0x16>
    1cb4:	61 e0       	ldi	r22, 0x01	; 1
    1cb6:	70 e0       	ldi	r23, 0x00	; 0
    1cb8:	80 e2       	ldi	r24, 0x20	; 32
    1cba:	59 de       	rcall	.-846    	; 0x196e <LCD0_write>
    1cbc:	97 df       	rcall	.-210    	; 0x1bec <LCD0_BF>
    1cbe:	c1 50       	subi	r28, 0x01	; 1
    1cc0:	c9 f7       	brne	.-14     	; 0x1cb4 <LCD0_hspace+0x8>
    1cc2:	cf 91       	pop	r28
    1cc4:	08 95       	ret

00001cc6 <LCD0_gotoxy>:
    1cc6:	26 2f       	mov	r18, r22
    1cc8:	81 30       	cpi	r24, 0x01	; 1
    1cca:	91 05       	cpc	r25, r1
    1ccc:	71 f0       	breq	.+28     	; 0x1cea <LCD0_gotoxy+0x24>
    1cce:	30 f0       	brcs	.+12     	; 0x1cdc <LCD0_gotoxy+0x16>
    1cd0:	82 30       	cpi	r24, 0x02	; 2
    1cd2:	91 05       	cpc	r25, r1
    1cd4:	89 f0       	breq	.+34     	; 0x1cf8 <LCD0_gotoxy+0x32>
    1cd6:	03 97       	sbiw	r24, 0x03	; 3
    1cd8:	b1 f0       	breq	.+44     	; 0x1d06 <LCD0_gotoxy+0x40>
    1cda:	08 95       	ret
    1cdc:	60 e0       	ldi	r22, 0x00	; 0
    1cde:	70 e0       	ldi	r23, 0x00	; 0
    1ce0:	80 e8       	ldi	r24, 0x80	; 128
    1ce2:	82 0f       	add	r24, r18
    1ce4:	44 de       	rcall	.-888    	; 0x196e <LCD0_write>
    1ce6:	82 cf       	rjmp	.-252    	; 0x1bec <LCD0_BF>
    1ce8:	08 95       	ret
    1cea:	60 e0       	ldi	r22, 0x00	; 0
    1cec:	70 e0       	ldi	r23, 0x00	; 0
    1cee:	80 ec       	ldi	r24, 0xC0	; 192
    1cf0:	82 0f       	add	r24, r18
    1cf2:	3d de       	rcall	.-902    	; 0x196e <LCD0_write>
    1cf4:	7b cf       	rjmp	.-266    	; 0x1bec <LCD0_BF>
    1cf6:	08 95       	ret
    1cf8:	60 e0       	ldi	r22, 0x00	; 0
    1cfa:	70 e0       	ldi	r23, 0x00	; 0
    1cfc:	84 e9       	ldi	r24, 0x94	; 148
    1cfe:	82 0f       	add	r24, r18
    1d00:	36 de       	rcall	.-916    	; 0x196e <LCD0_write>
    1d02:	74 cf       	rjmp	.-280    	; 0x1bec <LCD0_BF>
    1d04:	08 95       	ret
    1d06:	60 e0       	ldi	r22, 0x00	; 0
    1d08:	70 e0       	ldi	r23, 0x00	; 0
    1d0a:	84 ed       	ldi	r24, 0xD4	; 212
    1d0c:	82 0f       	add	r24, r18
    1d0e:	2f de       	rcall	.-930    	; 0x196e <LCD0_write>
    1d10:	6d cf       	rjmp	.-294    	; 0x1bec <LCD0_BF>
    1d12:	08 95       	ret

00001d14 <LCD0_clear>:
    1d14:	60 e0       	ldi	r22, 0x00	; 0
    1d16:	70 e0       	ldi	r23, 0x00	; 0
    1d18:	81 e0       	ldi	r24, 0x01	; 1
    1d1a:	29 de       	rcall	.-942    	; 0x196e <LCD0_write>
    1d1c:	87 ee       	ldi	r24, 0xE7	; 231
    1d1e:	97 e1       	ldi	r25, 0x17	; 23
    1d20:	01 97       	sbiw	r24, 0x01	; 1
    1d22:	f1 f7       	brne	.-4      	; 0x1d20 <LCD0_clear+0xc>
    1d24:	00 c0       	rjmp	.+0      	; 0x1d26 <LCD0_clear+0x12>
    1d26:	00 00       	nop
    1d28:	08 95       	ret

00001d2a <LCD0_inic>:
	return lcd0;
}
void LCD0_inic(void)
{
	//LCD INIC
	*lcd0_DDR=(1<<RS)|(1<<RW)|(1<<EN)|(0<<NC);
    1d2a:	e0 91 5a 03 	lds	r30, 0x035A	; 0x80035a <lcd0_DDR>
    1d2e:	f0 91 5b 03 	lds	r31, 0x035B	; 0x80035b <lcd0_DDR+0x1>
    1d32:	87 e0       	ldi	r24, 0x07	; 7
    1d34:	80 83       	st	Z, r24
	*lcd0_PORT=(1<<NC);
    1d36:	e0 91 5d 03 	lds	r30, 0x035D	; 0x80035d <lcd0_PORT>
    1d3a:	f0 91 5e 03 	lds	r31, 0x035E	; 0x80035e <lcd0_PORT+0x1>
    1d3e:	88 e0       	ldi	r24, 0x08	; 8
    1d40:	80 83       	st	Z, r24
    1d42:	2f ef       	ldi	r18, 0xFF	; 255
    1d44:	83 ef       	ldi	r24, 0xF3	; 243
    1d46:	91 e0       	ldi	r25, 0x01	; 1
    1d48:	21 50       	subi	r18, 0x01	; 1
    1d4a:	80 40       	sbci	r24, 0x00	; 0
    1d4c:	90 40       	sbci	r25, 0x00	; 0
    1d4e:	e1 f7       	brne	.-8      	; 0x1d48 <LCD0_inic+0x1e>
    1d50:	00 c0       	rjmp	.+0      	; 0x1d52 <LCD0_inic+0x28>
    1d52:	00 00       	nop
	/***INICIALIZACAO LCD**datasheet*/
	_delay_ms(40);
	LCD0_write(0x33,INST); //function set
    1d54:	60 e0       	ldi	r22, 0x00	; 0
    1d56:	70 e0       	ldi	r23, 0x00	; 0
    1d58:	83 e3       	ldi	r24, 0x33	; 51
    1d5a:	09 de       	rcall	.-1006   	; 0x196e <LCD0_write>
	#else
		//round up by default
		__ticks_dc = (uint32_t)(ceil(fabs(__tmp)));
	#endif

	__builtin_avr_delay_cycles(__ticks_dc);
    1d5c:	20 ed       	ldi	r18, 0xD0	; 208
    1d5e:	2a 95       	dec	r18
    1d60:	f1 f7       	brne	.-4      	; 0x1d5e <LCD0_inic+0x34>
	_delay_us(39);
	LCD0_write(0x33,INST); //function set
    1d62:	60 e0       	ldi	r22, 0x00	; 0
    1d64:	70 e0       	ldi	r23, 0x00	; 0
    1d66:	83 e3       	ldi	r24, 0x33	; 51
    1d68:	02 de       	rcall	.-1020   	; 0x196e <LCD0_write>
    1d6a:	80 ed       	ldi	r24, 0xD0	; 208
    1d6c:	8a 95       	dec	r24
    1d6e:	f1 f7       	brne	.-4      	; 0x1d6c <LCD0_inic+0x42>
	_delay_us(39);
	LCD0_write(0x2B,INST); //function set
    1d70:	60 e0       	ldi	r22, 0x00	; 0
    1d72:	70 e0       	ldi	r23, 0x00	; 0
    1d74:	8b e2       	ldi	r24, 0x2B	; 43
    1d76:	fb dd       	rcall	.-1034   	; 0x196e <LCD0_write>
    1d78:	95 ec       	ldi	r25, 0xC5	; 197
    1d7a:	9a 95       	dec	r25
    1d7c:	f1 f7       	brne	.-4      	; 0x1d7a <LCD0_inic+0x50>
    1d7e:	00 00       	nop
	_delay_us(37);
	LCD0_write(0x0C,INST);// display on/off control
    1d80:	60 e0       	ldi	r22, 0x00	; 0
    1d82:	70 e0       	ldi	r23, 0x00	; 0
    1d84:	8c e0       	ldi	r24, 0x0C	; 12
    1d86:	f3 dd       	rcall	.-1050   	; 0x196e <LCD0_write>
    1d88:	25 ec       	ldi	r18, 0xC5	; 197
    1d8a:	2a 95       	dec	r18
    1d8c:	f1 f7       	brne	.-4      	; 0x1d8a <LCD0_inic+0x60>
	_delay_us(37);
	LCD0_write(0x01,INST);// clear display
    1d8e:	00 00       	nop
    1d90:	60 e0       	ldi	r22, 0x00	; 0
    1d92:	70 e0       	ldi	r23, 0x00	; 0
    1d94:	81 e0       	ldi	r24, 0x01	; 1
    1d96:	eb dd       	rcall	.-1066   	; 0x196e <LCD0_write>
	#else
		//round up by default
		__ticks_dc = (uint32_t)(ceil(fabs(__tmp)));
	#endif

	__builtin_avr_delay_cycles(__ticks_dc);
    1d98:	87 ee       	ldi	r24, 0xE7	; 231
    1d9a:	97 e1       	ldi	r25, 0x17	; 23
    1d9c:	01 97       	sbiw	r24, 0x01	; 1
    1d9e:	f1 f7       	brne	.-4      	; 0x1d9c <LCD0_inic+0x72>
    1da0:	00 c0       	rjmp	.+0      	; 0x1da2 <LCD0_inic+0x78>
	_delay_ms(1.53);
	LCD0_write(0x06,INST);// entry mode set (crazy settings)
    1da2:	00 00       	nop
    1da4:	60 e0       	ldi	r22, 0x00	; 0
    1da6:	70 e0       	ldi	r23, 0x00	; 0
    1da8:	86 e0       	ldi	r24, 0x06	; 6
    1daa:	e1 dd       	rcall	.-1086   	; 0x196e <LCD0_write>
	#else
		//round up by default
		__ticks_dc = (uint32_t)(ceil(fabs(__tmp)));
	#endif

	__builtin_avr_delay_cycles(__ticks_dc);
    1dac:	95 ec       	ldi	r25, 0xC5	; 197
    1dae:	9a 95       	dec	r25
    1db0:	f1 f7       	brne	.-4      	; 0x1dae <LCD0_inic+0x84>
    1db2:	00 00       	nop
    1db4:	08 95       	ret

00001db6 <LCD0enable>:
void LCD1_strobe(unsigned int num);
void LCD1_reboot(void);
unsigned int LCD_ticks(unsigned int num);
/***Procedure & Function***/
LCD0 LCD0enable(volatile uint8_t *ddr, volatile uint8_t *pin, volatile uint8_t *port)
{
    1db6:	1f 93       	push	r17
    1db8:	cf 93       	push	r28
    1dba:	df 93       	push	r29
    1dbc:	ec 01       	movw	r28, r24
	//LOCAL VARIABLES
	uint8_t tSREG;
	tSREG=SREG;
    1dbe:	1f b7       	in	r17, 0x3f	; 63
	SREG&=~(1<<GLOBAL_INTERRUPT_ENABLE);
    1dc0:	8f b7       	in	r24, 0x3f	; 63
    1dc2:	8f 77       	andi	r24, 0x7F	; 127
    1dc4:	8f bf       	out	0x3f, r24	; 63
	//ALLOCAÇÂO MEMORIA PARA Estrutura
	LCD0 lcd0;
	//import parametros
	lcd0_DDR=ddr;
    1dc6:	70 93 5b 03 	sts	0x035B, r23	; 0x80035b <lcd0_DDR+0x1>
    1dca:	60 93 5a 03 	sts	0x035A, r22	; 0x80035a <lcd0_DDR>
	lcd0_PIN=pin;
    1dce:	50 93 54 03 	sts	0x0354, r21	; 0x800354 <lcd0_PIN+0x1>
    1dd2:	40 93 53 03 	sts	0x0353, r20	; 0x800353 <lcd0_PIN>
	lcd0_PORT=port;
    1dd6:	30 93 5e 03 	sts	0x035E, r19	; 0x80035e <lcd0_PORT+0x1>
    1dda:	20 93 5d 03 	sts	0x035D, r18	; 0x80035d <lcd0_PORT>
	//inic variables
	*lcd0_DDR=0x00;
    1dde:	fb 01       	movw	r30, r22
    1de0:	10 82       	st	Z, r1
	*lcd0_PORT=0xFF;
    1de2:	e0 91 5d 03 	lds	r30, 0x035D	; 0x80035d <lcd0_PORT>
    1de6:	f0 91 5e 03 	lds	r31, 0x035E	; 0x80035e <lcd0_PORT+0x1>
    1dea:	8f ef       	ldi	r24, 0xFF	; 255
    1dec:	80 83       	st	Z, r24
	lcd0_detect=*lcd0_PIN & (1<<NC);
    1dee:	e0 91 53 03 	lds	r30, 0x0353	; 0x800353 <lcd0_PIN>
    1df2:	f0 91 54 03 	lds	r31, 0x0354	; 0x800354 <lcd0_PIN+0x1>
    1df6:	80 81       	ld	r24, Z
    1df8:	88 70       	andi	r24, 0x08	; 8
    1dfa:	80 93 5c 03 	sts	0x035C, r24	; 0x80035c <lcd0_detect>
	lcd0.hspace=LCD0_hspace;
	lcd0.clear=LCD0_clear;
	lcd0.gotoxy=LCD0_gotoxy;
	lcd0.reboot=LCD0_reboot;
	//LCD INIC
	LCD0_inic();
    1dfe:	95 df       	rcall	.-214    	; 0x1d2a <LCD0_inic>
	SREG=tSREG;
    1e00:	1f bf       	out	0x3f, r17	; 63
	//
	return lcd0;
    1e02:	87 eb       	ldi	r24, 0xB7	; 183
    1e04:	9c e0       	ldi	r25, 0x0C	; 12
    1e06:	99 83       	std	Y+1, r25	; 0x01
    1e08:	88 83       	st	Y, r24
    1e0a:	8b e7       	ldi	r24, 0x7B	; 123
    1e0c:	9d e0       	ldi	r25, 0x0D	; 13
    1e0e:	9b 83       	std	Y+3, r25	; 0x03
    1e10:	8a 83       	std	Y+2, r24	; 0x02
    1e12:	86 ef       	ldi	r24, 0xF6	; 246
    1e14:	9d e0       	ldi	r25, 0x0D	; 13
    1e16:	9d 83       	std	Y+5, r25	; 0x05
    1e18:	8c 83       	std	Y+4, r24	; 0x04
    1e1a:	88 e0       	ldi	r24, 0x08	; 8
    1e1c:	9e e0       	ldi	r25, 0x0E	; 14
    1e1e:	9f 83       	std	Y+7, r25	; 0x07
    1e20:	8e 83       	std	Y+6, r24	; 0x06
    1e22:	8d e0       	ldi	r24, 0x0D	; 13
    1e24:	9e e0       	ldi	r25, 0x0E	; 14
    1e26:	99 87       	std	Y+9, r25	; 0x09
    1e28:	88 87       	std	Y+8, r24	; 0x08
    1e2a:	86 e1       	ldi	r24, 0x16	; 22
    1e2c:	9e e0       	ldi	r25, 0x0E	; 14
    1e2e:	9b 87       	std	Y+11, r25	; 0x0b
    1e30:	8a 87       	std	Y+10, r24	; 0x0a
    1e32:	87 e2       	ldi	r24, 0x27	; 39
    1e34:	9e e0       	ldi	r25, 0x0E	; 14
    1e36:	9d 87       	std	Y+13, r25	; 0x0d
    1e38:	8c 87       	std	Y+12, r24	; 0x0c
    1e3a:	86 e5       	ldi	r24, 0x56	; 86
    1e3c:	9e e0       	ldi	r25, 0x0E	; 14
    1e3e:	9f 87       	std	Y+15, r25	; 0x0f
    1e40:	8e 87       	std	Y+14, r24	; 0x0e
    1e42:	8a e8       	ldi	r24, 0x8A	; 138
    1e44:	9e e0       	ldi	r25, 0x0E	; 14
    1e46:	99 8b       	std	Y+17, r25	; 0x11
    1e48:	88 8b       	std	Y+16, r24	; 0x10
    1e4a:	83 e6       	ldi	r24, 0x63	; 99
    1e4c:	9e e0       	ldi	r25, 0x0E	; 14
    1e4e:	9b 8b       	std	Y+19, r25	; 0x13
    1e50:	8a 8b       	std	Y+18, r24	; 0x12
    1e52:	82 e3       	ldi	r24, 0x32	; 50
    1e54:	9f e0       	ldi	r25, 0x0F	; 15
    1e56:	9d 8b       	std	Y+21, r25	; 0x15
    1e58:	8c 8b       	std	Y+20, r24	; 0x14
}
    1e5a:	ce 01       	movw	r24, r28
    1e5c:	df 91       	pop	r29
    1e5e:	cf 91       	pop	r28
    1e60:	1f 91       	pop	r17
    1e62:	08 95       	ret

00001e64 <LCD0_reboot>:
	*lcd0_PORT|=(1<<EN);
	LCD_ticks(num);
	*lcd0_PORT&=~(1<<EN);
}
void LCD0_reboot(void)
{
    1e64:	cf 93       	push	r28
	//low high detect pin NC
	uint8_t i;
	uint8_t tmp;
	tmp=*lcd0_PIN & (1<<NC);
    1e66:	e0 91 53 03 	lds	r30, 0x0353	; 0x800353 <lcd0_PIN>
    1e6a:	f0 91 54 03 	lds	r31, 0x0354	; 0x800354 <lcd0_PIN+0x1>
    1e6e:	c0 81       	ld	r28, Z
    1e70:	c8 70       	andi	r28, 0x08	; 8
	i=tmp^lcd0_detect;
    1e72:	80 91 5c 03 	lds	r24, 0x035C	; 0x80035c <lcd0_detect>
    1e76:	8c 27       	eor	r24, r28
	i&=tmp;
	if(i)
    1e78:	8c 23       	and	r24, r28
    1e7a:	09 f0       	breq	.+2      	; 0x1e7e <LCD0_reboot+0x1a>
		LCD0_inic();
    1e7c:	56 df       	rcall	.-340    	; 0x1d2a <LCD0_inic>
	lcd0_detect=tmp;
    1e7e:	c0 93 5c 03 	sts	0x035C, r28	; 0x80035c <lcd0_detect>
}
    1e82:	cf 91       	pop	r28
    1e84:	08 95       	ret

00001e86 <ZNPID_set_kc>:
	return (value_1 + value_2);
}
float product(float value_1, float value_2)
{
	return (value_1 * value_2);
}
    1e86:	fc 01       	movw	r30, r24
    1e88:	40 83       	st	Z, r20
    1e8a:	51 83       	std	Z+1, r21	; 0x01
    1e8c:	62 83       	std	Z+2, r22	; 0x02
    1e8e:	73 83       	std	Z+3, r23	; 0x03
    1e90:	08 95       	ret

00001e92 <ZNPID_set_ki>:
    1e92:	fc 01       	movw	r30, r24
    1e94:	44 83       	std	Z+4, r20	; 0x04
    1e96:	55 83       	std	Z+5, r21	; 0x05
    1e98:	66 83       	std	Z+6, r22	; 0x06
    1e9a:	77 83       	std	Z+7, r23	; 0x07
    1e9c:	08 95       	ret

00001e9e <ZNPID_set_kd>:
    1e9e:	fc 01       	movw	r30, r24
    1ea0:	40 87       	std	Z+8, r20	; 0x08
    1ea2:	51 87       	std	Z+9, r21	; 0x09
    1ea4:	62 87       	std	Z+10, r22	; 0x0a
    1ea6:	73 87       	std	Z+11, r23	; 0x0b
    1ea8:	08 95       	ret

00001eaa <ZNPID_set_SP>:
    1eaa:	fc 01       	movw	r30, r24
    1eac:	40 a3       	std	Z+32, r20	; 0x20
    1eae:	51 a3       	std	Z+33, r21	; 0x21
    1eb0:	62 a3       	std	Z+34, r22	; 0x22
    1eb2:	73 a3       	std	Z+35, r23	; 0x23
    1eb4:	08 95       	ret

00001eb6 <ZNPIDenable>:
    1eb6:	fc 01       	movw	r30, r24
    1eb8:	9f b7       	in	r25, 0x3f	; 63
    1eba:	8f b7       	in	r24, 0x3f	; 63
    1ebc:	8f 77       	andi	r24, 0x7F	; 127
    1ebe:	8f bf       	out	0x3f, r24	; 63
    1ec0:	9f bf       	out	0x3f, r25	; 63
    1ec2:	80 e0       	ldi	r24, 0x00	; 0
    1ec4:	90 e0       	ldi	r25, 0x00	; 0
    1ec6:	a0 e8       	ldi	r26, 0x80	; 128
    1ec8:	bf e3       	ldi	r27, 0x3F	; 63
    1eca:	80 83       	st	Z, r24
    1ecc:	91 83       	std	Z+1, r25	; 0x01
    1ece:	a2 83       	std	Z+2, r26	; 0x02
    1ed0:	b3 83       	std	Z+3, r27	; 0x03
    1ed2:	14 82       	std	Z+4, r1	; 0x04
    1ed4:	15 82       	std	Z+5, r1	; 0x05
    1ed6:	16 82       	std	Z+6, r1	; 0x06
    1ed8:	17 82       	std	Z+7, r1	; 0x07
    1eda:	10 86       	std	Z+8, r1	; 0x08
    1edc:	11 86       	std	Z+9, r1	; 0x09
    1ede:	12 86       	std	Z+10, r1	; 0x0a
    1ee0:	13 86       	std	Z+11, r1	; 0x0b
    1ee2:	14 86       	std	Z+12, r1	; 0x0c
    1ee4:	15 86       	std	Z+13, r1	; 0x0d
    1ee6:	16 86       	std	Z+14, r1	; 0x0e
    1ee8:	17 86       	std	Z+15, r1	; 0x0f
    1eea:	10 8a       	std	Z+16, r1	; 0x10
    1eec:	11 8a       	std	Z+17, r1	; 0x11
    1eee:	12 8a       	std	Z+18, r1	; 0x12
    1ef0:	13 8a       	std	Z+19, r1	; 0x13
    1ef2:	14 8a       	std	Z+20, r1	; 0x14
    1ef4:	15 8a       	std	Z+21, r1	; 0x15
    1ef6:	16 8a       	std	Z+22, r1	; 0x16
    1ef8:	17 8a       	std	Z+23, r1	; 0x17
    1efa:	10 8e       	std	Z+24, r1	; 0x18
    1efc:	11 8e       	std	Z+25, r1	; 0x19
    1efe:	12 8e       	std	Z+26, r1	; 0x1a
    1f00:	13 8e       	std	Z+27, r1	; 0x1b
    1f02:	14 8e       	std	Z+28, r1	; 0x1c
    1f04:	15 8e       	std	Z+29, r1	; 0x1d
    1f06:	16 8e       	std	Z+30, r1	; 0x1e
    1f08:	17 8e       	std	Z+31, r1	; 0x1f
    1f0a:	10 a2       	std	Z+32, r1	; 0x20
    1f0c:	11 a2       	std	Z+33, r1	; 0x21
    1f0e:	12 a2       	std	Z+34, r1	; 0x22
    1f10:	13 a2       	std	Z+35, r1	; 0x23
    1f12:	14 a2       	std	Z+36, r1	; 0x24
    1f14:	15 a2       	std	Z+37, r1	; 0x25
    1f16:	16 a2       	std	Z+38, r1	; 0x26
    1f18:	17 a2       	std	Z+39, r1	; 0x27
    1f1a:	10 a6       	std	Z+40, r1	; 0x28
    1f1c:	11 a6       	std	Z+41, r1	; 0x29
    1f1e:	12 a6       	std	Z+42, r1	; 0x2a
    1f20:	13 a6       	std	Z+43, r1	; 0x2b
    1f22:	83 e4       	ldi	r24, 0x43	; 67
    1f24:	9f e0       	ldi	r25, 0x0F	; 15
    1f26:	95 a7       	std	Z+45, r25	; 0x2d
    1f28:	84 a7       	std	Z+44, r24	; 0x2c
    1f2a:	89 e4       	ldi	r24, 0x49	; 73
    1f2c:	9f e0       	ldi	r25, 0x0F	; 15
    1f2e:	97 a7       	std	Z+47, r25	; 0x2f
    1f30:	86 a7       	std	Z+46, r24	; 0x2e
    1f32:	8f e4       	ldi	r24, 0x4F	; 79
    1f34:	9f e0       	ldi	r25, 0x0F	; 15
    1f36:	91 ab       	std	Z+49, r25	; 0x31
    1f38:	80 ab       	std	Z+48, r24	; 0x30
    1f3a:	85 e5       	ldi	r24, 0x55	; 85
    1f3c:	9f e0       	ldi	r25, 0x0F	; 15
    1f3e:	93 ab       	std	Z+51, r25	; 0x33
    1f40:	82 ab       	std	Z+50, r24	; 0x32
    1f42:	85 ee       	ldi	r24, 0xE5	; 229
    1f44:	9f e0       	ldi	r25, 0x0F	; 15
    1f46:	95 ab       	std	Z+53, r25	; 0x35
    1f48:	84 ab       	std	Z+52, r24	; 0x34
    1f4a:	cf 01       	movw	r24, r30
    1f4c:	08 95       	ret

00001f4e <integral>:
float integral(ZNPID* self, float PV, float timelapse)
{
    1f4e:	cf 92       	push	r12
    1f50:	df 92       	push	r13
    1f52:	ef 92       	push	r14
    1f54:	ff 92       	push	r15
    1f56:	0f 93       	push	r16
    1f58:	1f 93       	push	r17
    1f5a:	cf 93       	push	r28
    1f5c:	df 93       	push	r29
    1f5e:	ec 01       	movw	r28, r24
    1f60:	68 01       	movw	r12, r16
    1f62:	79 01       	movw	r14, r18
	tmp=product(sum(delta(self->SetPoint, PV), self->Err_past), timelapse);
	tmp/=2;
    1f64:	9a 01       	movw	r18, r20
    1f66:	ab 01       	movw	r20, r22
    1f68:	68 a1       	ldd	r22, Y+32	; 0x20
    1f6a:	79 a1       	ldd	r23, Y+33	; 0x21
    1f6c:	8a a1       	ldd	r24, Y+34	; 0x22
    1f6e:	9b a1       	ldd	r25, Y+35	; 0x23
    1f70:	0e 94 52 19 	call	0x32a4	; 0x32a4 <__subsf3>
    1f74:	2c 85       	ldd	r18, Y+12	; 0x0c
    1f76:	3d 85       	ldd	r19, Y+13	; 0x0d
    1f78:	4e 85       	ldd	r20, Y+14	; 0x0e
    1f7a:	5f 85       	ldd	r21, Y+15	; 0x0f
    1f7c:	0e 94 53 19 	call	0x32a6	; 0x32a6 <__addsf3>
    1f80:	a7 01       	movw	r20, r14
    1f82:	96 01       	movw	r18, r12
    1f84:	0e 94 0a 1b 	call	0x3614	; 0x3614 <__mulsf3>
    1f88:	20 e0       	ldi	r18, 0x00	; 0
    1f8a:	30 e0       	ldi	r19, 0x00	; 0
    1f8c:	40 e0       	ldi	r20, 0x00	; 0
    1f8e:	5f e3       	ldi	r21, 0x3F	; 63
    1f90:	0e 94 0a 1b 	call	0x3614	; 0x3614 <__mulsf3>
    1f94:	60 93 82 03 	sts	0x0382, r22	; 0x800382 <tmp>
    1f98:	70 93 83 03 	sts	0x0383, r23	; 0x800383 <tmp+0x1>
    1f9c:	80 93 84 03 	sts	0x0384, r24	; 0x800384 <tmp+0x2>
    1fa0:	90 93 85 03 	sts	0x0385, r25	; 0x800385 <tmp+0x3>
	return (self->integral += tmp);
    1fa4:	28 8d       	ldd	r18, Y+24	; 0x18
    1fa6:	39 8d       	ldd	r19, Y+25	; 0x19
    1fa8:	4a 8d       	ldd	r20, Y+26	; 0x1a
    1faa:	5b 8d       	ldd	r21, Y+27	; 0x1b
    1fac:	0e 94 53 19 	call	0x32a6	; 0x32a6 <__addsf3>
    1fb0:	68 8f       	std	Y+24, r22	; 0x18
    1fb2:	79 8f       	std	Y+25, r23	; 0x19
    1fb4:	8a 8f       	std	Y+26, r24	; 0x1a
    1fb6:	9b 8f       	std	Y+27, r25	; 0x1b
}
    1fb8:	df 91       	pop	r29
    1fba:	cf 91       	pop	r28
    1fbc:	1f 91       	pop	r17
    1fbe:	0f 91       	pop	r16
    1fc0:	ff 90       	pop	r15
    1fc2:	ef 90       	pop	r14
    1fc4:	df 90       	pop	r13
    1fc6:	cf 90       	pop	r12
    1fc8:	08 95       	ret

00001fca <ZNPID_output>:
{
	tmp=delta(delta(self->SetPoint, PV), self->Err_past);
	return (self->derivative = (tmp / timelapse));
}
float ZNPID_output(ZNPID* self, float PV, float timelapse)
{
    1fca:	4f 92       	push	r4
    1fcc:	5f 92       	push	r5
    1fce:	6f 92       	push	r6
    1fd0:	7f 92       	push	r7
    1fd2:	8f 92       	push	r8
    1fd4:	9f 92       	push	r9
    1fd6:	af 92       	push	r10
    1fd8:	bf 92       	push	r11
    1fda:	cf 92       	push	r12
    1fdc:	df 92       	push	r13
    1fde:	ef 92       	push	r14
    1fe0:	ff 92       	push	r15
    1fe2:	0f 93       	push	r16
    1fe4:	1f 93       	push	r17
    1fe6:	cf 93       	push	r28
    1fe8:	df 93       	push	r29
    1fea:	00 d0       	rcall	.+0      	; 0x1fec <ZNPID_output+0x22>
    1fec:	00 d0       	rcall	.+0      	; 0x1fee <ZNPID_output+0x24>
    1fee:	00 d0       	rcall	.+0      	; 0x1ff0 <ZNPID_output+0x26>
    1ff0:	cd b7       	in	r28, 0x3d	; 61
    1ff2:	de b7       	in	r29, 0x3e	; 62
    1ff4:	9e 83       	std	Y+6, r25	; 0x06
    1ff6:	8d 83       	std	Y+5, r24	; 0x05
    1ff8:	6a 01       	movw	r12, r20
    1ffa:	7b 01       	movw	r14, r22
    1ffc:	48 01       	movw	r8, r16
    1ffe:	59 01       	movw	r10, r18
	float result;
	self->PV=PV;
    2000:	dc 01       	movw	r26, r24
    2002:	94 96       	adiw	r26, 0x24	; 36
    2004:	4d 93       	st	X+, r20
    2006:	5d 93       	st	X+, r21
    2008:	6d 93       	st	X+, r22
    200a:	7c 93       	st	X, r23
    200c:	97 97       	sbiw	r26, 0x27	; 39
{
	self->SetPoint=setpoint;
}
float delta(float present_value, float past_value)
{
	return (present_value - past_value);
    200e:	9a 01       	movw	r18, r20
    2010:	ab 01       	movw	r20, r22
    2012:	90 96       	adiw	r26, 0x20	; 32
    2014:	6d 91       	ld	r22, X+
    2016:	7d 91       	ld	r23, X+
    2018:	8d 91       	ld	r24, X+
    201a:	9c 91       	ld	r25, X
    201c:	93 97       	sbiw	r26, 0x23	; 35
    201e:	0e 94 52 19 	call	0x32a4	; 0x32a4 <__subsf3>
}
float ZNPID_output(ZNPID* self, float PV, float timelapse)
{
	float result;
	self->PV=PV;
	self->dy=delta(self->SetPoint, PV);
    2022:	ed 81       	ldd	r30, Y+5	; 0x05
    2024:	fe 81       	ldd	r31, Y+6	; 0x06
    2026:	60 8b       	std	Z+16, r22	; 0x10
    2028:	71 8b       	std	Z+17, r23	; 0x11
    202a:	82 8b       	std	Z+18, r24	; 0x12
    202c:	93 8b       	std	Z+19, r25	; 0x13
	self->dx=timelapse;
    202e:	84 8a       	std	Z+20, r8	; 0x14
    2030:	95 8a       	std	Z+21, r9	; 0x15
    2032:	a6 8a       	std	Z+22, r10	; 0x16
    2034:	b7 8a       	std	Z+23, r11	; 0x17
{
	return (value_1 + value_2);
}
float product(float value_1, float value_2)
{
	return (value_1 * value_2);
    2036:	20 81       	ld	r18, Z
    2038:	31 81       	ldd	r19, Z+1	; 0x01
    203a:	42 81       	ldd	r20, Z+2	; 0x02
    203c:	53 81       	ldd	r21, Z+3	; 0x03
    203e:	0e 94 0a 1b 	call	0x3614	; 0x3614 <__mulsf3>
    2042:	2b 01       	movw	r4, r22
    2044:	3c 01       	movw	r6, r24
	float result;
	self->PV=PV;
	self->dy=delta(self->SetPoint, PV);
	self->dx=timelapse;
	result=product(self->kc, self->dy);
	tmp=product(self->ki, integral(self, PV, timelapse));
    2046:	95 01       	movw	r18, r10
    2048:	84 01       	movw	r16, r8
    204a:	b7 01       	movw	r22, r14
    204c:	a6 01       	movw	r20, r12
    204e:	8d 81       	ldd	r24, Y+5	; 0x05
    2050:	9e 81       	ldd	r25, Y+6	; 0x06
    2052:	7d df       	rcall	.-262    	; 0x1f4e <integral>
{
	return (present_value - past_value);
}
float sum(float value_1, float value_2)
{
	return (value_1 + value_2);
    2054:	ed 81       	ldd	r30, Y+5	; 0x05
    2056:	fe 81       	ldd	r31, Y+6	; 0x06
    2058:	24 81       	ldd	r18, Z+4	; 0x04
    205a:	35 81       	ldd	r19, Z+5	; 0x05
    205c:	46 81       	ldd	r20, Z+6	; 0x06
    205e:	57 81       	ldd	r21, Z+7	; 0x07
    2060:	0e 94 0a 1b 	call	0x3614	; 0x3614 <__mulsf3>
    2064:	a3 01       	movw	r20, r6
    2066:	92 01       	movw	r18, r4
    2068:	0e 94 53 19 	call	0x32a6	; 0x32a6 <__addsf3>
    206c:	2b 01       	movw	r4, r22
    206e:	3c 01       	movw	r6, r24
	return (self->integral += tmp);
}
float derivative(ZNPID* self, float PV, float timelapse)
{
	tmp=delta(delta(self->SetPoint, PV), self->Err_past);
	return (self->derivative = (tmp / timelapse));
    2070:	a7 01       	movw	r20, r14
    2072:	96 01       	movw	r18, r12
    2074:	ad 81       	ldd	r26, Y+5	; 0x05
    2076:	be 81       	ldd	r27, Y+6	; 0x06
    2078:	90 96       	adiw	r26, 0x20	; 32
    207a:	6d 91       	ld	r22, X+
    207c:	7d 91       	ld	r23, X+
    207e:	8d 91       	ld	r24, X+
    2080:	9c 91       	ld	r25, X
    2082:	93 97       	sbiw	r26, 0x23	; 35
    2084:	0e 94 52 19 	call	0x32a4	; 0x32a4 <__subsf3>
    2088:	ed 81       	ldd	r30, Y+5	; 0x05
    208a:	fe 81       	ldd	r31, Y+6	; 0x06
    208c:	24 85       	ldd	r18, Z+12	; 0x0c
    208e:	35 85       	ldd	r19, Z+13	; 0x0d
    2090:	46 85       	ldd	r20, Z+14	; 0x0e
    2092:	57 85       	ldd	r21, Z+15	; 0x0f
    2094:	0e 94 52 19 	call	0x32a4	; 0x32a4 <__subsf3>
    2098:	a5 01       	movw	r20, r10
    209a:	94 01       	movw	r18, r8
    209c:	0e 94 bb 19 	call	0x3376	; 0x3376 <__divsf3>
    20a0:	4b 01       	movw	r8, r22
    20a2:	5c 01       	movw	r10, r24
    20a4:	ad 81       	ldd	r26, Y+5	; 0x05
    20a6:	be 81       	ldd	r27, Y+6	; 0x06
    20a8:	5c 96       	adiw	r26, 0x1c	; 28
    20aa:	6d 93       	st	X+, r22
    20ac:	7d 93       	st	X+, r23
    20ae:	8d 93       	st	X+, r24
    20b0:	9c 93       	st	X, r25
    20b2:	5f 97       	sbiw	r26, 0x1f	; 31
{
	return (value_1 + value_2);
}
float product(float value_1, float value_2)
{
	return (value_1 * value_2);
    20b4:	18 96       	adiw	r26, 0x08	; 8
    20b6:	2d 91       	ld	r18, X+
    20b8:	3d 91       	ld	r19, X+
    20ba:	4d 91       	ld	r20, X+
    20bc:	5c 91       	ld	r21, X
    20be:	1b 97       	sbiw	r26, 0x0b	; 11
    20c0:	0e 94 0a 1b 	call	0x3614	; 0x3614 <__mulsf3>
    20c4:	9b 01       	movw	r18, r22
    20c6:	ac 01       	movw	r20, r24
	self->dy=delta(self->SetPoint, PV);
	self->dx=timelapse;
	result=product(self->kc, self->dy);
	tmp=product(self->ki, integral(self, PV, timelapse));
	result=sum(result, tmp);
	tmp=product(self->kd, derivative(self, PV, timelapse));
    20c8:	60 93 82 03 	sts	0x0382, r22	; 0x800382 <tmp>
    20cc:	70 93 83 03 	sts	0x0383, r23	; 0x800383 <tmp+0x1>
    20d0:	80 93 84 03 	sts	0x0384, r24	; 0x800384 <tmp+0x2>
    20d4:	90 93 85 03 	sts	0x0385, r25	; 0x800385 <tmp+0x3>
{
	return (present_value - past_value);
}
float sum(float value_1, float value_2)
{
	return (value_1 + value_2);
    20d8:	c3 01       	movw	r24, r6
    20da:	b2 01       	movw	r22, r4
    20dc:	0e 94 53 19 	call	0x32a6	; 0x32a6 <__addsf3>
    20e0:	6b 01       	movw	r12, r22
    20e2:	7c 01       	movw	r14, r24
	result=product(self->kc, self->dy);
	tmp=product(self->ki, integral(self, PV, timelapse));
	result=sum(result, tmp);
	tmp=product(self->kd, derivative(self, PV, timelapse));
	result=sum(result, tmp);
	self->Err_past = self->dy;
    20e4:	ed 81       	ldd	r30, Y+5	; 0x05
    20e6:	fe 81       	ldd	r31, Y+6	; 0x06
    20e8:	40 88       	ldd	r4, Z+16	; 0x10
    20ea:	51 88       	ldd	r5, Z+17	; 0x11
    20ec:	62 88       	ldd	r6, Z+18	; 0x12
    20ee:	73 88       	ldd	r7, Z+19	; 0x13
    20f0:	44 86       	std	Z+12, r4	; 0x0c
    20f2:	55 86       	std	Z+13, r5	; 0x0d
    20f4:	66 86       	std	Z+14, r6	; 0x0e
    20f6:	77 86       	std	Z+15, r7	; 0x0f
	self->OP=result;
    20f8:	60 a7       	std	Z+40, r22	; 0x28
    20fa:	71 a7       	std	Z+41, r23	; 0x29
    20fc:	82 a7       	std	Z+42, r24	; 0x2a
    20fe:	93 a7       	std	Z+43, r25	; 0x2b
	if(result > ZNPID_outMAX)
    2100:	20 e0       	ldi	r18, 0x00	; 0
    2102:	30 ec       	ldi	r19, 0xC0	; 192
    2104:	4f e7       	ldi	r20, 0x7F	; 127
    2106:	54 e4       	ldi	r21, 0x44	; 68
    2108:	0e 94 06 1b 	call	0x360c	; 0x360c <__gesf2>
    210c:	18 16       	cp	r1, r24
    210e:	bc f5       	brge	.+110    	; 0x217e <ZNPID_output+0x1b4>
		self->integral=ZNPID_outMAX - (self->dy * self->dx) - (self->derivative * self->dx * self->dx);
    2110:	ad 81       	ldd	r26, Y+5	; 0x05
    2112:	be 81       	ldd	r27, Y+6	; 0x06
    2114:	54 96       	adiw	r26, 0x14	; 20
    2116:	8d 91       	ld	r24, X+
    2118:	9d 91       	ld	r25, X+
    211a:	0d 90       	ld	r0, X+
    211c:	bc 91       	ld	r27, X
    211e:	a0 2d       	mov	r26, r0
    2120:	89 83       	std	Y+1, r24	; 0x01
    2122:	9a 83       	std	Y+2, r25	; 0x02
    2124:	ab 83       	std	Y+3, r26	; 0x03
    2126:	bc 83       	std	Y+4, r27	; 0x04
    2128:	9c 01       	movw	r18, r24
    212a:	ad 01       	movw	r20, r26
    212c:	c3 01       	movw	r24, r6
    212e:	b2 01       	movw	r22, r4
    2130:	0e 94 0a 1b 	call	0x3614	; 0x3614 <__mulsf3>
    2134:	9b 01       	movw	r18, r22
    2136:	ac 01       	movw	r20, r24
    2138:	60 e0       	ldi	r22, 0x00	; 0
    213a:	70 ec       	ldi	r23, 0xC0	; 192
    213c:	8f e7       	ldi	r24, 0x7F	; 127
    213e:	94 e4       	ldi	r25, 0x44	; 68
    2140:	0e 94 52 19 	call	0x32a4	; 0x32a4 <__subsf3>
    2144:	2b 01       	movw	r4, r22
    2146:	3c 01       	movw	r6, r24
    2148:	a5 01       	movw	r20, r10
    214a:	94 01       	movw	r18, r8
    214c:	69 81       	ldd	r22, Y+1	; 0x01
    214e:	7a 81       	ldd	r23, Y+2	; 0x02
    2150:	8b 81       	ldd	r24, Y+3	; 0x03
    2152:	9c 81       	ldd	r25, Y+4	; 0x04
    2154:	0e 94 0a 1b 	call	0x3614	; 0x3614 <__mulsf3>
    2158:	29 81       	ldd	r18, Y+1	; 0x01
    215a:	3a 81       	ldd	r19, Y+2	; 0x02
    215c:	4b 81       	ldd	r20, Y+3	; 0x03
    215e:	5c 81       	ldd	r21, Y+4	; 0x04
    2160:	0e 94 0a 1b 	call	0x3614	; 0x3614 <__mulsf3>
    2164:	9b 01       	movw	r18, r22
    2166:	ac 01       	movw	r20, r24
    2168:	c3 01       	movw	r24, r6
    216a:	b2 01       	movw	r22, r4
    216c:	0e 94 52 19 	call	0x32a4	; 0x32a4 <__subsf3>
    2170:	ed 81       	ldd	r30, Y+5	; 0x05
    2172:	fe 81       	ldd	r31, Y+6	; 0x06
    2174:	60 8f       	std	Z+24, r22	; 0x18
    2176:	71 8f       	std	Z+25, r23	; 0x19
    2178:	82 8f       	std	Z+26, r24	; 0x1a
    217a:	93 8f       	std	Z+27, r25	; 0x1b
    217c:	3e c0       	rjmp	.+124    	; 0x21fa <ZNPID_output+0x230>
	else if(result < ZNPID_outMIN)
    217e:	20 e0       	ldi	r18, 0x00	; 0
    2180:	30 ec       	ldi	r19, 0xC0	; 192
    2182:	4f e7       	ldi	r20, 0x7F	; 127
    2184:	54 ec       	ldi	r21, 0xC4	; 196
    2186:	c7 01       	movw	r24, r14
    2188:	b6 01       	movw	r22, r12
    218a:	0e 94 b7 19 	call	0x336e	; 0x336e <__cmpsf2>
    218e:	88 23       	and	r24, r24
    2190:	a4 f5       	brge	.+104    	; 0x21fa <ZNPID_output+0x230>
		self->integral=ZNPID_outMIN + (self->dy * self->dx) + (self->derivative * self->dx * self->dx);
    2192:	ad 81       	ldd	r26, Y+5	; 0x05
    2194:	be 81       	ldd	r27, Y+6	; 0x06
    2196:	54 96       	adiw	r26, 0x14	; 20
    2198:	8d 91       	ld	r24, X+
    219a:	9d 91       	ld	r25, X+
    219c:	0d 90       	ld	r0, X+
    219e:	bc 91       	ld	r27, X
    21a0:	a0 2d       	mov	r26, r0
    21a2:	89 83       	std	Y+1, r24	; 0x01
    21a4:	9a 83       	std	Y+2, r25	; 0x02
    21a6:	ab 83       	std	Y+3, r26	; 0x03
    21a8:	bc 83       	std	Y+4, r27	; 0x04
    21aa:	9c 01       	movw	r18, r24
    21ac:	ad 01       	movw	r20, r26
    21ae:	c3 01       	movw	r24, r6
    21b0:	b2 01       	movw	r22, r4
    21b2:	0e 94 0a 1b 	call	0x3614	; 0x3614 <__mulsf3>
    21b6:	20 e0       	ldi	r18, 0x00	; 0
    21b8:	30 ec       	ldi	r19, 0xC0	; 192
    21ba:	4f e7       	ldi	r20, 0x7F	; 127
    21bc:	54 e4       	ldi	r21, 0x44	; 68
    21be:	0e 94 52 19 	call	0x32a4	; 0x32a4 <__subsf3>
    21c2:	2b 01       	movw	r4, r22
    21c4:	3c 01       	movw	r6, r24
    21c6:	a5 01       	movw	r20, r10
    21c8:	94 01       	movw	r18, r8
    21ca:	69 81       	ldd	r22, Y+1	; 0x01
    21cc:	7a 81       	ldd	r23, Y+2	; 0x02
    21ce:	8b 81       	ldd	r24, Y+3	; 0x03
    21d0:	9c 81       	ldd	r25, Y+4	; 0x04
    21d2:	0e 94 0a 1b 	call	0x3614	; 0x3614 <__mulsf3>
    21d6:	29 81       	ldd	r18, Y+1	; 0x01
    21d8:	3a 81       	ldd	r19, Y+2	; 0x02
    21da:	4b 81       	ldd	r20, Y+3	; 0x03
    21dc:	5c 81       	ldd	r21, Y+4	; 0x04
    21de:	0e 94 0a 1b 	call	0x3614	; 0x3614 <__mulsf3>
    21e2:	9b 01       	movw	r18, r22
    21e4:	ac 01       	movw	r20, r24
    21e6:	c3 01       	movw	r24, r6
    21e8:	b2 01       	movw	r22, r4
    21ea:	0e 94 53 19 	call	0x32a6	; 0x32a6 <__addsf3>
    21ee:	ed 81       	ldd	r30, Y+5	; 0x05
    21f0:	fe 81       	ldd	r31, Y+6	; 0x06
    21f2:	60 8f       	std	Z+24, r22	; 0x18
    21f4:	71 8f       	std	Z+25, r23	; 0x19
    21f6:	82 8f       	std	Z+26, r24	; 0x1a
    21f8:	93 8f       	std	Z+27, r25	; 0x1b
	return result;
}
    21fa:	c7 01       	movw	r24, r14
    21fc:	b6 01       	movw	r22, r12
    21fe:	26 96       	adiw	r28, 0x06	; 6
    2200:	0f b6       	in	r0, 0x3f	; 63
    2202:	f8 94       	cli
    2204:	de bf       	out	0x3e, r29	; 62
    2206:	0f be       	out	0x3f, r0	; 63
    2208:	cd bf       	out	0x3d, r28	; 61
    220a:	df 91       	pop	r29
    220c:	cf 91       	pop	r28
    220e:	1f 91       	pop	r17
    2210:	0f 91       	pop	r16
    2212:	ff 90       	pop	r15
    2214:	ef 90       	pop	r14
    2216:	df 90       	pop	r13
    2218:	cf 90       	pop	r12
    221a:	bf 90       	pop	r11
    221c:	af 90       	pop	r10
    221e:	9f 90       	pop	r9
    2220:	8f 90       	pop	r8
    2222:	7f 90       	pop	r7
    2224:	6f 90       	pop	r6
    2226:	5f 90       	pop	r5
    2228:	4f 90       	pop	r4
    222a:	08 95       	ret

0000222c <PORTINIT>:
** procedure and function
*/
void PORTINIT(void)
{
	//INPUT
	DDRF=0x00;
    222c:	10 92 61 00 	sts	0x0061, r1	; 0x800061 <__TEXT_REGION_LENGTH__+0x7e0061>
	PORTF=0x0F;
    2230:	8f e0       	ldi	r24, 0x0F	; 15
    2232:	80 93 62 00 	sts	0x0062, r24	; 0x800062 <__TEXT_REGION_LENGTH__+0x7e0062>
	//OUTPUT
	DDRB|=(1<<5) | (1<<6) | (1<<7);
    2236:	87 b3       	in	r24, 0x17	; 23
    2238:	80 6e       	ori	r24, 0xE0	; 224
    223a:	87 bb       	out	0x17, r24	; 23
    223c:	08 95       	ret

0000223e <main>:
** Header
*/
void PORTINIT();
/****MAIN****/
int main(void)
{
    223e:	cf 93       	push	r28
    2240:	df 93       	push	r29
    2242:	cd b7       	in	r28, 0x3d	; 61
    2244:	de b7       	in	r29, 0x3e	; 62
    2246:	cb 5d       	subi	r28, 0xDB	; 219
    2248:	d1 09       	sbc	r29, r1
    224a:	0f b6       	in	r0, 0x3f	; 63
    224c:	f8 94       	cli
    224e:	de bf       	out	0x3e, r29	; 62
    2250:	0f be       	out	0x3f, r0	; 63
    2252:	cd bf       	out	0x3d, r28	; 61
	PORTINIT(); // Inic Ports
    2254:	eb df       	rcall	.-42     	; 0x222c <PORTINIT>
	/***INICIALIZE OBJECTS***/
	function= FUNCenable(); // Function Library
    2256:	ce 01       	movw	r24, r28
    2258:	8e 57       	subi	r24, 0x7E	; 126
    225a:	9f 4f       	sbci	r25, 0xFF	; 255
    225c:	d3 d8       	rcall	.-3674   	; 0x1404 <FUNCenable>
    225e:	8a e4       	ldi	r24, 0x4A	; 74
    2260:	fe 01       	movw	r30, r28
    2262:	ee 57       	subi	r30, 0x7E	; 126
    2264:	ff 4f       	sbci	r31, 0xFF	; 255
    2266:	ac e8       	ldi	r26, 0x8C	; 140
    2268:	b3 e0       	ldi	r27, 0x03	; 3
    226a:	01 90       	ld	r0, Z+
    226c:	0d 92       	st	X+, r0
    226e:	8a 95       	dec	r24
    2270:	e1 f7       	brne	.-8      	; 0x226a <main+0x2c>
	LCD0 lcd0 = LCD0enable(&DDRA,&PINA,&PORTA); // LCD Display 4X20
    2272:	2b e3       	ldi	r18, 0x3B	; 59
    2274:	30 e0       	ldi	r19, 0x00	; 0
    2276:	49 e3       	ldi	r20, 0x39	; 57
    2278:	50 e0       	ldi	r21, 0x00	; 0
    227a:	6a e3       	ldi	r22, 0x3A	; 58
    227c:	70 e0       	ldi	r23, 0x00	; 0
    227e:	ce 01       	movw	r24, r28
    2280:	c8 96       	adiw	r24, 0x38	; 56
    2282:	99 dd       	rcall	.-1230   	; 0x1db6 <LCD0enable>
    2284:	26 96       	adiw	r28, 0x06	; 6
    2286:	8e ad       	ldd	r24, Y+62	; 0x3e
    2288:	9f ad       	ldd	r25, Y+63	; 0x3f
    228a:	26 97       	sbiw	r28, 0x06	; 6
    228c:	c2 53       	subi	r28, 0x32	; 50
    228e:	df 4f       	sbci	r29, 0xFF	; 255
    2290:	99 83       	std	Y+1, r25	; 0x01
    2292:	88 83       	st	Y, r24
    2294:	ce 5c       	subi	r28, 0xCE	; 206
    2296:	d0 40       	sbci	r29, 0x00	; 0
    2298:	2a 96       	adiw	r28, 0x0a	; 10
    229a:	ae ad       	ldd	r26, Y+62	; 0x3e
    229c:	bf ad       	ldd	r27, Y+63	; 0x3f
    229e:	2a 97       	sbiw	r28, 0x0a	; 10
    22a0:	cc 52       	subi	r28, 0x2C	; 44
    22a2:	df 4f       	sbci	r29, 0xFF	; 255
    22a4:	b9 83       	std	Y+1, r27	; 0x01
    22a6:	a8 83       	st	Y, r26
    22a8:	c4 5d       	subi	r28, 0xD4	; 212
    22aa:	d0 40       	sbci	r29, 0x00	; 0
    22ac:	2c 96       	adiw	r28, 0x0c	; 12
    22ae:	ee ad       	ldd	r30, Y+62	; 0x3e
    22b0:	ff ad       	ldd	r31, Y+63	; 0x3f
    22b2:	2c 97       	sbiw	r28, 0x0c	; 12
    22b4:	c0 53       	subi	r28, 0x30	; 48
    22b6:	df 4f       	sbci	r29, 0xFF	; 255
    22b8:	f9 83       	std	Y+1, r31	; 0x01
    22ba:	e8 83       	st	Y, r30
    22bc:	c0 5d       	subi	r28, 0xD0	; 208
    22be:	d0 40       	sbci	r29, 0x00	; 0
	KEYPAD keypad = KEYPADenable(&DDRE,&PINE,&PORTE); // Keyboard
    22c0:	43 e2       	ldi	r20, 0x23	; 35
    22c2:	50 e0       	ldi	r21, 0x00	; 0
    22c4:	61 e2       	ldi	r22, 0x21	; 33
    22c6:	70 e0       	ldi	r23, 0x00	; 0
    22c8:	82 e2       	ldi	r24, 0x22	; 34
    22ca:	90 e0       	ldi	r25, 0x00	; 0
    22cc:	f5 da       	rcall	.-2582   	; 0x18b8 <KEYPADenable>
    22ce:	2f 96       	adiw	r28, 0x0f	; 15
    22d0:	2f af       	std	Y+63, r18	; 0x3f
    22d2:	2f 97       	sbiw	r28, 0x0f	; 15
    22d4:	60 96       	adiw	r28, 0x10	; 16
    22d6:	3f af       	std	Y+63, r19	; 0x3f
    22d8:	60 97       	sbiw	r28, 0x10	; 16
    22da:	61 96       	adiw	r28, 0x11	; 17
    22dc:	4f af       	std	Y+63, r20	; 0x3f
    22de:	61 97       	sbiw	r28, 0x11	; 17
    22e0:	62 96       	adiw	r28, 0x12	; 18
    22e2:	5f af       	std	Y+63, r21	; 0x3f
    22e4:	62 97       	sbiw	r28, 0x12	; 18
    22e6:	63 96       	adiw	r28, 0x13	; 19
    22e8:	6f af       	std	Y+63, r22	; 0x3f
    22ea:	63 97       	sbiw	r28, 0x13	; 19
    22ec:	64 96       	adiw	r28, 0x14	; 20
    22ee:	7f af       	std	Y+63, r23	; 0x3f
    22f0:	64 97       	sbiw	r28, 0x14	; 20
    22f2:	65 96       	adiw	r28, 0x15	; 21
    22f4:	8f af       	std	Y+63, r24	; 0x3f
    22f6:	65 97       	sbiw	r28, 0x15	; 21
    22f8:	66 96       	adiw	r28, 0x16	; 22
    22fa:	9f af       	std	Y+63, r25	; 0x3f
    22fc:	66 97       	sbiw	r28, 0x16	; 22
    22fe:	64 96       	adiw	r28, 0x14	; 20
    2300:	8e ad       	ldd	r24, Y+62	; 0x3e
    2302:	9f ad       	ldd	r25, Y+63	; 0x3f
    2304:	64 97       	sbiw	r28, 0x14	; 20
    2306:	c4 53       	subi	r28, 0x34	; 52
    2308:	df 4f       	sbci	r29, 0xFF	; 255
    230a:	99 83       	std	Y+1, r25	; 0x01
    230c:	88 83       	st	Y, r24
    230e:	cc 5c       	subi	r28, 0xCC	; 204
    2310:	d0 40       	sbci	r29, 0x00	; 0
    2312:	66 96       	adiw	r28, 0x16	; 22
    2314:	ae ad       	ldd	r26, Y+62	; 0x3e
    2316:	bf ad       	ldd	r27, Y+63	; 0x3f
    2318:	66 97       	sbiw	r28, 0x16	; 22
    231a:	ce 52       	subi	r28, 0x2E	; 46
    231c:	df 4f       	sbci	r29, 0xFF	; 255
    231e:	b9 83       	std	Y+1, r27	; 0x01
    2320:	a8 83       	st	Y, r26
    2322:	c2 5d       	subi	r28, 0xD2	; 210
    2324:	d0 40       	sbci	r29, 0x00	; 0
	ANALOG analog = ANALOGenable(1, 128, 1, 0); // Channel 0 for Position
    2326:	1f 92       	push	r1
    2328:	1f 92       	push	r1
    232a:	1f 92       	push	r1
    232c:	81 e0       	ldi	r24, 0x01	; 1
    232e:	8f 93       	push	r24
    2330:	90 e8       	ldi	r25, 0x80	; 128
    2332:	9f 93       	push	r25
    2334:	8f 93       	push	r24
    2336:	0e 94 68 01 	call	0x2d0	; 0x2d0 <ANALOGenable>
    233a:	ca 52       	subi	r28, 0x2A	; 42
    233c:	df 4f       	sbci	r29, 0xFF	; 255
    233e:	68 83       	st	Y, r22
    2340:	79 83       	std	Y+1, r23	; 0x01
    2342:	8a 83       	std	Y+2, r24	; 0x02
    2344:	9b 83       	std	Y+3, r25	; 0x03
    2346:	c6 5d       	subi	r28, 0xD6	; 214
    2348:	d0 40       	sbci	r29, 0x00	; 0
	TIMER_COUNTER0 timer0 = TIMER_COUNTER0enable(2,2); // 1Hz to HC595
    234a:	42 e0       	ldi	r20, 0x02	; 2
    234c:	62 e0       	ldi	r22, 0x02	; 2
    234e:	ce 01       	movw	r24, r28
    2350:	8a 5a       	subi	r24, 0xAA	; 170
    2352:	9f 4f       	sbci	r25, 0xFF	; 255
    2354:	0e 94 88 03 	call	0x710	; 0x710 <TIMER_COUNTER0enable>
	TIMER_COUNTER1 timer1 = TIMER_COUNTER1enable(9,0); // PWM Positioning
    2358:	40 e0       	ldi	r20, 0x00	; 0
    235a:	69 e0       	ldi	r22, 0x09	; 9
    235c:	ce 01       	movw	r24, r28
    235e:	8a 59       	subi	r24, 0x9A	; 154
    2360:	9f 4f       	sbci	r25, 0xFF	; 255
    2362:	0e 94 ca 03 	call	0x794	; 0x794 <TIMER_COUNTER1enable>
    2366:	e0 96       	adiw	r28, 0x30	; 48
    2368:	ee ad       	ldd	r30, Y+62	; 0x3e
    236a:	ff ad       	ldd	r31, Y+63	; 0x3f
    236c:	e0 97       	sbiw	r28, 0x30	; 48
    236e:	c6 52       	subi	r28, 0x26	; 38
    2370:	df 4f       	sbci	r29, 0xFF	; 255
    2372:	f9 83       	std	Y+1, r31	; 0x01
    2374:	e8 83       	st	Y, r30
    2376:	ca 5d       	subi	r28, 0xDA	; 218
    2378:	d0 40       	sbci	r29, 0x00	; 0
	shift = HC595enable(&DDRG,&PORTG,2,0,1);
    237a:	01 e0       	ldi	r16, 0x01	; 1
    237c:	20 e0       	ldi	r18, 0x00	; 0
    237e:	42 e0       	ldi	r20, 0x02	; 2
    2380:	65 e6       	ldi	r22, 0x65	; 101
    2382:	70 e0       	ldi	r23, 0x00	; 0
    2384:	84 e6       	ldi	r24, 0x64	; 100
    2386:	90 e0       	ldi	r25, 0x00	; 0
    2388:	0e 94 05 01 	call	0x20a	; 0x20a <HC595enable>
    238c:	20 93 86 03 	sts	0x0386, r18	; 0x800386 <shift>
    2390:	30 93 87 03 	sts	0x0387, r19	; 0x800387 <shift+0x1>
    2394:	40 93 88 03 	sts	0x0388, r20	; 0x800388 <shift+0x2>
    2398:	50 93 89 03 	sts	0x0389, r21	; 0x800389 <shift+0x3>
    239c:	60 93 8a 03 	sts	0x038A, r22	; 0x80038a <shift+0x4>
    23a0:	70 93 8b 03 	sts	0x038B, r23	; 0x80038b <shift+0x5>
	pid_1 = ZNPIDenable();
    23a4:	ce 01       	movw	r24, r28
    23a6:	8e 57       	subi	r24, 0x7E	; 126
    23a8:	9f 4f       	sbci	r25, 0xFF	; 255
    23aa:	85 dd       	rcall	.-1270   	; 0x1eb6 <ZNPIDenable>
    23ac:	86 e3       	ldi	r24, 0x36	; 54
    23ae:	fe 01       	movw	r30, r28
    23b0:	ee 57       	subi	r30, 0x7E	; 126
    23b2:	ff 4f       	sbci	r31, 0xFF	; 255
    23b4:	ac ed       	ldi	r26, 0xDC	; 220
    23b6:	b3 e0       	ldi	r27, 0x03	; 3
    23b8:	01 90       	ld	r0, Z+
    23ba:	0d 92       	st	X+, r0
    23bc:	8a 95       	dec	r24
	pid_2 = ZNPIDenable();
    23be:	e1 f7       	brne	.-8      	; 0x23b8 <main+0x17a>
    23c0:	ce 01       	movw	r24, r28
    23c2:	8e 57       	subi	r24, 0x7E	; 126
    23c4:	9f 4f       	sbci	r25, 0xFF	; 255
    23c6:	77 dd       	rcall	.-1298   	; 0x1eb6 <ZNPIDenable>
    23c8:	86 e3       	ldi	r24, 0x36	; 54
    23ca:	fe 01       	movw	r30, r28
    23cc:	ee 57       	subi	r30, 0x7E	; 126
    23ce:	ff 4f       	sbci	r31, 0xFF	; 255
    23d0:	a2 e1       	ldi	r26, 0x12	; 18
    23d2:	b4 e0       	ldi	r27, 0x04	; 4
    23d4:	01 90       	ld	r0, Z+
    23d6:	0d 92       	st	X+, r0
    23d8:	8a 95       	dec	r24
    23da:	e1 f7       	brne	.-8      	; 0x23d4 <main+0x196>
	/******/
	char Menu='1'; // Main menu selector
	char str[6]="0"; // analog vector
    23dc:	ce 01       	movw	r24, r28
    23de:	8a 58       	subi	r24, 0x8A	; 138
    23e0:	9f 4f       	sbci	r25, 0xFF	; 255
    23e2:	fc 01       	movw	r30, r24
    23e4:	20 e3       	ldi	r18, 0x30	; 48
    23e6:	30 e0       	ldi	r19, 0x00	; 0
    23e8:	21 93       	st	Z+, r18
    23ea:	31 93       	st	Z+, r19
    23ec:	24 e0       	ldi	r18, 0x04	; 4
    23ee:	df 01       	movw	r26, r30
    23f0:	1d 92       	st	X+, r1
    23f2:	2a 95       	dec	r18
    23f4:	e9 f7       	brne	.-6      	; 0x23f0 <main+0x1b2>
	int16_t mvalue=90; // manual position reading
	int16_t m_value; // manual positioning
	char mstr[6]="90"; // manual position vector
    23f6:	29 e3       	ldi	r18, 0x39	; 57
    23f8:	30 e3       	ldi	r19, 0x30	; 48
    23fa:	ee 96       	adiw	r28, 0x3e	; 62
    23fc:	3f af       	std	Y+63, r19	; 0x3f
    23fe:	2e af       	std	Y+62, r18	; 0x3e
    2400:	ee 97       	sbiw	r28, 0x3e	; 62
    2402:	c2 58       	subi	r28, 0x82	; 130
    2404:	df 4f       	sbci	r29, 0xFF	; 255
    2406:	19 82       	std	Y+1, r1	; 0x01
    2408:	18 82       	st	Y, r1
    240a:	ce 57       	subi	r28, 0x7E	; 126
    240c:	d0 40       	sbci	r29, 0x00	; 0
    240e:	c0 58       	subi	r28, 0x80	; 128
    2410:	df 4f       	sbci	r29, 0xFF	; 255
    2412:	19 82       	std	Y+1, r1	; 0x01
    2414:	18 82       	st	Y, r1
    2416:	c0 58       	subi	r28, 0x80	; 128
    2418:	d0 40       	sbci	r29, 0x00	; 0
	ptr=str;
    241a:	90 93 7e 01 	sts	0x017E, r25	; 0x80017e <ptr+0x1>
    241e:	80 93 7d 01 	sts	0x017D, r24	; 0x80017d <ptr>
	uint8_t i=0, j=0;
	/***Parameters timers***/
	timer0.compare(249);
    2422:	6e 96       	adiw	r28, 0x1e	; 30
    2424:	ee ad       	ldd	r30, Y+62	; 0x3e
    2426:	ff ad       	ldd	r31, Y+63	; 0x3f
    2428:	6e 97       	sbiw	r28, 0x1e	; 30
    242a:	89 ef       	ldi	r24, 0xF9	; 249
    242c:	09 95       	icall
	timer0.start(64);
    242e:	a4 96       	adiw	r28, 0x24	; 36
    2430:	ee ad       	ldd	r30, Y+62	; 0x3e
    2432:	ff ad       	ldd	r31, Y+63	; 0x3f
    2434:	a4 97       	sbiw	r28, 0x24	; 36
    2436:	80 e4       	ldi	r24, 0x40	; 64
    2438:	90 e0       	ldi	r25, 0x00	; 0
    243a:	09 95       	icall
	timer1.compoutmodeB(2);
    243c:	aa 96       	adiw	r28, 0x2a	; 42
    243e:	ee ad       	ldd	r30, Y+62	; 0x3e
    2440:	ff ad       	ldd	r31, Y+63	; 0x3f
    2442:	aa 97       	sbiw	r28, 0x2a	; 42
    2444:	82 e0       	ldi	r24, 0x02	; 2
    2446:	09 95       	icall
	timer1.compareA(20000);
    2448:	ae 96       	adiw	r28, 0x2e	; 46
    244a:	ee ad       	ldd	r30, Y+62	; 0x3e
    244c:	ff ad       	ldd	r31, Y+63	; 0x3f
    244e:	ae 97       	sbiw	r28, 0x2e	; 46
    2450:	80 e2       	ldi	r24, 0x20	; 32
    2452:	9e e4       	ldi	r25, 0x4E	; 78
    2454:	09 95       	icall
	timer1.start(8);
    2456:	e4 96       	adiw	r28, 0x34	; 52
    2458:	ee ad       	ldd	r30, Y+62	; 0x3e
    245a:	ff ad       	ldd	r31, Y+63	; 0x3f
    245c:	e4 97       	sbiw	r28, 0x34	; 52
    245e:	88 e0       	ldi	r24, 0x08	; 8
    2460:	90 e0       	ldi	r25, 0x00	; 0
    2462:	09 95       	icall
	pid_1.set_kc(&pid_1, 1);
    2464:	0c ed       	ldi	r16, 0xDC	; 220
    2466:	13 e0       	ldi	r17, 0x03	; 3
    2468:	d8 01       	movw	r26, r16
    246a:	9c 96       	adiw	r26, 0x2c	; 44
    246c:	ed 91       	ld	r30, X+
    246e:	fc 91       	ld	r31, X
    2470:	9d 97       	sbiw	r26, 0x2d	; 45
    2472:	40 e0       	ldi	r20, 0x00	; 0
    2474:	50 e0       	ldi	r21, 0x00	; 0
    2476:	60 e8       	ldi	r22, 0x80	; 128
    2478:	7f e3       	ldi	r23, 0x3F	; 63
    247a:	c8 01       	movw	r24, r16
    247c:	09 95       	icall
	pid_1.set_kd(&pid_1, 0.2); //
    247e:	d8 01       	movw	r26, r16
    2480:	d0 96       	adiw	r26, 0x30	; 48
    2482:	ed 91       	ld	r30, X+
    2484:	fc 91       	ld	r31, X
    2486:	d1 97       	sbiw	r26, 0x31	; 49
    2488:	4d ec       	ldi	r20, 0xCD	; 205
    248a:	5c ec       	ldi	r21, 0xCC	; 204
    248c:	6c e4       	ldi	r22, 0x4C	; 76
    248e:	7e e3       	ldi	r23, 0x3E	; 62
    2490:	c8 01       	movw	r24, r16
    2492:	09 95       	icall
	pid_1.set_ki(&pid_1, 0.5); // will provoke overshoot, to much acceleration limit max value and minimum value.
    2494:	d8 01       	movw	r26, r16
    2496:	9e 96       	adiw	r26, 0x2e	; 46
    2498:	ed 91       	ld	r30, X+
    249a:	fc 91       	ld	r31, X
    249c:	9f 97       	sbiw	r26, 0x2f	; 47
    249e:	40 e0       	ldi	r20, 0x00	; 0
    24a0:	50 e0       	ldi	r21, 0x00	; 0
    24a2:	60 e0       	ldi	r22, 0x00	; 0
    24a4:	7f e3       	ldi	r23, 0x3F	; 63
    24a6:	c8 01       	movw	r24, r16
    24a8:	09 95       	icall
	pid_1.set_SP(&pid_1, 650);
    24aa:	d8 01       	movw	r26, r16
    24ac:	d2 96       	adiw	r26, 0x32	; 50
    24ae:	ed 91       	ld	r30, X+
    24b0:	fc 91       	ld	r31, X
    24b2:	d3 97       	sbiw	r26, 0x33	; 51
    24b4:	40 e0       	ldi	r20, 0x00	; 0
    24b6:	50 e8       	ldi	r21, 0x80	; 128
    24b8:	62 e2       	ldi	r22, 0x22	; 34
    24ba:	74 e4       	ldi	r23, 0x44	; 68
    24bc:	c8 01       	movw	r24, r16
    24be:	09 95       	icall
	/***Another one woopy ti dooo***/
	pid_2.set_kc(&pid_2, 0.5);
    24c0:	02 e1       	ldi	r16, 0x12	; 18
    24c2:	14 e0       	ldi	r17, 0x04	; 4
    24c4:	d8 01       	movw	r26, r16
    24c6:	9c 96       	adiw	r26, 0x2c	; 44
    24c8:	ed 91       	ld	r30, X+
    24ca:	fc 91       	ld	r31, X
    24cc:	9d 97       	sbiw	r26, 0x2d	; 45
    24ce:	40 e0       	ldi	r20, 0x00	; 0
    24d0:	50 e0       	ldi	r21, 0x00	; 0
    24d2:	60 e0       	ldi	r22, 0x00	; 0
    24d4:	7f e3       	ldi	r23, 0x3F	; 63
    24d6:	c8 01       	movw	r24, r16
    24d8:	09 95       	icall
	pid_2.set_kd(&pid_2, 1);
    24da:	d8 01       	movw	r26, r16
    24dc:	d0 96       	adiw	r26, 0x30	; 48
    24de:	ed 91       	ld	r30, X+
    24e0:	fc 91       	ld	r31, X
    24e2:	d1 97       	sbiw	r26, 0x31	; 49
    24e4:	40 e0       	ldi	r20, 0x00	; 0
    24e6:	50 e0       	ldi	r21, 0x00	; 0
    24e8:	60 e8       	ldi	r22, 0x80	; 128
    24ea:	7f e3       	ldi	r23, 0x3F	; 63
    24ec:	c8 01       	movw	r24, r16
    24ee:	09 95       	icall
	pid_2.set_ki(&pid_2, 0.01);
    24f0:	d8 01       	movw	r26, r16
    24f2:	9e 96       	adiw	r26, 0x2e	; 46
    24f4:	ed 91       	ld	r30, X+
    24f6:	fc 91       	ld	r31, X
    24f8:	9f 97       	sbiw	r26, 0x2f	; 47
    24fa:	4a e0       	ldi	r20, 0x0A	; 10
    24fc:	57 ed       	ldi	r21, 0xD7	; 215
    24fe:	63 e2       	ldi	r22, 0x23	; 35
    2500:	7c e3       	ldi	r23, 0x3C	; 60
    2502:	c8 01       	movw	r24, r16
    2504:	09 95       	icall
	pid_2.set_SP(&pid_2, 125);
    2506:	d8 01       	movw	r26, r16
    2508:	d2 96       	adiw	r26, 0x32	; 50
    250a:	ed 91       	ld	r30, X+
    250c:	fc 91       	ld	r31, X
    250e:	d3 97       	sbiw	r26, 0x33	; 51
    2510:	40 e0       	ldi	r20, 0x00	; 0
    2512:	50 e0       	ldi	r21, 0x00	; 0
    2514:	6a ef       	ldi	r22, 0xFA	; 250
    2516:	72 e4       	ldi	r23, 0x42	; 66
    2518:	c8 01       	movw	r24, r16
    251a:	09 95       	icall
	/**********/
	//TODO:: Please write your application code
	while(TRUE){
		/***PREAMBLE***/
		lcd0.reboot();
    251c:	2e 96       	adiw	r28, 0x0e	; 14
    251e:	ee ad       	ldd	r30, Y+62	; 0x3e
    2520:	ff ad       	ldd	r31, Y+63	; 0x3f
    2522:	2e 97       	sbiw	r28, 0x0e	; 14
    2524:	09 95       	icall
		keypad.read();
    2526:	62 96       	adiw	r28, 0x12	; 18
    2528:	2e ad       	ldd	r18, Y+62	; 0x3e
    252a:	3f ad       	ldd	r19, Y+63	; 0x3f
    252c:	62 97       	sbiw	r28, 0x12	; 18
    252e:	f9 01       	movw	r30, r18
    2530:	09 95       	icall
		//uartreceive=uart.read();
		/***Reading input***/
		lcd0.gotoxy(3,13);
    2532:	6d e0       	ldi	r22, 0x0D	; 13
    2534:	70 e0       	ldi	r23, 0x00	; 0
    2536:	83 e0       	ldi	r24, 0x03	; 3
    2538:	90 e0       	ldi	r25, 0x00	; 0
    253a:	c0 53       	subi	r28, 0x30	; 48
    253c:	df 4f       	sbci	r29, 0xFF	; 255
    253e:	e8 81       	ld	r30, Y
    2540:	f9 81       	ldd	r31, Y+1	; 0x01
    2542:	c0 5d       	subi	r28, 0xD0	; 208
    2544:	d0 40       	sbci	r29, 0x00	; 0
    2546:	09 95       	icall
		lcd0.putch(':');
    2548:	ee ad       	ldd	r30, Y+62	; 0x3e
    254a:	ff ad       	ldd	r31, Y+63	; 0x3f
    254c:	8a e3       	ldi	r24, 0x3A	; 58
    254e:	09 95       	icall
		lcd0.string_size(keypad.get().printstring,6);
    2550:	c4 53       	subi	r28, 0x34	; 52
    2552:	df 4f       	sbci	r29, 0xFF	; 255
    2554:	e8 81       	ld	r30, Y
    2556:	f9 81       	ldd	r31, Y+1	; 0x01
    2558:	cc 5c       	subi	r28, 0xCC	; 204
    255a:	d0 40       	sbci	r29, 0x00	; 0
    255c:	09 95       	icall
    255e:	3c ab       	std	Y+52, r19	; 0x34
    2560:	4d ab       	std	Y+53, r20	; 0x35
    2562:	66 e0       	ldi	r22, 0x06	; 6
    2564:	8c a9       	ldd	r24, Y+52	; 0x34
    2566:	9d a9       	ldd	r25, Y+53	; 0x35
    2568:	c2 53       	subi	r28, 0x32	; 50
    256a:	df 4f       	sbci	r29, 0xFF	; 255
    256c:	e8 81       	ld	r30, Y
    256e:	f9 81       	ldd	r31, Y+1	; 0x01
    2570:	ce 5c       	subi	r28, 0xCE	; 206
    2572:	d0 40       	sbci	r29, 0x00	; 0
    2574:	09 95       	icall
    2576:	0f 90       	pop	r0
    2578:	0f 90       	pop	r0
    257a:	0f 90       	pop	r0
    257c:	0f 90       	pop	r0
    257e:	0f 90       	pop	r0
    2580:	0f 90       	pop	r0
					lcd0.gotoxy(0,0);
					lcd0.string_size("Not being used",19);
					
					/***Play around***/
					for(i=0;i<8;i++){
						shift.bit(1);
    2582:	0f 2e       	mov	r0, r31
    2584:	f6 e8       	ldi	r31, 0x86	; 134
    2586:	8f 2e       	mov	r8, r31
    2588:	f3 e0       	ldi	r31, 0x03	; 3
    258a:	9f 2e       	mov	r9, r31
    258c:	f0 2d       	mov	r31, r0
							_delay_ms(repeat_1);
						}
					}
					for(j=0;j<10;j++){
						for(i=0;i<8;i++){
							shift.byte(~(7<<i));
    258e:	0f 2e       	mov	r0, r31
    2590:	f7 e0       	ldi	r31, 0x07	; 7
    2592:	6f 2e       	mov	r6, r31
    2594:	71 2c       	mov	r7, r1
    2596:	f0 2d       	mov	r31, r0
							_delay_ms(repeat_1);
						}
					}
					for(j=0;j<10;j++){
						for(i=0;i<8;i++){
							shift.byte(~(0x0F<<i));
    2598:	0f 2e       	mov	r0, r31
    259a:	ff e0       	ldi	r31, 0x0F	; 15
    259c:	2f 2e       	mov	r2, r31
    259e:	31 2c       	mov	r3, r1
    25a0:	f0 2d       	mov	r31, r0
		lcd0.string_size(keypad.get().printstring,6);
		/***ENTRY END***/
		switch(Menu){
			/***MENU 1***/
			case '1': // Main Program Menu
				if(!strcmp(keypad.get().string,"A")){Menu='2';keypad.flush();lcd0.clear();break;}
    25a2:	c4 53       	subi	r28, 0x34	; 52
    25a4:	df 4f       	sbci	r29, 0xFF	; 255
    25a6:	e8 81       	ld	r30, Y
    25a8:	f9 81       	ldd	r31, Y+1	; 0x01
    25aa:	cc 5c       	subi	r28, 0xCC	; 204
    25ac:	d0 40       	sbci	r29, 0x00	; 0
    25ae:	09 95       	icall
    25b0:	2e a7       	std	Y+46, r18	; 0x2e
    25b2:	3f a7       	std	Y+47, r19	; 0x2f
    25b4:	48 ab       	std	Y+48, r20	; 0x30
    25b6:	59 ab       	std	Y+49, r21	; 0x31
    25b8:	6a ab       	std	Y+50, r22	; 0x32
    25ba:	62 e1       	ldi	r22, 0x12	; 18
    25bc:	71 e0       	ldi	r23, 0x01	; 1
    25be:	89 a9       	ldd	r24, Y+49	; 0x31
    25c0:	9a a9       	ldd	r25, Y+50	; 0x32
    25c2:	0e 94 03 1c 	call	0x3806	; 0x3806 <strcmp>
    25c6:	89 2b       	or	r24, r25
    25c8:	79 f4       	brne	.+30     	; 0x25e8 <main+0x3aa>
    25ca:	ce 52       	subi	r28, 0x2E	; 46
    25cc:	df 4f       	sbci	r29, 0xFF	; 255
    25ce:	e8 81       	ld	r30, Y
    25d0:	f9 81       	ldd	r31, Y+1	; 0x01
    25d2:	c2 5d       	subi	r28, 0xD2	; 210
    25d4:	d0 40       	sbci	r29, 0x00	; 0
    25d6:	09 95       	icall
    25d8:	cc 52       	subi	r28, 0x2C	; 44
    25da:	df 4f       	sbci	r29, 0xFF	; 255
    25dc:	e8 81       	ld	r30, Y
    25de:	f9 81       	ldd	r31, Y+1	; 0x01
    25e0:	c4 5d       	subi	r28, 0xD4	; 212
    25e2:	d0 40       	sbci	r29, 0x00	; 0
    25e4:	09 95       	icall
    25e6:	7f c5       	rjmp	.+2814   	; 0x30e6 <main+0xea8>
				if(!strcmp(keypad.get().string,"B")){Menu='3';keypad.flush();lcd0.clear();break;}
    25e8:	c4 53       	subi	r28, 0x34	; 52
    25ea:	df 4f       	sbci	r29, 0xFF	; 255
    25ec:	e8 81       	ld	r30, Y
    25ee:	f9 81       	ldd	r31, Y+1	; 0x01
    25f0:	cc 5c       	subi	r28, 0xCC	; 204
    25f2:	d0 40       	sbci	r29, 0x00	; 0
    25f4:	09 95       	icall
    25f6:	29 a7       	std	Y+41, r18	; 0x29
    25f8:	3a a7       	std	Y+42, r19	; 0x2a
    25fa:	4b a7       	std	Y+43, r20	; 0x2b
    25fc:	5c a7       	std	Y+44, r21	; 0x2c
    25fe:	6d a7       	std	Y+45, r22	; 0x2d
    2600:	64 e1       	ldi	r22, 0x14	; 20
    2602:	71 e0       	ldi	r23, 0x01	; 1
    2604:	8c a5       	ldd	r24, Y+44	; 0x2c
    2606:	9d a5       	ldd	r25, Y+45	; 0x2d
    2608:	0e 94 03 1c 	call	0x3806	; 0x3806 <strcmp>
    260c:	89 2b       	or	r24, r25
    260e:	79 f4       	brne	.+30     	; 0x262e <main+0x3f0>
    2610:	ce 52       	subi	r28, 0x2E	; 46
    2612:	df 4f       	sbci	r29, 0xFF	; 255
    2614:	e8 81       	ld	r30, Y
    2616:	f9 81       	ldd	r31, Y+1	; 0x01
    2618:	c2 5d       	subi	r28, 0xD2	; 210
    261a:	d0 40       	sbci	r29, 0x00	; 0
    261c:	09 95       	icall
    261e:	cc 52       	subi	r28, 0x2C	; 44
    2620:	df 4f       	sbci	r29, 0xFF	; 255
    2622:	e8 81       	ld	r30, Y
    2624:	f9 81       	ldd	r31, Y+1	; 0x01
    2626:	c4 5d       	subi	r28, 0xD4	; 212
    2628:	d0 40       	sbci	r29, 0x00	; 0
    262a:	09 95       	icall
    262c:	e8 c4       	rjmp	.+2512   	; 0x2ffe <main+0xdc0>
					/***Reading analog***/
					adcvalue=analog.read(0);
    262e:	80 e0       	ldi	r24, 0x00	; 0
    2630:	90 e0       	ldi	r25, 0x00	; 0
    2632:	c8 52       	subi	r28, 0x28	; 40
    2634:	df 4f       	sbci	r29, 0xFF	; 255
    2636:	e8 81       	ld	r30, Y
    2638:	f9 81       	ldd	r31, Y+1	; 0x01
    263a:	c8 5d       	subi	r28, 0xD8	; 216
    263c:	d0 40       	sbci	r29, 0x00	; 0
    263e:	09 95       	icall
    2640:	90 93 db 03 	sts	0x03DB, r25	; 0x8003db <adcvalue+0x1>
    2644:	80 93 da 03 	sts	0x03DA, r24	; 0x8003da <adcvalue>
					lcd0.gotoxy(0,0);
    2648:	60 e0       	ldi	r22, 0x00	; 0
    264a:	70 e0       	ldi	r23, 0x00	; 0
    264c:	80 e0       	ldi	r24, 0x00	; 0
    264e:	90 e0       	ldi	r25, 0x00	; 0
    2650:	c0 53       	subi	r28, 0x30	; 48
    2652:	df 4f       	sbci	r29, 0xFF	; 255
    2654:	e8 81       	ld	r30, Y
    2656:	f9 81       	ldd	r31, Y+1	; 0x01
    2658:	c0 5d       	subi	r28, 0xD0	; 208
    265a:	d0 40       	sbci	r29, 0x00	; 0
    265c:	09 95       	icall
					lcd0.string_size("Sense: ",7);
    265e:	67 e0       	ldi	r22, 0x07	; 7
    2660:	86 e1       	ldi	r24, 0x16	; 22
    2662:	91 e0       	ldi	r25, 0x01	; 1
    2664:	c2 53       	subi	r28, 0x32	; 50
    2666:	df 4f       	sbci	r29, 0xFF	; 255
    2668:	e8 81       	ld	r30, Y
    266a:	f9 81       	ldd	r31, Y+1	; 0x01
    266c:	ce 5c       	subi	r28, 0xCE	; 206
    266e:	d0 40       	sbci	r29, 0x00	; 0
    2670:	09 95       	icall
					strcpy(str,function.i16toa(adcvalue));
    2672:	e0 91 ac 03 	lds	r30, 0x03AC	; 0x8003ac <function+0x20>
    2676:	f0 91 ad 03 	lds	r31, 0x03AD	; 0x8003ad <function+0x21>
    267a:	80 91 da 03 	lds	r24, 0x03DA	; 0x8003da <adcvalue>
    267e:	90 91 db 03 	lds	r25, 0x03DB	; 0x8003db <adcvalue+0x1>
    2682:	09 95       	icall
    2684:	bc 01       	movw	r22, r24
    2686:	ce 01       	movw	r24, r28
    2688:	8a 58       	subi	r24, 0x8A	; 138
    268a:	9f 4f       	sbci	r25, 0xFF	; 255
    268c:	0e 94 0c 1c 	call	0x3818	; 0x3818 <strcpy>
					lcd0.string_size(str,4);
    2690:	64 e0       	ldi	r22, 0x04	; 4
    2692:	ce 01       	movw	r24, r28
    2694:	8a 58       	subi	r24, 0x8A	; 138
    2696:	9f 4f       	sbci	r25, 0xFF	; 255
    2698:	c2 53       	subi	r28, 0x32	; 50
    269a:	df 4f       	sbci	r29, 0xFF	; 255
    269c:	e8 81       	ld	r30, Y
    269e:	f9 81       	ldd	r31, Y+1	; 0x01
    26a0:	ce 5c       	subi	r28, 0xCE	; 206
    26a2:	d0 40       	sbci	r29, 0x00	; 0
    26a4:	09 95       	icall
					
					if(pid_out_1 >-1024 && pid_out_1 <1024){
    26a6:	c0 90 48 04 	lds	r12, 0x0448	; 0x800448 <pid_out_1>
    26aa:	d0 90 49 04 	lds	r13, 0x0449	; 0x800449 <pid_out_1+0x1>
    26ae:	e0 90 4a 04 	lds	r14, 0x044A	; 0x80044a <pid_out_1+0x2>
    26b2:	f0 90 4b 04 	lds	r15, 0x044B	; 0x80044b <pid_out_1+0x3>
    26b6:	20 e0       	ldi	r18, 0x00	; 0
    26b8:	30 e0       	ldi	r19, 0x00	; 0
    26ba:	40 e8       	ldi	r20, 0x80	; 128
    26bc:	54 ec       	ldi	r21, 0xC4	; 196
    26be:	c7 01       	movw	r24, r14
    26c0:	b6 01       	movw	r22, r12
    26c2:	a4 d7       	rcall	.+3912   	; 0x360c <__gesf2>
    26c4:	18 16       	cp	r1, r24
    26c6:	0c f0       	brlt	.+2      	; 0x26ca <main+0x48c>
    26c8:	6b c0       	rjmp	.+214    	; 0x27a0 <main+0x562>
    26ca:	20 e0       	ldi	r18, 0x00	; 0
    26cc:	30 e0       	ldi	r19, 0x00	; 0
    26ce:	40 e8       	ldi	r20, 0x80	; 128
    26d0:	54 e4       	ldi	r21, 0x44	; 68
    26d2:	c7 01       	movw	r24, r14
    26d4:	b6 01       	movw	r22, r12
    26d6:	4b d6       	rcall	.+3222   	; 0x336e <__cmpsf2>
    26d8:	88 23       	and	r24, r24
    26da:	0c f0       	brlt	.+2      	; 0x26de <main+0x4a0>
    26dc:	61 c0       	rjmp	.+194    	; 0x27a0 <main+0x562>
						tmp=function.trimmer(pid_out_1,-1023,1023,Min,Max);
    26de:	c7 01       	movw	r24, r14
    26e0:	b6 01       	movw	r22, r12
    26e2:	b1 d6       	rcall	.+3426   	; 0x3446 <__fixsfsi>
    26e4:	0f 2e       	mov	r0, r31
    26e6:	fc e8       	ldi	r31, 0x8C	; 140
    26e8:	4f 2e       	mov	r4, r31
    26ea:	f3 e0       	ldi	r31, 0x03	; 3
    26ec:	5f 2e       	mov	r5, r31
    26ee:	f0 2d       	mov	r31, r0
    26f0:	1f 92       	push	r1
    26f2:	1f 92       	push	r1
    26f4:	29 e0       	ldi	r18, 0x09	; 9
    26f6:	2f 93       	push	r18
    26f8:	2e e2       	ldi	r18, 0x2E	; 46
    26fa:	2f 93       	push	r18
    26fc:	d2 01       	movw	r26, r4
    26fe:	de 96       	adiw	r26, 0x3e	; 62
    2700:	ed 91       	ld	r30, X+
    2702:	fc 91       	ld	r31, X
    2704:	df 97       	sbiw	r26, 0x3f	; 63
    2706:	0f 2e       	mov	r0, r31
    2708:	f4 ef       	ldi	r31, 0xF4	; 244
    270a:	af 2e       	mov	r10, r31
    270c:	bb 24       	eor	r11, r11
    270e:	b3 94       	inc	r11
    2710:	c1 2c       	mov	r12, r1
    2712:	d1 2c       	mov	r13, r1
    2714:	f0 2d       	mov	r31, r0
    2716:	ee 24       	eor	r14, r14
    2718:	ea 94       	dec	r14
    271a:	13 e0       	ldi	r17, 0x03	; 3
    271c:	f1 2e       	mov	r15, r17
    271e:	00 e0       	ldi	r16, 0x00	; 0
    2720:	10 e0       	ldi	r17, 0x00	; 0
    2722:	21 e0       	ldi	r18, 0x01	; 1
    2724:	3c ef       	ldi	r19, 0xFC	; 252
    2726:	4f ef       	ldi	r20, 0xFF	; 255
    2728:	5f ef       	ldi	r21, 0xFF	; 255
    272a:	09 95       	icall
    272c:	60 93 82 03 	sts	0x0382, r22	; 0x800382 <tmp>
    2730:	70 93 83 03 	sts	0x0383, r23	; 0x800383 <tmp+0x1>
    2734:	80 93 84 03 	sts	0x0384, r24	; 0x800384 <tmp+0x2>
    2738:	90 93 85 03 	sts	0x0385, r25	; 0x800385 <tmp+0x3>
    273c:	cb 01       	movw	r24, r22
						timer1.compareB(tmp);
    273e:	c6 52       	subi	r28, 0x26	; 38
    2740:	df 4f       	sbci	r29, 0xFF	; 255
    2742:	e8 81       	ld	r30, Y
    2744:	f9 81       	ldd	r31, Y+1	; 0x01
    2746:	ca 5d       	subi	r28, 0xDA	; 218
    2748:	d0 40       	sbci	r29, 0x00	; 0
    274a:	09 95       	icall
    274c:	60 e0       	ldi	r22, 0x00	; 0
						lcd0.gotoxy(1,0);
    274e:	70 e0       	ldi	r23, 0x00	; 0
    2750:	81 e0       	ldi	r24, 0x01	; 1
    2752:	90 e0       	ldi	r25, 0x00	; 0
    2754:	c0 53       	subi	r28, 0x30	; 48
    2756:	df 4f       	sbci	r29, 0xFF	; 255
    2758:	e8 81       	ld	r30, Y
    275a:	f9 81       	ldd	r31, Y+1	; 0x01
    275c:	c0 5d       	subi	r28, 0xD0	; 208
    275e:	d0 40       	sbci	r29, 0x00	; 0
    2760:	09 95       	icall
    2762:	d2 01       	movw	r26, r4
						strcpy(str,function.i16toa(tmp));
    2764:	90 96       	adiw	r26, 0x20	; 32
    2766:	ed 91       	ld	r30, X+
    2768:	fc 91       	ld	r31, X
    276a:	91 97       	sbiw	r26, 0x21	; 33
    276c:	80 91 82 03 	lds	r24, 0x0382	; 0x800382 <tmp>
    2770:	90 91 83 03 	lds	r25, 0x0383	; 0x800383 <tmp+0x1>
    2774:	09 95       	icall
    2776:	bc 01       	movw	r22, r24
    2778:	ce 01       	movw	r24, r28
    277a:	8a 58       	subi	r24, 0x8A	; 138
    277c:	9f 4f       	sbci	r25, 0xFF	; 255
    277e:	0e 94 0c 1c 	call	0x3818	; 0x3818 <strcpy>
    2782:	64 e0       	ldi	r22, 0x04	; 4
						lcd0.string_size(str,4);
    2784:	ce 01       	movw	r24, r28
    2786:	8a 58       	subi	r24, 0x8A	; 138
    2788:	9f 4f       	sbci	r25, 0xFF	; 255
    278a:	c2 53       	subi	r28, 0x32	; 50
    278c:	df 4f       	sbci	r29, 0xFF	; 255
    278e:	e8 81       	ld	r30, Y
    2790:	f9 81       	ldd	r31, Y+1	; 0x01
    2792:	ce 5c       	subi	r28, 0xCE	; 206
    2794:	d0 40       	sbci	r29, 0x00	; 0
    2796:	09 95       	icall
    2798:	0f 90       	pop	r0
    279a:	0f 90       	pop	r0
    279c:	0f 90       	pop	r0
    279e:	0f 90       	pop	r0
    27a0:	60 e0       	ldi	r22, 0x00	; 0
					//lcd0.string_size(str,6);
					//lcd0.gotoxy(2,0);
					//strcpy(str,function.i32toa(pid_1.PV));
					//lcd0.string_size(str,6);
					//if(pid_1.derivative>0){
						lcd0.gotoxy(3,0);
    27a2:	70 e0       	ldi	r23, 0x00	; 0
    27a4:	83 e0       	ldi	r24, 0x03	; 3
    27a6:	90 e0       	ldi	r25, 0x00	; 0
    27a8:	c0 53       	subi	r28, 0x30	; 48
    27aa:	df 4f       	sbci	r29, 0xFF	; 255
    27ac:	e8 81       	ld	r30, Y
    27ae:	f9 81       	ldd	r31, Y+1	; 0x01
    27b0:	c0 5d       	subi	r28, 0xD0	; 208
    27b2:	d0 40       	sbci	r29, 0x00	; 0
    27b4:	09 95       	icall
						strcpy(str,function.i32toa(pid_1.derivative));
    27b6:	60 91 f8 03 	lds	r22, 0x03F8	; 0x8003f8 <pid_1+0x1c>
    27ba:	70 91 f9 03 	lds	r23, 0x03F9	; 0x8003f9 <pid_1+0x1d>
    27be:	80 91 fa 03 	lds	r24, 0x03FA	; 0x8003fa <pid_1+0x1e>
    27c2:	90 91 fb 03 	lds	r25, 0x03FB	; 0x8003fb <pid_1+0x1f>
    27c6:	3f d6       	rcall	.+3198   	; 0x3446 <__fixsfsi>
    27c8:	0c e8       	ldi	r16, 0x8C	; 140
    27ca:	13 e0       	ldi	r17, 0x03	; 3
    27cc:	d8 01       	movw	r26, r16
    27ce:	94 96       	adiw	r26, 0x24	; 36
    27d0:	ed 91       	ld	r30, X+
    27d2:	fc 91       	ld	r31, X
    27d4:	95 97       	sbiw	r26, 0x25	; 37
    27d6:	09 95       	icall
    27d8:	bc 01       	movw	r22, r24
    27da:	ce 01       	movw	r24, r28
    27dc:	8a 58       	subi	r24, 0x8A	; 138
    27de:	9f 4f       	sbci	r25, 0xFF	; 255
    27e0:	0e 94 0c 1c 	call	0x3818	; 0x3818 <strcpy>
    27e4:	66 e0       	ldi	r22, 0x06	; 6
						lcd0.string_size(str,6);
    27e6:	ce 01       	movw	r24, r28
    27e8:	8a 58       	subi	r24, 0x8A	; 138
    27ea:	9f 4f       	sbci	r25, 0xFF	; 255
    27ec:	c2 53       	subi	r28, 0x32	; 50
    27ee:	df 4f       	sbci	r29, 0xFF	; 255
    27f0:	e8 81       	ld	r30, Y
    27f2:	f9 81       	ldd	r31, Y+1	; 0x01
    27f4:	ce 5c       	subi	r28, 0xCE	; 206
    27f6:	d0 40       	sbci	r29, 0x00	; 0
    27f8:	09 95       	icall
    27fa:	6d e0       	ldi	r22, 0x0D	; 13
					//}
					
					
					// PID_1 output
					lcd0.gotoxy(0,13);
    27fc:	70 e0       	ldi	r23, 0x00	; 0
    27fe:	80 e0       	ldi	r24, 0x00	; 0
    2800:	90 e0       	ldi	r25, 0x00	; 0
    2802:	c0 53       	subi	r28, 0x30	; 48
    2804:	df 4f       	sbci	r29, 0xFF	; 255
    2806:	e8 81       	ld	r30, Y
    2808:	f9 81       	ldd	r31, Y+1	; 0x01
    280a:	c0 5d       	subi	r28, 0xD0	; 208
    280c:	d0 40       	sbci	r29, 0x00	; 0
    280e:	09 95       	icall
					strcpy(str,function.i32toa(pid_out_1));
    2810:	60 91 48 04 	lds	r22, 0x0448	; 0x800448 <pid_out_1>
    2814:	70 91 49 04 	lds	r23, 0x0449	; 0x800449 <pid_out_1+0x1>
    2818:	80 91 4a 04 	lds	r24, 0x044A	; 0x80044a <pid_out_1+0x2>
    281c:	90 91 4b 04 	lds	r25, 0x044B	; 0x80044b <pid_out_1+0x3>
    2820:	12 d6       	rcall	.+3108   	; 0x3446 <__fixsfsi>
    2822:	d8 01       	movw	r26, r16
    2824:	94 96       	adiw	r26, 0x24	; 36
    2826:	ed 91       	ld	r30, X+
    2828:	fc 91       	ld	r31, X
    282a:	95 97       	sbiw	r26, 0x25	; 37
    282c:	09 95       	icall
    282e:	bc 01       	movw	r22, r24
    2830:	ce 01       	movw	r24, r28
    2832:	8a 58       	subi	r24, 0x8A	; 138
    2834:	9f 4f       	sbci	r25, 0xFF	; 255
    2836:	f0 d7       	rcall	.+4064   	; 0x3818 <strcpy>
    2838:	66 e0       	ldi	r22, 0x06	; 6
					lcd0.string_size(str,6);
    283a:	ce 01       	movw	r24, r28
    283c:	8a 58       	subi	r24, 0x8A	; 138
    283e:	9f 4f       	sbci	r25, 0xFF	; 255
    2840:	c2 53       	subi	r28, 0x32	; 50
    2842:	df 4f       	sbci	r29, 0xFF	; 255
    2844:	e8 81       	ld	r30, Y
    2846:	f9 81       	ldd	r31, Y+1	; 0x01
    2848:	ce 5c       	subi	r28, 0xCE	; 206
    284a:	d0 40       	sbci	r29, 0x00	; 0
    284c:	09 95       	icall
    284e:	6d e0       	ldi	r22, 0x0D	; 13
					
					// PID_2 output
					lcd0.gotoxy(1,13);
    2850:	70 e0       	ldi	r23, 0x00	; 0
    2852:	81 e0       	ldi	r24, 0x01	; 1
    2854:	90 e0       	ldi	r25, 0x00	; 0
    2856:	c0 53       	subi	r28, 0x30	; 48
    2858:	df 4f       	sbci	r29, 0xFF	; 255
    285a:	e8 81       	ld	r30, Y
    285c:	f9 81       	ldd	r31, Y+1	; 0x01
    285e:	c0 5d       	subi	r28, 0xD0	; 208
    2860:	d0 40       	sbci	r29, 0x00	; 0
    2862:	09 95       	icall
					strcpy(str,function.i32toa(pid_out_2));
    2864:	60 91 d6 03 	lds	r22, 0x03D6	; 0x8003d6 <pid_out_2>
    2868:	70 91 d7 03 	lds	r23, 0x03D7	; 0x8003d7 <pid_out_2+0x1>
    286c:	80 91 d8 03 	lds	r24, 0x03D8	; 0x8003d8 <pid_out_2+0x2>
    2870:	90 91 d9 03 	lds	r25, 0x03D9	; 0x8003d9 <pid_out_2+0x3>
    2874:	e8 d5       	rcall	.+3024   	; 0x3446 <__fixsfsi>
    2876:	d8 01       	movw	r26, r16
    2878:	94 96       	adiw	r26, 0x24	; 36
    287a:	ed 91       	ld	r30, X+
    287c:	fc 91       	ld	r31, X
    287e:	95 97       	sbiw	r26, 0x25	; 37
    2880:	09 95       	icall
    2882:	bc 01       	movw	r22, r24
    2884:	ce 01       	movw	r24, r28
    2886:	8a 58       	subi	r24, 0x8A	; 138
    2888:	9f 4f       	sbci	r25, 0xFF	; 255
    288a:	c6 d7       	rcall	.+3980   	; 0x3818 <strcpy>
    288c:	66 e0       	ldi	r22, 0x06	; 6
					lcd0.string_size(str,6);
    288e:	ce 01       	movw	r24, r28
    2890:	8a 58       	subi	r24, 0x8A	; 138
    2892:	9f 4f       	sbci	r25, 0xFF	; 255
    2894:	c2 53       	subi	r28, 0x32	; 50
    2896:	df 4f       	sbci	r29, 0xFF	; 255
    2898:	e8 81       	ld	r30, Y
    289a:	f9 81       	ldd	r31, Y+1	; 0x01
    289c:	ce 5c       	subi	r28, 0xCE	; 206
    289e:	d0 40       	sbci	r29, 0x00	; 0
    28a0:	09 95       	icall
    28a2:	f4 c3       	rjmp	.+2024   	; 0x308c <main+0xe4e>
					
					
					
				break;
    28a4:	ce 52       	subi	r28, 0x2E	; 46
			/***MENU 2***/
			case '2': // Manual position override 
				if(!strcmp(keypad.get().string,"A")){Menu='3';keypad.flush();lcd0.clear();break;}
    28a6:	df 4f       	sbci	r29, 0xFF	; 255
    28a8:	e8 81       	ld	r30, Y
    28aa:	f9 81       	ldd	r31, Y+1	; 0x01
    28ac:	c2 5d       	subi	r28, 0xD2	; 210
    28ae:	d0 40       	sbci	r29, 0x00	; 0
    28b0:	09 95       	icall
    28b2:	cc 52       	subi	r28, 0x2C	; 44
    28b4:	df 4f       	sbci	r29, 0xFF	; 255
    28b6:	e8 81       	ld	r30, Y
    28b8:	f9 81       	ldd	r31, Y+1	; 0x01
    28ba:	c4 5d       	subi	r28, 0xD4	; 212
    28bc:	d0 40       	sbci	r29, 0x00	; 0
    28be:	09 95       	icall
    28c0:	9e c3       	rjmp	.+1852   	; 0x2ffe <main+0xdc0>
    28c2:	c4 53       	subi	r28, 0x34	; 52
				if(!strcmp(keypad.get().string,"B")){Menu='1';keypad.flush();lcd0.clear();break;}
    28c4:	df 4f       	sbci	r29, 0xFF	; 255
    28c6:	e8 81       	ld	r30, Y
    28c8:	f9 81       	ldd	r31, Y+1	; 0x01
    28ca:	cc 5c       	subi	r28, 0xCC	; 204
    28cc:	d0 40       	sbci	r29, 0x00	; 0
    28ce:	09 95       	icall
    28d0:	2f 8f       	std	Y+31, r18	; 0x1f
    28d2:	38 a3       	std	Y+32, r19	; 0x20
    28d4:	49 a3       	std	Y+33, r20	; 0x21
    28d6:	5a a3       	std	Y+34, r21	; 0x22
    28d8:	6b a3       	std	Y+35, r22	; 0x23
    28da:	64 e1       	ldi	r22, 0x14	; 20
    28dc:	71 e0       	ldi	r23, 0x01	; 1
    28de:	8a a1       	ldd	r24, Y+34	; 0x22
    28e0:	9b a1       	ldd	r25, Y+35	; 0x23
    28e2:	91 d7       	rcall	.+3874   	; 0x3806 <strcmp>
    28e4:	89 2b       	or	r24, r25
    28e6:	79 f4       	brne	.+30     	; 0x2906 <main+0x6c8>
    28e8:	ce 52       	subi	r28, 0x2E	; 46
    28ea:	df 4f       	sbci	r29, 0xFF	; 255
    28ec:	e8 81       	ld	r30, Y
    28ee:	f9 81       	ldd	r31, Y+1	; 0x01
    28f0:	c2 5d       	subi	r28, 0xD2	; 210
    28f2:	d0 40       	sbci	r29, 0x00	; 0
    28f4:	09 95       	icall
    28f6:	cc 52       	subi	r28, 0x2C	; 44
    28f8:	df 4f       	sbci	r29, 0xFF	; 255
    28fa:	e8 81       	ld	r30, Y
    28fc:	f9 81       	ldd	r31, Y+1	; 0x01
    28fe:	c4 5d       	subi	r28, 0xD4	; 212
    2900:	d0 40       	sbci	r29, 0x00	; 0
    2902:	09 95       	icall
    2904:	c3 c3       	rjmp	.+1926   	; 0x308c <main+0xe4e>
    2906:	c4 53       	subi	r28, 0x34	; 52
				if(!strcmp(keypad.get().string,"C")){Menu='1';keypad.flush();lcd0.clear();break;}
    2908:	df 4f       	sbci	r29, 0xFF	; 255
    290a:	e8 81       	ld	r30, Y
    290c:	f9 81       	ldd	r31, Y+1	; 0x01
    290e:	cc 5c       	subi	r28, 0xCC	; 204
    2910:	d0 40       	sbci	r29, 0x00	; 0
    2912:	09 95       	icall
    2914:	2a 8f       	std	Y+26, r18	; 0x1a
    2916:	3b 8f       	std	Y+27, r19	; 0x1b
    2918:	4c 8f       	std	Y+28, r20	; 0x1c
    291a:	5d 8f       	std	Y+29, r21	; 0x1d
    291c:	6e 8f       	std	Y+30, r22	; 0x1e
    291e:	6e e1       	ldi	r22, 0x1E	; 30
    2920:	71 e0       	ldi	r23, 0x01	; 1
    2922:	8d 8d       	ldd	r24, Y+29	; 0x1d
    2924:	9e 8d       	ldd	r25, Y+30	; 0x1e
    2926:	6f d7       	rcall	.+3806   	; 0x3806 <strcmp>
    2928:	89 2b       	or	r24, r25
    292a:	79 f4       	brne	.+30     	; 0x294a <main+0x70c>
    292c:	ce 52       	subi	r28, 0x2E	; 46
    292e:	df 4f       	sbci	r29, 0xFF	; 255
    2930:	e8 81       	ld	r30, Y
    2932:	f9 81       	ldd	r31, Y+1	; 0x01
    2934:	c2 5d       	subi	r28, 0xD2	; 210
    2936:	d0 40       	sbci	r29, 0x00	; 0
    2938:	09 95       	icall
    293a:	cc 52       	subi	r28, 0x2C	; 44
    293c:	df 4f       	sbci	r29, 0xFF	; 255
    293e:	e8 81       	ld	r30, Y
    2940:	f9 81       	ldd	r31, Y+1	; 0x01
    2942:	c4 5d       	subi	r28, 0xD4	; 212
    2944:	d0 40       	sbci	r29, 0x00	; 0
    2946:	09 95       	icall
    2948:	a1 c3       	rjmp	.+1858   	; 0x308c <main+0xe4e>
    294a:	60 e0       	ldi	r22, 0x00	; 0
					lcd0.gotoxy(0,0);
    294c:	70 e0       	ldi	r23, 0x00	; 0
    294e:	80 e0       	ldi	r24, 0x00	; 0
    2950:	90 e0       	ldi	r25, 0x00	; 0
    2952:	c0 53       	subi	r28, 0x30	; 48
    2954:	df 4f       	sbci	r29, 0xFF	; 255
    2956:	e8 81       	ld	r30, Y
    2958:	f9 81       	ldd	r31, Y+1	; 0x01
    295a:	c0 5d       	subi	r28, 0xD0	; 208
    295c:	d0 40       	sbci	r29, 0x00	; 0
    295e:	09 95       	icall
    2960:	68 e0       	ldi	r22, 0x08	; 8
					lcd0.string_size("Manual: ",8);
    2962:	80 e2       	ldi	r24, 0x20	; 32
    2964:	91 e0       	ldi	r25, 0x01	; 1
    2966:	c2 53       	subi	r28, 0x32	; 50
    2968:	df 4f       	sbci	r29, 0xFF	; 255
    296a:	e8 81       	ld	r30, Y
    296c:	f9 81       	ldd	r31, Y+1	; 0x01
    296e:	ce 5c       	subi	r28, 0xCE	; 206
    2970:	d0 40       	sbci	r29, 0x00	; 0
    2972:	09 95       	icall
    2974:	63 e0       	ldi	r22, 0x03	; 3
					lcd0.string_size(mstr,3);
    2976:	ce 01       	movw	r24, r28
    2978:	84 58       	subi	r24, 0x84	; 132
    297a:	9f 4f       	sbci	r25, 0xFF	; 255
    297c:	c2 53       	subi	r28, 0x32	; 50
    297e:	df 4f       	sbci	r29, 0xFF	; 255
    2980:	e8 81       	ld	r30, Y
    2982:	f9 81       	ldd	r31, Y+1	; 0x01
    2984:	ce 5c       	subi	r28, 0xCE	; 206
    2986:	d0 40       	sbci	r29, 0x00	; 0
    2988:	09 95       	icall
    298a:	60 e0       	ldi	r22, 0x00	; 0
					lcd0.gotoxy(1,0);
    298c:	70 e0       	ldi	r23, 0x00	; 0
    298e:	81 e0       	ldi	r24, 0x01	; 1
    2990:	90 e0       	ldi	r25, 0x00	; 0
    2992:	c0 53       	subi	r28, 0x30	; 48
    2994:	df 4f       	sbci	r29, 0xFF	; 255
    2996:	e8 81       	ld	r30, Y
    2998:	f9 81       	ldd	r31, Y+1	; 0x01
    299a:	c0 5d       	subi	r28, 0xD0	; 208
    299c:	d0 40       	sbci	r29, 0x00	; 0
    299e:	09 95       	icall
    29a0:	6b e0       	ldi	r22, 0x0B	; 11
					lcd0.string_size("Enter Angle",11);
    29a2:	89 e2       	ldi	r24, 0x29	; 41
    29a4:	91 e0       	ldi	r25, 0x01	; 1
    29a6:	c2 53       	subi	r28, 0x32	; 50
    29a8:	df 4f       	sbci	r29, 0xFF	; 255
    29aa:	e8 81       	ld	r30, Y
    29ac:	f9 81       	ldd	r31, Y+1	; 0x01
    29ae:	ce 5c       	subi	r28, 0xCE	; 206
    29b0:	d0 40       	sbci	r29, 0x00	; 0
    29b2:	09 95       	icall
    29b4:	c4 53       	subi	r28, 0x34	; 52
					if(keypad.get().character==KEYPADENTERKEY){
    29b6:	df 4f       	sbci	r29, 0xFF	; 255
    29b8:	e8 81       	ld	r30, Y
    29ba:	f9 81       	ldd	r31, Y+1	; 0x01
    29bc:	cc 5c       	subi	r28, 0xCC	; 204
    29be:	d0 40       	sbci	r29, 0x00	; 0
    29c0:	09 95       	icall
    29c2:	2d 8b       	std	Y+21, r18	; 0x15
    29c4:	3e 8b       	std	Y+22, r19	; 0x16
    29c6:	4f 8b       	std	Y+23, r20	; 0x17
    29c8:	58 8f       	std	Y+24, r21	; 0x18
    29ca:	69 8f       	std	Y+25, r22	; 0x19
    29cc:	24 34       	cpi	r18, 0x44	; 68
    29ce:	09 f0       	breq	.+2      	; 0x29d2 <main+0x794>
    29d0:	64 c0       	rjmp	.+200    	; 0x2a9a <main+0x85c>
    29d2:	c4 53       	subi	r28, 0x34	; 52
						strncpy(mstr,keypad.get().string,6);
    29d4:	df 4f       	sbci	r29, 0xFF	; 255
    29d6:	e8 81       	ld	r30, Y
    29d8:	f9 81       	ldd	r31, Y+1	; 0x01
    29da:	cc 5c       	subi	r28, 0xCC	; 204
    29dc:	d0 40       	sbci	r29, 0x00	; 0
    29de:	09 95       	icall
    29e0:	28 8b       	std	Y+16, r18	; 0x10
    29e2:	39 8b       	std	Y+17, r19	; 0x11
    29e4:	4a 8b       	std	Y+18, r20	; 0x12
    29e6:	5b 8b       	std	Y+19, r21	; 0x13
    29e8:	6c 8b       	std	Y+20, r22	; 0x14
    29ea:	6b 89       	ldd	r22, Y+19	; 0x13
    29ec:	7c 89       	ldd	r23, Y+20	; 0x14
    29ee:	46 e0       	ldi	r20, 0x06	; 6
    29f0:	50 e0       	ldi	r21, 0x00	; 0
    29f2:	ce 01       	movw	r24, r28
    29f4:	84 58       	subi	r24, 0x84	; 132
    29f6:	9f 4f       	sbci	r25, 0xFF	; 255
    29f8:	16 d7       	rcall	.+3628   	; 0x3826 <strncpy>
    29fa:	d2 01       	movw	r26, r4
						mvalue=function.strToInt(mstr);
    29fc:	9c 96       	adiw	r26, 0x2c	; 44
    29fe:	ed 91       	ld	r30, X+
    2a00:	fc 91       	ld	r31, X
    2a02:	9d 97       	sbiw	r26, 0x2d	; 45
    2a04:	ce 01       	movw	r24, r28
    2a06:	84 58       	subi	r24, 0x84	; 132
    2a08:	9f 4f       	sbci	r25, 0xFF	; 255
    2a0a:	09 95       	icall
    2a0c:	85 3b       	cpi	r24, 0xB5	; 181
						if(mvalue >=0 && mvalue <181){
    2a0e:	91 05       	cpc	r25, r1
    2a10:	98 f5       	brcc	.+102    	; 0x2a78 <main+0x83a>
    2a12:	bc 01       	movw	r22, r24
							m_value=mvalue;
							timer1.compareB(function.trimmer(m_value,0,180,Min,Max));
    2a14:	99 0f       	add	r25, r25
    2a16:	88 0b       	sbc	r24, r24
    2a18:	99 0b       	sbc	r25, r25
    2a1a:	1f 92       	push	r1
    2a1c:	1f 92       	push	r1
    2a1e:	b9 e0       	ldi	r27, 0x09	; 9
    2a20:	bf 93       	push	r27
    2a22:	ee e2       	ldi	r30, 0x2E	; 46
    2a24:	ef 93       	push	r30
    2a26:	d2 01       	movw	r26, r4
    2a28:	de 96       	adiw	r26, 0x3e	; 62
    2a2a:	ed 91       	ld	r30, X+
    2a2c:	fc 91       	ld	r31, X
    2a2e:	df 97       	sbiw	r26, 0x3f	; 63
    2a30:	0f 2e       	mov	r0, r31
    2a32:	f4 ef       	ldi	r31, 0xF4	; 244
    2a34:	af 2e       	mov	r10, r31
    2a36:	bb 24       	eor	r11, r11
    2a38:	b3 94       	inc	r11
    2a3a:	c1 2c       	mov	r12, r1
    2a3c:	d1 2c       	mov	r13, r1
    2a3e:	f0 2d       	mov	r31, r0
    2a40:	14 eb       	ldi	r17, 0xB4	; 180
    2a42:	e1 2e       	mov	r14, r17
    2a44:	f1 2c       	mov	r15, r1
    2a46:	00 e0       	ldi	r16, 0x00	; 0
    2a48:	10 e0       	ldi	r17, 0x00	; 0
    2a4a:	20 e0       	ldi	r18, 0x00	; 0
    2a4c:	30 e0       	ldi	r19, 0x00	; 0
    2a4e:	a9 01       	movw	r20, r18
    2a50:	09 95       	icall
    2a52:	cb 01       	movw	r24, r22
    2a54:	c6 52       	subi	r28, 0x26	; 38
    2a56:	df 4f       	sbci	r29, 0xFF	; 255
    2a58:	e8 81       	ld	r30, Y
    2a5a:	f9 81       	ldd	r31, Y+1	; 0x01
    2a5c:	ca 5d       	subi	r28, 0xDA	; 218
    2a5e:	d0 40       	sbci	r29, 0x00	; 0
    2a60:	09 95       	icall
    2a62:	28 96       	adiw	r28, 0x08	; 8
							lcd0.hspace(5);
    2a64:	ee ad       	ldd	r30, Y+62	; 0x3e
    2a66:	ff ad       	ldd	r31, Y+63	; 0x3f
    2a68:	28 97       	sbiw	r28, 0x08	; 8
    2a6a:	85 e0       	ldi	r24, 0x05	; 5
    2a6c:	09 95       	icall
    2a6e:	0f 90       	pop	r0
    2a70:	0f 90       	pop	r0
    2a72:	0f 90       	pop	r0
    2a74:	0f 90       	pop	r0
    2a76:	0a c0       	rjmp	.+20     	; 0x2a8c <main+0x84e>
    2a78:	65 e0       	ldi	r22, 0x05	; 5
						}else{
							lcd0.string_size("  err",5);
    2a7a:	85 e3       	ldi	r24, 0x35	; 53
    2a7c:	91 e0       	ldi	r25, 0x01	; 1
    2a7e:	c2 53       	subi	r28, 0x32	; 50
    2a80:	df 4f       	sbci	r29, 0xFF	; 255
    2a82:	e8 81       	ld	r30, Y
    2a84:	f9 81       	ldd	r31, Y+1	; 0x01
    2a86:	ce 5c       	subi	r28, 0xCE	; 206
    2a88:	d0 40       	sbci	r29, 0x00	; 0
    2a8a:	09 95       	icall
    2a8c:	ce 52       	subi	r28, 0x2E	; 46
						}
						keypad.flush();
    2a8e:	df 4f       	sbci	r29, 0xFF	; 255
    2a90:	e8 81       	ld	r30, Y
    2a92:	f9 81       	ldd	r31, Y+1	; 0x01
    2a94:	c2 5d       	subi	r28, 0xD2	; 210
    2a96:	d0 40       	sbci	r29, 0x00	; 0
    2a98:	09 95       	icall
    2a9a:	60 e0       	ldi	r22, 0x00	; 0
					}
					//else
					//	timer1.compareB(function.trimmer(m_value,0,180,Min,Max));
					lcd0.gotoxy(3,0);
    2a9c:	70 e0       	ldi	r23, 0x00	; 0
    2a9e:	83 e0       	ldi	r24, 0x03	; 3
    2aa0:	90 e0       	ldi	r25, 0x00	; 0
    2aa2:	c0 53       	subi	r28, 0x30	; 48
    2aa4:	df 4f       	sbci	r29, 0xFF	; 255
    2aa6:	e8 81       	ld	r30, Y
    2aa8:	f9 81       	ldd	r31, Y+1	; 0x01
    2aaa:	c0 5d       	subi	r28, 0xD0	; 208
    2aac:	d0 40       	sbci	r29, 0x00	; 0
    2aae:	09 95       	icall
    2ab0:	68 e0       	ldi	r22, 0x08	; 8
					lcd0.string_size("C - exit",8);
    2ab2:	8b e3       	ldi	r24, 0x3B	; 59
    2ab4:	91 e0       	ldi	r25, 0x01	; 1
    2ab6:	c2 53       	subi	r28, 0x32	; 50
    2ab8:	df 4f       	sbci	r29, 0xFF	; 255
    2aba:	e8 81       	ld	r30, Y
    2abc:	f9 81       	ldd	r31, Y+1	; 0x01
    2abe:	ce 5c       	subi	r28, 0xCE	; 206
    2ac0:	d0 40       	sbci	r29, 0x00	; 0
    2ac2:	09 95       	icall
    2ac4:	16 c3       	rjmp	.+1580   	; 0x30f2 <main+0xeb4>
				break;
    2ac6:	ce 52       	subi	r28, 0x2E	; 46
			/***MENU 3***/
			case '3': //Set Time and Date
				if(!strcmp(keypad.get().string,"A")){Menu='1';keypad.flush();lcd0.clear();break;}
    2ac8:	df 4f       	sbci	r29, 0xFF	; 255
    2aca:	e8 81       	ld	r30, Y
    2acc:	f9 81       	ldd	r31, Y+1	; 0x01
    2ace:	c2 5d       	subi	r28, 0xD2	; 210
    2ad0:	d0 40       	sbci	r29, 0x00	; 0
    2ad2:	09 95       	icall
    2ad4:	cc 52       	subi	r28, 0x2C	; 44
    2ad6:	df 4f       	sbci	r29, 0xFF	; 255
    2ad8:	e8 81       	ld	r30, Y
    2ada:	f9 81       	ldd	r31, Y+1	; 0x01
    2adc:	c4 5d       	subi	r28, 0xD4	; 212
    2ade:	d0 40       	sbci	r29, 0x00	; 0
    2ae0:	09 95       	icall
    2ae2:	d4 c2       	rjmp	.+1448   	; 0x308c <main+0xe4e>
    2ae4:	c4 53       	subi	r28, 0x34	; 52
				if(!strcmp(keypad.get().string,"B")){Menu='2';keypad.flush();lcd0.clear();break;}
    2ae6:	df 4f       	sbci	r29, 0xFF	; 255
    2ae8:	e8 81       	ld	r30, Y
    2aea:	f9 81       	ldd	r31, Y+1	; 0x01
    2aec:	cc 5c       	subi	r28, 0xCC	; 204
    2aee:	d0 40       	sbci	r29, 0x00	; 0
    2af0:	09 95       	icall
    2af2:	2e 83       	std	Y+6, r18	; 0x06
    2af4:	3f 83       	std	Y+7, r19	; 0x07
    2af6:	48 87       	std	Y+8, r20	; 0x08
    2af8:	59 87       	std	Y+9, r21	; 0x09
    2afa:	6a 87       	std	Y+10, r22	; 0x0a
    2afc:	64 e1       	ldi	r22, 0x14	; 20
    2afe:	71 e0       	ldi	r23, 0x01	; 1
    2b00:	89 85       	ldd	r24, Y+9	; 0x09
    2b02:	9a 85       	ldd	r25, Y+10	; 0x0a
    2b04:	80 d6       	rcall	.+3328   	; 0x3806 <strcmp>
    2b06:	89 2b       	or	r24, r25
    2b08:	79 f4       	brne	.+30     	; 0x2b28 <main+0x8ea>
    2b0a:	ce 52       	subi	r28, 0x2E	; 46
    2b0c:	df 4f       	sbci	r29, 0xFF	; 255
    2b0e:	e8 81       	ld	r30, Y
    2b10:	f9 81       	ldd	r31, Y+1	; 0x01
    2b12:	c2 5d       	subi	r28, 0xD2	; 210
    2b14:	d0 40       	sbci	r29, 0x00	; 0
    2b16:	09 95       	icall
    2b18:	cc 52       	subi	r28, 0x2C	; 44
    2b1a:	df 4f       	sbci	r29, 0xFF	; 255
    2b1c:	e8 81       	ld	r30, Y
    2b1e:	f9 81       	ldd	r31, Y+1	; 0x01
    2b20:	c4 5d       	subi	r28, 0xD4	; 212
    2b22:	d0 40       	sbci	r29, 0x00	; 0
    2b24:	09 95       	icall
    2b26:	df c2       	rjmp	.+1470   	; 0x30e6 <main+0xea8>
    2b28:	c4 53       	subi	r28, 0x34	; 52
				if(!strcmp(keypad.get().string,"C")){Menu='1';keypad.flush();lcd0.clear();break;}
    2b2a:	df 4f       	sbci	r29, 0xFF	; 255
    2b2c:	e8 81       	ld	r30, Y
    2b2e:	f9 81       	ldd	r31, Y+1	; 0x01
    2b30:	cc 5c       	subi	r28, 0xCC	; 204
    2b32:	d0 40       	sbci	r29, 0x00	; 0
    2b34:	09 95       	icall
    2b36:	29 83       	std	Y+1, r18	; 0x01
    2b38:	3a 83       	std	Y+2, r19	; 0x02
    2b3a:	4b 83       	std	Y+3, r20	; 0x03
    2b3c:	5c 83       	std	Y+4, r21	; 0x04
    2b3e:	6d 83       	std	Y+5, r22	; 0x05
    2b40:	6e e1       	ldi	r22, 0x1E	; 30
    2b42:	71 e0       	ldi	r23, 0x01	; 1
    2b44:	8c 81       	ldd	r24, Y+4	; 0x04
    2b46:	9d 81       	ldd	r25, Y+5	; 0x05
    2b48:	5e d6       	rcall	.+3260   	; 0x3806 <strcmp>
    2b4a:	89 2b       	or	r24, r25
    2b4c:	79 f4       	brne	.+30     	; 0x2b6c <main+0x92e>
    2b4e:	ce 52       	subi	r28, 0x2E	; 46
    2b50:	df 4f       	sbci	r29, 0xFF	; 255
    2b52:	e8 81       	ld	r30, Y
    2b54:	f9 81       	ldd	r31, Y+1	; 0x01
    2b56:	c2 5d       	subi	r28, 0xD2	; 210
    2b58:	d0 40       	sbci	r29, 0x00	; 0
    2b5a:	09 95       	icall
    2b5c:	cc 52       	subi	r28, 0x2C	; 44
    2b5e:	df 4f       	sbci	r29, 0xFF	; 255
    2b60:	e8 81       	ld	r30, Y
    2b62:	f9 81       	ldd	r31, Y+1	; 0x01
    2b64:	c4 5d       	subi	r28, 0xD4	; 212
    2b66:	d0 40       	sbci	r29, 0x00	; 0
    2b68:	09 95       	icall
    2b6a:	90 c2       	rjmp	.+1312   	; 0x308c <main+0xe4e>
    2b6c:	60 e0       	ldi	r22, 0x00	; 0
					lcd0.gotoxy(0,0);
    2b6e:	70 e0       	ldi	r23, 0x00	; 0
    2b70:	80 e0       	ldi	r24, 0x00	; 0
    2b72:	90 e0       	ldi	r25, 0x00	; 0
    2b74:	c0 53       	subi	r28, 0x30	; 48
    2b76:	df 4f       	sbci	r29, 0xFF	; 255
    2b78:	e8 81       	ld	r30, Y
    2b7a:	f9 81       	ldd	r31, Y+1	; 0x01
    2b7c:	c0 5d       	subi	r28, 0xD0	; 208
    2b7e:	d0 40       	sbci	r29, 0x00	; 0
    2b80:	09 95       	icall
    2b82:	63 e1       	ldi	r22, 0x13	; 19
					lcd0.string_size("Not being used",19);
    2b84:	84 e4       	ldi	r24, 0x44	; 68
    2b86:	91 e0       	ldi	r25, 0x01	; 1
    2b88:	c2 53       	subi	r28, 0x32	; 50
    2b8a:	df 4f       	sbci	r29, 0xFF	; 255
    2b8c:	e8 81       	ld	r30, Y
    2b8e:	f9 81       	ldd	r31, Y+1	; 0x01
    2b90:	ce 5c       	subi	r28, 0xCE	; 206
    2b92:	d0 40       	sbci	r29, 0x00	; 0
    2b94:	09 95       	icall
    2b96:	18 e0       	ldi	r17, 0x08	; 8
    2b98:	d4 01       	movw	r26, r8
					
					/***Play around***/
					for(i=0;i<8;i++){
						shift.bit(1);
    2b9a:	ed 91       	ld	r30, X+
    2b9c:	fc 91       	ld	r31, X
    2b9e:	81 e0       	ldi	r24, 0x01	; 1
    2ba0:	09 95       	icall
    2ba2:	d4 01       	movw	r26, r8
						shift.out();
    2ba4:	14 96       	adiw	r26, 0x04	; 4
    2ba6:	ed 91       	ld	r30, X+
    2ba8:	fc 91       	ld	r31, X
    2baa:	15 97       	sbiw	r26, 0x05	; 5
    2bac:	09 95       	icall
    2bae:	bf ef       	ldi	r27, 0xFF	; 255
	#else
		//round up by default
		__ticks_dc = (uint32_t)(ceil(fabs(__tmp)));
	#endif

	__builtin_avr_delay_cycles(__ticks_dc);
    2bb0:	e3 ed       	ldi	r30, 0xD3	; 211
    2bb2:	f0 e3       	ldi	r31, 0x30	; 48
    2bb4:	b1 50       	subi	r27, 0x01	; 1
    2bb6:	e0 40       	sbci	r30, 0x00	; 0
    2bb8:	f0 40       	sbci	r31, 0x00	; 0
    2bba:	e1 f7       	brne	.-8      	; 0x2bb4 <main+0x976>
    2bbc:	00 c0       	rjmp	.+0      	; 0x2bbe <main+0x980>
    2bbe:	00 00       	nop
    2bc0:	11 50       	subi	r17, 0x01	; 1
    2bc2:	51 f7       	brne	.-44     	; 0x2b98 <main+0x95a>
				if(!strcmp(keypad.get().string,"C")){Menu='1';keypad.flush();lcd0.clear();break;}
					lcd0.gotoxy(0,0);
					lcd0.string_size("Not being used",19);
					
					/***Play around***/
					for(i=0;i<8;i++){
    2bc4:	18 e0       	ldi	r17, 0x08	; 8
    2bc6:	d4 01       	movw	r26, r8
						shift.bit(1);
						shift.out();
						_delay_ms(repeat_1);
					}
					for(i=0;i<8;i++){
						shift.bit(0);
    2bc8:	ed 91       	ld	r30, X+
    2bca:	fc 91       	ld	r31, X
    2bcc:	80 e0       	ldi	r24, 0x00	; 0
    2bce:	09 95       	icall
    2bd0:	d4 01       	movw	r26, r8
						shift.out();
    2bd2:	14 96       	adiw	r26, 0x04	; 4
    2bd4:	ed 91       	ld	r30, X+
    2bd6:	fc 91       	ld	r31, X
    2bd8:	15 97       	sbiw	r26, 0x05	; 5
    2bda:	09 95       	icall
    2bdc:	bf ef       	ldi	r27, 0xFF	; 255
    2bde:	e3 ed       	ldi	r30, 0xD3	; 211
    2be0:	f0 e3       	ldi	r31, 0x30	; 48
    2be2:	b1 50       	subi	r27, 0x01	; 1
    2be4:	e0 40       	sbci	r30, 0x00	; 0
    2be6:	f0 40       	sbci	r31, 0x00	; 0
    2be8:	e1 f7       	brne	.-8      	; 0x2be2 <main+0x9a4>
    2bea:	00 c0       	rjmp	.+0      	; 0x2bec <main+0x9ae>
    2bec:	00 00       	nop
    2bee:	11 50       	subi	r17, 0x01	; 1
    2bf0:	51 f7       	brne	.-44     	; 0x2bc6 <main+0x988>
					for(i=0;i<8;i++){
						shift.bit(1);
						shift.out();
						_delay_ms(repeat_1);
					}
					for(i=0;i<8;i++){
    2bf2:	18 e0       	ldi	r17, 0x08	; 8
    2bf4:	d4 01       	movw	r26, r8
						shift.bit(0);
						shift.out();
						_delay_ms(repeat_1);
					}
					for(i=0;i<8;i++){
						shift.bit(1);
    2bf6:	ed 91       	ld	r30, X+
    2bf8:	fc 91       	ld	r31, X
    2bfa:	81 e0       	ldi	r24, 0x01	; 1
    2bfc:	09 95       	icall
    2bfe:	d4 01       	movw	r26, r8
						shift.out();
    2c00:	14 96       	adiw	r26, 0x04	; 4
    2c02:	ed 91       	ld	r30, X+
    2c04:	fc 91       	ld	r31, X
    2c06:	15 97       	sbiw	r26, 0x05	; 5
    2c08:	09 95       	icall
    2c0a:	bf ef       	ldi	r27, 0xFF	; 255
    2c0c:	e3 ed       	ldi	r30, 0xD3	; 211
    2c0e:	f0 e3       	ldi	r31, 0x30	; 48
    2c10:	b1 50       	subi	r27, 0x01	; 1
    2c12:	e0 40       	sbci	r30, 0x00	; 0
    2c14:	f0 40       	sbci	r31, 0x00	; 0
    2c16:	e1 f7       	brne	.-8      	; 0x2c10 <main+0x9d2>
    2c18:	00 c0       	rjmp	.+0      	; 0x2c1a <main+0x9dc>
    2c1a:	00 00       	nop
    2c1c:	d4 01       	movw	r26, r8
						_delay_ms(repeat_1);
						shift.bit(0);
    2c1e:	ed 91       	ld	r30, X+
    2c20:	fc 91       	ld	r31, X
    2c22:	80 e0       	ldi	r24, 0x00	; 0
    2c24:	09 95       	icall
    2c26:	d4 01       	movw	r26, r8
						shift.out();
    2c28:	14 96       	adiw	r26, 0x04	; 4
    2c2a:	ed 91       	ld	r30, X+
    2c2c:	fc 91       	ld	r31, X
    2c2e:	15 97       	sbiw	r26, 0x05	; 5
    2c30:	09 95       	icall
    2c32:	bf ef       	ldi	r27, 0xFF	; 255
    2c34:	e3 ed       	ldi	r30, 0xD3	; 211
    2c36:	f0 e3       	ldi	r31, 0x30	; 48
    2c38:	b1 50       	subi	r27, 0x01	; 1
    2c3a:	e0 40       	sbci	r30, 0x00	; 0
    2c3c:	f0 40       	sbci	r31, 0x00	; 0
    2c3e:	e1 f7       	brne	.-8      	; 0x2c38 <main+0x9fa>
    2c40:	00 c0       	rjmp	.+0      	; 0x2c42 <main+0xa04>
    2c42:	00 00       	nop
    2c44:	11 50       	subi	r17, 0x01	; 1
    2c46:	b1 f6       	brne	.-84     	; 0x2bf4 <main+0x9b6>
					for(i=0;i<8;i++){
						shift.bit(0);
						shift.out();
						_delay_ms(repeat_1);
					}
					for(i=0;i<8;i++){
    2c48:	17 e0       	ldi	r17, 0x07	; 7
    2c4a:	d4 01       	movw	r26, r8
						shift.out();
						_delay_ms(repeat_1);
					}
					
					for(i=7;i;i--){
						shift.bit(1);
    2c4c:	ed 91       	ld	r30, X+
    2c4e:	fc 91       	ld	r31, X
    2c50:	81 e0       	ldi	r24, 0x01	; 1
    2c52:	09 95       	icall
    2c54:	d4 01       	movw	r26, r8
						shift.out();
    2c56:	14 96       	adiw	r26, 0x04	; 4
    2c58:	ed 91       	ld	r30, X+
    2c5a:	fc 91       	ld	r31, X
    2c5c:	15 97       	sbiw	r26, 0x05	; 5
    2c5e:	09 95       	icall
    2c60:	bf ef       	ldi	r27, 0xFF	; 255
    2c62:	e3 ed       	ldi	r30, 0xD3	; 211
    2c64:	f0 e3       	ldi	r31, 0x30	; 48
    2c66:	b1 50       	subi	r27, 0x01	; 1
    2c68:	e0 40       	sbci	r30, 0x00	; 0
    2c6a:	f0 40       	sbci	r31, 0x00	; 0
    2c6c:	e1 f7       	brne	.-8      	; 0x2c66 <main+0xa28>
    2c6e:	00 c0       	rjmp	.+0      	; 0x2c70 <main+0xa32>
    2c70:	00 00       	nop
    2c72:	11 50       	subi	r17, 0x01	; 1
    2c74:	51 f7       	brne	.-44     	; 0x2c4a <main+0xa0c>
						shift.bit(0);
						shift.out();
						_delay_ms(repeat_1);
					}
					
					for(i=7;i;i--){
    2c76:	17 e0       	ldi	r17, 0x07	; 7
    2c78:	d4 01       	movw	r26, r8
						shift.bit(1);
						shift.out();
						_delay_ms(repeat_1);
					}
					for(i=7;i;i--){
						shift.bit(0);
    2c7a:	ed 91       	ld	r30, X+
    2c7c:	fc 91       	ld	r31, X
    2c7e:	80 e0       	ldi	r24, 0x00	; 0
    2c80:	09 95       	icall
    2c82:	d4 01       	movw	r26, r8
						shift.out();
    2c84:	14 96       	adiw	r26, 0x04	; 4
    2c86:	ed 91       	ld	r30, X+
    2c88:	fc 91       	ld	r31, X
    2c8a:	15 97       	sbiw	r26, 0x05	; 5
    2c8c:	09 95       	icall
    2c8e:	bf ef       	ldi	r27, 0xFF	; 255
    2c90:	e3 ed       	ldi	r30, 0xD3	; 211
    2c92:	f0 e3       	ldi	r31, 0x30	; 48
    2c94:	b1 50       	subi	r27, 0x01	; 1
    2c96:	e0 40       	sbci	r30, 0x00	; 0
    2c98:	f0 40       	sbci	r31, 0x00	; 0
    2c9a:	e1 f7       	brne	.-8      	; 0x2c94 <main+0xa56>
    2c9c:	00 c0       	rjmp	.+0      	; 0x2c9e <main+0xa60>
    2c9e:	00 00       	nop
    2ca0:	11 50       	subi	r17, 0x01	; 1
    2ca2:	51 f7       	brne	.-44     	; 0x2c78 <main+0xa3a>
					for(i=7;i;i--){
						shift.bit(1);
						shift.out();
						_delay_ms(repeat_1);
					}
					for(i=7;i;i--){
    2ca4:	17 e0       	ldi	r17, 0x07	; 7
    2ca6:	d4 01       	movw	r26, r8
						shift.bit(0);
						shift.out();
						_delay_ms(repeat_1);
					}
					for(i=7;i;i--){
						shift.bit(1);
    2ca8:	ed 91       	ld	r30, X+
    2caa:	fc 91       	ld	r31, X
    2cac:	81 e0       	ldi	r24, 0x01	; 1
    2cae:	09 95       	icall
    2cb0:	d4 01       	movw	r26, r8
						shift.out();
    2cb2:	14 96       	adiw	r26, 0x04	; 4
    2cb4:	ed 91       	ld	r30, X+
    2cb6:	fc 91       	ld	r31, X
    2cb8:	15 97       	sbiw	r26, 0x05	; 5
    2cba:	09 95       	icall
    2cbc:	bf ef       	ldi	r27, 0xFF	; 255
    2cbe:	e3 ed       	ldi	r30, 0xD3	; 211
    2cc0:	f0 e3       	ldi	r31, 0x30	; 48
    2cc2:	b1 50       	subi	r27, 0x01	; 1
    2cc4:	e0 40       	sbci	r30, 0x00	; 0
    2cc6:	f0 40       	sbci	r31, 0x00	; 0
    2cc8:	e1 f7       	brne	.-8      	; 0x2cc2 <main+0xa84>
    2cca:	00 c0       	rjmp	.+0      	; 0x2ccc <main+0xa8e>
    2ccc:	00 00       	nop
    2cce:	d4 01       	movw	r26, r8
						_delay_ms(repeat_1);
						shift.bit(0);
    2cd0:	ed 91       	ld	r30, X+
    2cd2:	fc 91       	ld	r31, X
    2cd4:	80 e0       	ldi	r24, 0x00	; 0
    2cd6:	09 95       	icall
    2cd8:	d4 01       	movw	r26, r8
						shift.out();
    2cda:	14 96       	adiw	r26, 0x04	; 4
    2cdc:	ed 91       	ld	r30, X+
    2cde:	fc 91       	ld	r31, X
    2ce0:	15 97       	sbiw	r26, 0x05	; 5
    2ce2:	09 95       	icall
    2ce4:	bf ef       	ldi	r27, 0xFF	; 255
    2ce6:	e3 ed       	ldi	r30, 0xD3	; 211
    2ce8:	f0 e3       	ldi	r31, 0x30	; 48
    2cea:	b1 50       	subi	r27, 0x01	; 1
    2cec:	e0 40       	sbci	r30, 0x00	; 0
    2cee:	f0 40       	sbci	r31, 0x00	; 0
    2cf0:	e1 f7       	brne	.-8      	; 0x2cea <main+0xaac>
    2cf2:	00 c0       	rjmp	.+0      	; 0x2cf4 <main+0xab6>
    2cf4:	00 00       	nop
    2cf6:	11 50       	subi	r17, 0x01	; 1
    2cf8:	b1 f6       	brne	.-84     	; 0x2ca6 <main+0xa68>
					for(i=7;i;i--){
						shift.bit(0);
						shift.out();
						_delay_ms(repeat_1);
					}
					for(i=7;i;i--){
    2cfa:	00 e0       	ldi	r16, 0x00	; 0
    2cfc:	10 e0       	ldi	r17, 0x00	; 0
    2cfe:	d4 01       	movw	r26, r8
						shift.bit(0);
						shift.out();
						_delay_ms(repeat_1);
					}
					for(i=0;i<8;i++){
						shift.byte(1<<i);
    2d00:	12 96       	adiw	r26, 0x02	; 2
    2d02:	ed 91       	ld	r30, X+
    2d04:	fc 91       	ld	r31, X
    2d06:	13 97       	sbiw	r26, 0x03	; 3
    2d08:	8a 2d       	mov	r24, r10
    2d0a:	00 2e       	mov	r0, r16
    2d0c:	01 c0       	rjmp	.+2      	; 0x2d10 <main+0xad2>
    2d0e:	88 0f       	add	r24, r24
    2d10:	0a 94       	dec	r0
    2d12:	ea f7       	brpl	.-6      	; 0x2d0e <main+0xad0>
    2d14:	09 95       	icall
    2d16:	bf ef       	ldi	r27, 0xFF	; 255
    2d18:	e3 ed       	ldi	r30, 0xD3	; 211
    2d1a:	f0 e3       	ldi	r31, 0x30	; 48
    2d1c:	b1 50       	subi	r27, 0x01	; 1
    2d1e:	e0 40       	sbci	r30, 0x00	; 0
    2d20:	f0 40       	sbci	r31, 0x00	; 0
    2d22:	e1 f7       	brne	.-8      	; 0x2d1c <main+0xade>
    2d24:	00 c0       	rjmp	.+0      	; 0x2d26 <main+0xae8>
    2d26:	00 00       	nop
    2d28:	0f 5f       	subi	r16, 0xFF	; 255
    2d2a:	1f 4f       	sbci	r17, 0xFF	; 255
    2d2c:	08 30       	cpi	r16, 0x08	; 8
						_delay_ms(repeat_1);
						shift.bit(0);
						shift.out();
						_delay_ms(repeat_1);
					}
					for(i=0;i<8;i++){
    2d2e:	11 05       	cpc	r17, r1
    2d30:	31 f7       	brne	.-52     	; 0x2cfe <main+0xac0>
    2d32:	0f 2e       	mov	r0, r31
    2d34:	fa e0       	ldi	r31, 0x0A	; 10
    2d36:	df 2e       	mov	r13, r31
    2d38:	f0 2d       	mov	r31, r0
    2d3a:	40 c0       	rjmp	.+128    	; 0x2dbc <main+0xb7e>
    2d3c:	c5 01       	movw	r24, r10
						shift.byte(1<<i);
						_delay_ms(repeat_1);
					}
					for(j=0;j<10;j++){
						for(i=0;i<8;i++){
							shift.byte(~(1<<i));
    2d3e:	00 2e       	mov	r0, r16
    2d40:	02 c0       	rjmp	.+4      	; 0x2d46 <main+0xb08>
    2d42:	88 0f       	add	r24, r24
    2d44:	99 1f       	adc	r25, r25
    2d46:	0a 94       	dec	r0
    2d48:	e2 f7       	brpl	.-8      	; 0x2d42 <main+0xb04>
    2d4a:	d4 01       	movw	r26, r8
    2d4c:	12 96       	adiw	r26, 0x02	; 2
    2d4e:	ed 91       	ld	r30, X+
    2d50:	fc 91       	ld	r31, X
    2d52:	13 97       	sbiw	r26, 0x03	; 3
    2d54:	80 95       	com	r24
    2d56:	09 95       	icall
    2d58:	bf ef       	ldi	r27, 0xFF	; 255
    2d5a:	e3 ed       	ldi	r30, 0xD3	; 211
    2d5c:	f0 e3       	ldi	r31, 0x30	; 48
    2d5e:	b1 50       	subi	r27, 0x01	; 1
    2d60:	e0 40       	sbci	r30, 0x00	; 0
    2d62:	f0 40       	sbci	r31, 0x00	; 0
    2d64:	e1 f7       	brne	.-8      	; 0x2d5e <main+0xb20>
    2d66:	00 c0       	rjmp	.+0      	; 0x2d68 <main+0xb2a>
    2d68:	00 00       	nop
    2d6a:	0f 5f       	subi	r16, 0xFF	; 255
    2d6c:	1f 4f       	sbci	r17, 0xFF	; 255
    2d6e:	08 30       	cpi	r16, 0x08	; 8
					for(i=0;i<8;i++){
						shift.byte(1<<i);
						_delay_ms(repeat_1);
					}
					for(j=0;j<10;j++){
						for(i=0;i<8;i++){
    2d70:	11 05       	cpc	r17, r1
    2d72:	21 f7       	brne	.-56     	; 0x2d3c <main+0xafe>
    2d74:	0f 2e       	mov	r0, r31
    2d76:	f6 e0       	ldi	r31, 0x06	; 6
    2d78:	ef 2e       	mov	r14, r31
    2d7a:	f1 2c       	mov	r15, r1
    2d7c:	f0 2d       	mov	r31, r0
    2d7e:	c5 01       	movw	r24, r10
							shift.byte(~(1<<i));
							_delay_ms(repeat_1);
						}
						for(i=6;i;i--){
							shift.byte(~(1<<i));
    2d80:	0e 2c       	mov	r0, r14
    2d82:	02 c0       	rjmp	.+4      	; 0x2d88 <main+0xb4a>
    2d84:	88 0f       	add	r24, r24
    2d86:	99 1f       	adc	r25, r25
    2d88:	0a 94       	dec	r0
    2d8a:	e2 f7       	brpl	.-8      	; 0x2d84 <main+0xb46>
    2d8c:	d4 01       	movw	r26, r8
    2d8e:	12 96       	adiw	r26, 0x02	; 2
    2d90:	ed 91       	ld	r30, X+
    2d92:	fc 91       	ld	r31, X
    2d94:	13 97       	sbiw	r26, 0x03	; 3
    2d96:	80 95       	com	r24
    2d98:	09 95       	icall
    2d9a:	bf ef       	ldi	r27, 0xFF	; 255
    2d9c:	e3 ed       	ldi	r30, 0xD3	; 211
    2d9e:	f0 e3       	ldi	r31, 0x30	; 48
    2da0:	b1 50       	subi	r27, 0x01	; 1
    2da2:	e0 40       	sbci	r30, 0x00	; 0
    2da4:	f0 40       	sbci	r31, 0x00	; 0
    2da6:	e1 f7       	brne	.-8      	; 0x2da0 <main+0xb62>
    2da8:	00 c0       	rjmp	.+0      	; 0x2daa <main+0xb6c>
    2daa:	00 00       	nop
    2dac:	21 e0       	ldi	r18, 0x01	; 1
    2dae:	e2 1a       	sub	r14, r18
    2db0:	f1 08       	sbc	r15, r1
    2db2:	29 f7       	brne	.-54     	; 0x2d7e <main+0xb40>
					for(j=0;j<10;j++){
						for(i=0;i<8;i++){
							shift.byte(~(1<<i));
							_delay_ms(repeat_1);
						}
						for(i=6;i;i--){
    2db4:	da 94       	dec	r13
    2db6:	dd 20       	and	r13, r13
					}
					for(i=0;i<8;i++){
						shift.byte(1<<i);
						_delay_ms(repeat_1);
					}
					for(j=0;j<10;j++){
    2db8:	09 f4       	brne	.+2      	; 0x2dbc <main+0xb7e>
    2dba:	3f c0       	rjmp	.+126    	; 0x2e3a <main+0xbfc>
    2dbc:	00 e0       	ldi	r16, 0x00	; 0
    2dbe:	10 e0       	ldi	r17, 0x00	; 0
    2dc0:	bd cf       	rjmp	.-134    	; 0x2d3c <main+0xafe>
    2dc2:	c6 01       	movw	r24, r12
							_delay_ms(repeat_1);
						}
					}
					for(j=0;j<10;j++){
						for(i=0;i<8;i++){
							shift.byte(~(3<<i));
    2dc4:	00 2e       	mov	r0, r16
    2dc6:	02 c0       	rjmp	.+4      	; 0x2dcc <main+0xb8e>
    2dc8:	88 0f       	add	r24, r24
    2dca:	99 1f       	adc	r25, r25
    2dcc:	0a 94       	dec	r0
    2dce:	e2 f7       	brpl	.-8      	; 0x2dc8 <main+0xb8a>
    2dd0:	d4 01       	movw	r26, r8
    2dd2:	12 96       	adiw	r26, 0x02	; 2
    2dd4:	ed 91       	ld	r30, X+
    2dd6:	fc 91       	ld	r31, X
    2dd8:	13 97       	sbiw	r26, 0x03	; 3
    2dda:	80 95       	com	r24
    2ddc:	09 95       	icall
    2dde:	bf ef       	ldi	r27, 0xFF	; 255
    2de0:	e3 ed       	ldi	r30, 0xD3	; 211
    2de2:	f0 e3       	ldi	r31, 0x30	; 48
    2de4:	b1 50       	subi	r27, 0x01	; 1
    2de6:	e0 40       	sbci	r30, 0x00	; 0
    2de8:	f0 40       	sbci	r31, 0x00	; 0
    2dea:	e1 f7       	brne	.-8      	; 0x2de4 <main+0xba6>
    2dec:	00 c0       	rjmp	.+0      	; 0x2dee <main+0xbb0>
    2dee:	00 00       	nop
    2df0:	0f 5f       	subi	r16, 0xFF	; 255
    2df2:	1f 4f       	sbci	r17, 0xFF	; 255
    2df4:	08 30       	cpi	r16, 0x08	; 8
							shift.byte(~(1<<i));
							_delay_ms(repeat_1);
						}
					}
					for(j=0;j<10;j++){
						for(i=0;i<8;i++){
    2df6:	11 05       	cpc	r17, r1
    2df8:	21 f7       	brne	.-56     	; 0x2dc2 <main+0xb84>
    2dfa:	06 e0       	ldi	r16, 0x06	; 6
    2dfc:	10 e0       	ldi	r17, 0x00	; 0
    2dfe:	c6 01       	movw	r24, r12
							shift.byte(~(3<<i));
							_delay_ms(repeat_1);
						}
						for(i=6;i;i--){
							shift.byte(~(3<<i));
    2e00:	00 2e       	mov	r0, r16
    2e02:	02 c0       	rjmp	.+4      	; 0x2e08 <main+0xbca>
    2e04:	88 0f       	add	r24, r24
    2e06:	99 1f       	adc	r25, r25
    2e08:	0a 94       	dec	r0
    2e0a:	e2 f7       	brpl	.-8      	; 0x2e04 <main+0xbc6>
    2e0c:	d4 01       	movw	r26, r8
    2e0e:	12 96       	adiw	r26, 0x02	; 2
    2e10:	ed 91       	ld	r30, X+
    2e12:	fc 91       	ld	r31, X
    2e14:	13 97       	sbiw	r26, 0x03	; 3
    2e16:	80 95       	com	r24
    2e18:	09 95       	icall
    2e1a:	bf ef       	ldi	r27, 0xFF	; 255
    2e1c:	e3 ed       	ldi	r30, 0xD3	; 211
    2e1e:	f0 e3       	ldi	r31, 0x30	; 48
    2e20:	b1 50       	subi	r27, 0x01	; 1
    2e22:	e0 40       	sbci	r30, 0x00	; 0
    2e24:	f0 40       	sbci	r31, 0x00	; 0
    2e26:	e1 f7       	brne	.-8      	; 0x2e20 <main+0xbe2>
    2e28:	00 c0       	rjmp	.+0      	; 0x2e2a <main+0xbec>
    2e2a:	00 00       	nop
    2e2c:	01 50       	subi	r16, 0x01	; 1
    2e2e:	11 09       	sbc	r17, r1
    2e30:	31 f7       	brne	.-52     	; 0x2dfe <main+0xbc0>
					for(j=0;j<10;j++){
						for(i=0;i<8;i++){
							shift.byte(~(3<<i));
							_delay_ms(repeat_1);
						}
						for(i=6;i;i--){
    2e32:	5a 94       	dec	r5
    2e34:	51 10       	cpse	r5, r1
						for(i=6;i;i--){
							shift.byte(~(1<<i));
							_delay_ms(repeat_1);
						}
					}
					for(j=0;j<10;j++){
    2e36:	0a c0       	rjmp	.+20     	; 0x2e4c <main+0xc0e>
    2e38:	4d c0       	rjmp	.+154    	; 0x2ed4 <main+0xc96>
    2e3a:	0f 2e       	mov	r0, r31
    2e3c:	fa e0       	ldi	r31, 0x0A	; 10
    2e3e:	5f 2e       	mov	r5, r31
    2e40:	f0 2d       	mov	r31, r0
    2e42:	0f 2e       	mov	r0, r31
						for(i=0;i<8;i++){
							shift.byte(~(3<<i));
    2e44:	f3 e0       	ldi	r31, 0x03	; 3
    2e46:	cf 2e       	mov	r12, r31
    2e48:	d1 2c       	mov	r13, r1
    2e4a:	f0 2d       	mov	r31, r0
    2e4c:	87 01       	movw	r16, r14
    2e4e:	b9 cf       	rjmp	.-142    	; 0x2dc2 <main+0xb84>
    2e50:	c3 01       	movw	r24, r6
							_delay_ms(repeat_1);
						}
					}
					for(j=0;j<10;j++){
						for(i=0;i<8;i++){
							shift.byte(~(7<<i));
    2e52:	0e 2c       	mov	r0, r14
    2e54:	02 c0       	rjmp	.+4      	; 0x2e5a <main+0xc1c>
    2e56:	88 0f       	add	r24, r24
    2e58:	99 1f       	adc	r25, r25
    2e5a:	0a 94       	dec	r0
    2e5c:	e2 f7       	brpl	.-8      	; 0x2e56 <main+0xc18>
    2e5e:	d4 01       	movw	r26, r8
    2e60:	12 96       	adiw	r26, 0x02	; 2
    2e62:	ed 91       	ld	r30, X+
    2e64:	fc 91       	ld	r31, X
    2e66:	13 97       	sbiw	r26, 0x03	; 3
    2e68:	80 95       	com	r24
    2e6a:	09 95       	icall
    2e6c:	bf ef       	ldi	r27, 0xFF	; 255
    2e6e:	e3 ed       	ldi	r30, 0xD3	; 211
    2e70:	f0 e3       	ldi	r31, 0x30	; 48
    2e72:	b1 50       	subi	r27, 0x01	; 1
    2e74:	e0 40       	sbci	r30, 0x00	; 0
    2e76:	f0 40       	sbci	r31, 0x00	; 0
    2e78:	e1 f7       	brne	.-8      	; 0x2e72 <main+0xc34>
    2e7a:	00 c0       	rjmp	.+0      	; 0x2e7c <main+0xc3e>
    2e7c:	00 00       	nop
    2e7e:	2f ef       	ldi	r18, 0xFF	; 255
    2e80:	e2 1a       	sub	r14, r18
    2e82:	f2 0a       	sbc	r15, r18
    2e84:	88 e0       	ldi	r24, 0x08	; 8
							shift.byte(~(3<<i));
							_delay_ms(repeat_1);
						}
					}
					for(j=0;j<10;j++){
						for(i=0;i<8;i++){
    2e86:	e8 16       	cp	r14, r24
    2e88:	f1 04       	cpc	r15, r1
    2e8a:	11 f7       	brne	.-60     	; 0x2e50 <main+0xc12>
    2e8c:	0f 2e       	mov	r0, r31
    2e8e:	f6 e0       	ldi	r31, 0x06	; 6
    2e90:	ef 2e       	mov	r14, r31
    2e92:	f1 2c       	mov	r15, r1
    2e94:	f0 2d       	mov	r31, r0
    2e96:	c3 01       	movw	r24, r6
							shift.byte(~(7<<i));
							_delay_ms(repeat_1);
						}
						for(i=6;i;i--){
							shift.byte(~(7<<i));
    2e98:	0e 2c       	mov	r0, r14
    2e9a:	02 c0       	rjmp	.+4      	; 0x2ea0 <main+0xc62>
    2e9c:	88 0f       	add	r24, r24
    2e9e:	99 1f       	adc	r25, r25
    2ea0:	0a 94       	dec	r0
    2ea2:	e2 f7       	brpl	.-8      	; 0x2e9c <main+0xc5e>
    2ea4:	d4 01       	movw	r26, r8
    2ea6:	12 96       	adiw	r26, 0x02	; 2
    2ea8:	ed 91       	ld	r30, X+
    2eaa:	fc 91       	ld	r31, X
    2eac:	13 97       	sbiw	r26, 0x03	; 3
    2eae:	80 95       	com	r24
    2eb0:	09 95       	icall
    2eb2:	bf ef       	ldi	r27, 0xFF	; 255
    2eb4:	e3 ed       	ldi	r30, 0xD3	; 211
    2eb6:	f0 e3       	ldi	r31, 0x30	; 48
    2eb8:	b1 50       	subi	r27, 0x01	; 1
    2eba:	e0 40       	sbci	r30, 0x00	; 0
    2ebc:	f0 40       	sbci	r31, 0x00	; 0
    2ebe:	e1 f7       	brne	.-8      	; 0x2eb8 <main+0xc7a>
    2ec0:	00 c0       	rjmp	.+0      	; 0x2ec2 <main+0xc84>
    2ec2:	00 00       	nop
    2ec4:	21 e0       	ldi	r18, 0x01	; 1
    2ec6:	e2 1a       	sub	r14, r18
    2ec8:	f1 08       	sbc	r15, r1
    2eca:	29 f7       	brne	.-54     	; 0x2e96 <main+0xc58>
					for(j=0;j<10;j++){
						for(i=0;i<8;i++){
							shift.byte(~(7<<i));
							_delay_ms(repeat_1);
						}
						for(i=6;i;i--){
    2ecc:	da 94       	dec	r13
    2ece:	d1 10       	cpse	r13, r1
						for(i=6;i;i--){
							shift.byte(~(3<<i));
							_delay_ms(repeat_1);
						}
					}
					for(j=0;j<10;j++){
    2ed0:	05 c0       	rjmp	.+10     	; 0x2edc <main+0xc9e>
    2ed2:	42 c0       	rjmp	.+132    	; 0x2f58 <main+0xd1a>
    2ed4:	0f 2e       	mov	r0, r31
    2ed6:	fa e0       	ldi	r31, 0x0A	; 10
    2ed8:	df 2e       	mov	r13, r31
    2eda:	f0 2d       	mov	r31, r0
    2edc:	78 01       	movw	r14, r16
    2ede:	b8 cf       	rjmp	.-144    	; 0x2e50 <main+0xc12>
    2ee0:	c1 01       	movw	r24, r2
							_delay_ms(repeat_1);
						}
					}
					for(j=0;j<10;j++){
						for(i=0;i<8;i++){
							shift.byte(~(0x0F<<i));
    2ee2:	00 2e       	mov	r0, r16
    2ee4:	02 c0       	rjmp	.+4      	; 0x2eea <main+0xcac>
    2ee6:	88 0f       	add	r24, r24
    2ee8:	99 1f       	adc	r25, r25
    2eea:	0a 94       	dec	r0
    2eec:	e2 f7       	brpl	.-8      	; 0x2ee6 <main+0xca8>
    2eee:	d4 01       	movw	r26, r8
    2ef0:	12 96       	adiw	r26, 0x02	; 2
    2ef2:	ed 91       	ld	r30, X+
    2ef4:	fc 91       	ld	r31, X
    2ef6:	13 97       	sbiw	r26, 0x03	; 3
    2ef8:	80 95       	com	r24
    2efa:	09 95       	icall
    2efc:	bf ef       	ldi	r27, 0xFF	; 255
    2efe:	e3 ed       	ldi	r30, 0xD3	; 211
    2f00:	f0 e3       	ldi	r31, 0x30	; 48
    2f02:	b1 50       	subi	r27, 0x01	; 1
    2f04:	e0 40       	sbci	r30, 0x00	; 0
    2f06:	f0 40       	sbci	r31, 0x00	; 0
    2f08:	e1 f7       	brne	.-8      	; 0x2f02 <main+0xcc4>
    2f0a:	00 c0       	rjmp	.+0      	; 0x2f0c <main+0xcce>
    2f0c:	00 00       	nop
    2f0e:	0f 5f       	subi	r16, 0xFF	; 255
    2f10:	1f 4f       	sbci	r17, 0xFF	; 255
    2f12:	08 30       	cpi	r16, 0x08	; 8
							shift.byte(~(7<<i));
							_delay_ms(repeat_1);
						}
					}
					for(j=0;j<10;j++){
						for(i=0;i<8;i++){
    2f14:	11 05       	cpc	r17, r1
    2f16:	21 f7       	brne	.-56     	; 0x2ee0 <main+0xca2>
    2f18:	06 e0       	ldi	r16, 0x06	; 6
    2f1a:	10 e0       	ldi	r17, 0x00	; 0
    2f1c:	c1 01       	movw	r24, r2
							shift.byte(~(0x0F<<i));
							_delay_ms(repeat_1);
						}
						for(i=6;i;i--){
							shift.byte(~(0x0F<<i));
    2f1e:	00 2e       	mov	r0, r16
    2f20:	02 c0       	rjmp	.+4      	; 0x2f26 <main+0xce8>
    2f22:	88 0f       	add	r24, r24
    2f24:	99 1f       	adc	r25, r25
    2f26:	0a 94       	dec	r0
    2f28:	e2 f7       	brpl	.-8      	; 0x2f22 <main+0xce4>
    2f2a:	d4 01       	movw	r26, r8
    2f2c:	12 96       	adiw	r26, 0x02	; 2
    2f2e:	ed 91       	ld	r30, X+
    2f30:	fc 91       	ld	r31, X
    2f32:	13 97       	sbiw	r26, 0x03	; 3
    2f34:	80 95       	com	r24
    2f36:	09 95       	icall
    2f38:	bf ef       	ldi	r27, 0xFF	; 255
    2f3a:	e3 ed       	ldi	r30, 0xD3	; 211
    2f3c:	f0 e3       	ldi	r31, 0x30	; 48
    2f3e:	b1 50       	subi	r27, 0x01	; 1
    2f40:	e0 40       	sbci	r30, 0x00	; 0
    2f42:	f0 40       	sbci	r31, 0x00	; 0
    2f44:	e1 f7       	brne	.-8      	; 0x2f3e <main+0xd00>
    2f46:	00 c0       	rjmp	.+0      	; 0x2f48 <main+0xd0a>
    2f48:	00 00       	nop
    2f4a:	01 50       	subi	r16, 0x01	; 1
    2f4c:	11 09       	sbc	r17, r1
    2f4e:	31 f7       	brne	.-52     	; 0x2f1c <main+0xcde>
					for(j=0;j<10;j++){
						for(i=0;i<8;i++){
							shift.byte(~(0x0F<<i));
							_delay_ms(repeat_1);
						}
						for(i=6;i;i--){
    2f50:	da 94       	dec	r13
    2f52:	d1 10       	cpse	r13, r1
						for(i=6;i;i--){
							shift.byte(~(7<<i));
							_delay_ms(repeat_1);
						}
					}
					for(j=0;j<10;j++){
    2f54:	05 c0       	rjmp	.+10     	; 0x2f60 <main+0xd22>
    2f56:	48 c0       	rjmp	.+144    	; 0x2fe8 <main+0xdaa>
    2f58:	0f 2e       	mov	r0, r31
    2f5a:	fa e0       	ldi	r31, 0x0A	; 10
    2f5c:	df 2e       	mov	r13, r31
    2f5e:	f0 2d       	mov	r31, r0
    2f60:	87 01       	movw	r16, r14
    2f62:	be cf       	rjmp	.-132    	; 0x2ee0 <main+0xca2>
    2f64:	c7 01       	movw	r24, r14
							_delay_ms(repeat_1);
						}
					}
					for(j=0;j<20;j++){
						for(i=0;i<8;i++){
							shift.byte(~(0x05<<i));
    2f66:	0c 2c       	mov	r0, r12
    2f68:	02 c0       	rjmp	.+4      	; 0x2f6e <main+0xd30>
    2f6a:	88 0f       	add	r24, r24
    2f6c:	99 1f       	adc	r25, r25
    2f6e:	0a 94       	dec	r0
    2f70:	e2 f7       	brpl	.-8      	; 0x2f6a <main+0xd2c>
    2f72:	d4 01       	movw	r26, r8
    2f74:	12 96       	adiw	r26, 0x02	; 2
    2f76:	ed 91       	ld	r30, X+
    2f78:	fc 91       	ld	r31, X
    2f7a:	13 97       	sbiw	r26, 0x03	; 3
    2f7c:	80 95       	com	r24
    2f7e:	09 95       	icall
    2f80:	bf ef       	ldi	r27, 0xFF	; 255
    2f82:	e3 ed       	ldi	r30, 0xD3	; 211
    2f84:	f0 e3       	ldi	r31, 0x30	; 48
    2f86:	b1 50       	subi	r27, 0x01	; 1
    2f88:	e0 40       	sbci	r30, 0x00	; 0
    2f8a:	f0 40       	sbci	r31, 0x00	; 0
    2f8c:	e1 f7       	brne	.-8      	; 0x2f86 <main+0xd48>
    2f8e:	00 c0       	rjmp	.+0      	; 0x2f90 <main+0xd52>
    2f90:	00 00       	nop
    2f92:	2f ef       	ldi	r18, 0xFF	; 255
    2f94:	c2 1a       	sub	r12, r18
    2f96:	d2 0a       	sbc	r13, r18
    2f98:	88 e0       	ldi	r24, 0x08	; 8
							shift.byte(~(0x0F<<i));
							_delay_ms(repeat_1);
						}
					}
					for(j=0;j<20;j++){
						for(i=0;i<8;i++){
    2f9a:	c8 16       	cp	r12, r24
    2f9c:	d1 04       	cpc	r13, r1
    2f9e:	11 f7       	brne	.-60     	; 0x2f64 <main+0xd26>
    2fa0:	0f 2e       	mov	r0, r31
    2fa2:	f6 e0       	ldi	r31, 0x06	; 6
    2fa4:	cf 2e       	mov	r12, r31
    2fa6:	d1 2c       	mov	r13, r1
    2fa8:	f0 2d       	mov	r31, r0
    2faa:	c7 01       	movw	r24, r14
							shift.byte(~(0x05<<i));
							_delay_ms(repeat_1);
						}
						for(i=6;i;i--){
							shift.byte(~(0x05<<i));
    2fac:	0c 2c       	mov	r0, r12
    2fae:	02 c0       	rjmp	.+4      	; 0x2fb4 <main+0xd76>
    2fb0:	88 0f       	add	r24, r24
    2fb2:	99 1f       	adc	r25, r25
    2fb4:	0a 94       	dec	r0
    2fb6:	e2 f7       	brpl	.-8      	; 0x2fb0 <main+0xd72>
    2fb8:	d4 01       	movw	r26, r8
    2fba:	12 96       	adiw	r26, 0x02	; 2
    2fbc:	ed 91       	ld	r30, X+
    2fbe:	fc 91       	ld	r31, X
    2fc0:	13 97       	sbiw	r26, 0x03	; 3
    2fc2:	80 95       	com	r24
    2fc4:	09 95       	icall
    2fc6:	bf ef       	ldi	r27, 0xFF	; 255
    2fc8:	e3 ed       	ldi	r30, 0xD3	; 211
    2fca:	f0 e3       	ldi	r31, 0x30	; 48
    2fcc:	b1 50       	subi	r27, 0x01	; 1
    2fce:	e0 40       	sbci	r30, 0x00	; 0
    2fd0:	f0 40       	sbci	r31, 0x00	; 0
    2fd2:	e1 f7       	brne	.-8      	; 0x2fcc <main+0xd8e>
    2fd4:	00 c0       	rjmp	.+0      	; 0x2fd6 <main+0xd98>
    2fd6:	00 00       	nop
    2fd8:	21 e0       	ldi	r18, 0x01	; 1
    2fda:	c2 1a       	sub	r12, r18
    2fdc:	d1 08       	sbc	r13, r1
    2fde:	29 f7       	brne	.-54     	; 0x2faa <main+0xd6c>
					for(j=0;j<20;j++){
						for(i=0;i<8;i++){
							shift.byte(~(0x05<<i));
							_delay_ms(repeat_1);
						}
						for(i=6;i;i--){
    2fe0:	5a 94       	dec	r5
    2fe2:	51 10       	cpse	r5, r1
						for(i=6;i;i--){
							shift.byte(~(0x0F<<i));
							_delay_ms(repeat_1);
						}
					}
					for(j=0;j<20;j++){
    2fe4:	0a c0       	rjmp	.+20     	; 0x2ffa <main+0xdbc>
    2fe6:	0e c0       	rjmp	.+28     	; 0x3004 <main+0xdc6>
    2fe8:	0f 2e       	mov	r0, r31
    2fea:	f4 e1       	ldi	r31, 0x14	; 20
    2fec:	5f 2e       	mov	r5, r31
    2fee:	f0 2d       	mov	r31, r0
    2ff0:	0f 2e       	mov	r0, r31
						for(i=0;i<8;i++){
							shift.byte(~(0x05<<i));
    2ff2:	f5 e0       	ldi	r31, 0x05	; 5
    2ff4:	ef 2e       	mov	r14, r31
    2ff6:	f1 2c       	mov	r15, r1
    2ff8:	f0 2d       	mov	r31, r0
    2ffa:	68 01       	movw	r12, r16
    2ffc:	b3 cf       	rjmp	.-154    	; 0x2f64 <main+0xd26>
    2ffe:	aa 24       	eor	r10, r10
						shift.bit(0);
						shift.out();
						_delay_ms(repeat_1);
					}
					for(i=0;i<8;i++){
						shift.byte(1<<i);
    3000:	a3 94       	inc	r10
    3002:	b1 2c       	mov	r11, r1
    3004:	2e 96       	adiw	r28, 0x0e	; 14
	pid_2.set_SP(&pid_2, 125);
	/**********/
	//TODO:: Please write your application code
	while(TRUE){
		/***PREAMBLE***/
		lcd0.reboot();
    3006:	ee ad       	ldd	r30, Y+62	; 0x3e
    3008:	ff ad       	ldd	r31, Y+63	; 0x3f
    300a:	2e 97       	sbiw	r28, 0x0e	; 14
    300c:	09 95       	icall
    300e:	62 96       	adiw	r28, 0x12	; 18
		keypad.read();
    3010:	ee ad       	ldd	r30, Y+62	; 0x3e
    3012:	ff ad       	ldd	r31, Y+63	; 0x3f
    3014:	62 97       	sbiw	r28, 0x12	; 18
    3016:	09 95       	icall
    3018:	6d e0       	ldi	r22, 0x0D	; 13
		//uartreceive=uart.read();
		/***Reading input***/
		lcd0.gotoxy(3,13);
    301a:	70 e0       	ldi	r23, 0x00	; 0
    301c:	83 e0       	ldi	r24, 0x03	; 3
    301e:	90 e0       	ldi	r25, 0x00	; 0
    3020:	c0 53       	subi	r28, 0x30	; 48
    3022:	df 4f       	sbci	r29, 0xFF	; 255
    3024:	e8 81       	ld	r30, Y
    3026:	f9 81       	ldd	r31, Y+1	; 0x01
    3028:	c0 5d       	subi	r28, 0xD0	; 208
    302a:	d0 40       	sbci	r29, 0x00	; 0
    302c:	09 95       	icall
    302e:	ee ad       	ldd	r30, Y+62	; 0x3e
		lcd0.putch(':');
    3030:	ff ad       	ldd	r31, Y+63	; 0x3f
    3032:	8a e3       	ldi	r24, 0x3A	; 58
    3034:	09 95       	icall
    3036:	c4 53       	subi	r28, 0x34	; 52
		lcd0.string_size(keypad.get().printstring,6);
    3038:	df 4f       	sbci	r29, 0xFF	; 255
    303a:	e8 81       	ld	r30, Y
    303c:	f9 81       	ldd	r31, Y+1	; 0x01
    303e:	cc 5c       	subi	r28, 0xCC	; 204
    3040:	d0 40       	sbci	r29, 0x00	; 0
    3042:	09 95       	icall
    3044:	2b ab       	std	Y+51, r18	; 0x33
    3046:	3c ab       	std	Y+52, r19	; 0x34
    3048:	4d ab       	std	Y+53, r20	; 0x35
    304a:	5e ab       	std	Y+54, r21	; 0x36
    304c:	6f ab       	std	Y+55, r22	; 0x37
    304e:	66 e0       	ldi	r22, 0x06	; 6
    3050:	8c a9       	ldd	r24, Y+52	; 0x34
    3052:	9d a9       	ldd	r25, Y+53	; 0x35
    3054:	c2 53       	subi	r28, 0x32	; 50
    3056:	df 4f       	sbci	r29, 0xFF	; 255
    3058:	e8 81       	ld	r30, Y
    305a:	f9 81       	ldd	r31, Y+1	; 0x01
    305c:	ce 5c       	subi	r28, 0xCE	; 206
    305e:	d0 40       	sbci	r29, 0x00	; 0
    3060:	09 95       	icall
					lcd0.gotoxy(3,0);
					lcd0.string_size("C - exit",8);
				break;
			/***MENU 3***/
			case '3': //Set Time and Date
				if(!strcmp(keypad.get().string,"A")){Menu='1';keypad.flush();lcd0.clear();break;}
    3062:	c4 53       	subi	r28, 0x34	; 52
    3064:	df 4f       	sbci	r29, 0xFF	; 255
    3066:	e8 81       	ld	r30, Y
    3068:	f9 81       	ldd	r31, Y+1	; 0x01
    306a:	cc 5c       	subi	r28, 0xCC	; 204
    306c:	d0 40       	sbci	r29, 0x00	; 0
    306e:	09 95       	icall
    3070:	2b 87       	std	Y+11, r18	; 0x0b
    3072:	3c 87       	std	Y+12, r19	; 0x0c
    3074:	4d 87       	std	Y+13, r20	; 0x0d
    3076:	5e 87       	std	Y+14, r21	; 0x0e
    3078:	6f 87       	std	Y+15, r22	; 0x0f
    307a:	62 e1       	ldi	r22, 0x12	; 18
    307c:	71 e0       	ldi	r23, 0x01	; 1
    307e:	8e 85       	ldd	r24, Y+14	; 0x0e
    3080:	9f 85       	ldd	r25, Y+15	; 0x0f
    3082:	c1 d3       	rcall	.+1922   	; 0x3806 <strcmp>
    3084:	89 2b       	or	r24, r25
    3086:	09 f0       	breq	.+2      	; 0x308a <main+0xe4c>
    3088:	2d cd       	rjmp	.-1446   	; 0x2ae4 <main+0x8a6>
    308a:	1d cd       	rjmp	.-1478   	; 0x2ac6 <main+0x888>
    308c:	2e 96       	adiw	r28, 0x0e	; 14
	pid_2.set_SP(&pid_2, 125);
	/**********/
	//TODO:: Please write your application code
	while(TRUE){
		/***PREAMBLE***/
		lcd0.reboot();
    308e:	ee ad       	ldd	r30, Y+62	; 0x3e
    3090:	ff ad       	ldd	r31, Y+63	; 0x3f
    3092:	2e 97       	sbiw	r28, 0x0e	; 14
    3094:	09 95       	icall
    3096:	62 96       	adiw	r28, 0x12	; 18
		keypad.read();
    3098:	ee ad       	ldd	r30, Y+62	; 0x3e
    309a:	ff ad       	ldd	r31, Y+63	; 0x3f
    309c:	62 97       	sbiw	r28, 0x12	; 18
    309e:	09 95       	icall
    30a0:	6d e0       	ldi	r22, 0x0D	; 13
		//uartreceive=uart.read();
		/***Reading input***/
		lcd0.gotoxy(3,13);
    30a2:	70 e0       	ldi	r23, 0x00	; 0
    30a4:	83 e0       	ldi	r24, 0x03	; 3
    30a6:	90 e0       	ldi	r25, 0x00	; 0
    30a8:	c0 53       	subi	r28, 0x30	; 48
    30aa:	df 4f       	sbci	r29, 0xFF	; 255
    30ac:	e8 81       	ld	r30, Y
    30ae:	f9 81       	ldd	r31, Y+1	; 0x01
    30b0:	c0 5d       	subi	r28, 0xD0	; 208
    30b2:	d0 40       	sbci	r29, 0x00	; 0
    30b4:	09 95       	icall
    30b6:	ee ad       	ldd	r30, Y+62	; 0x3e
		lcd0.putch(':');
    30b8:	ff ad       	ldd	r31, Y+63	; 0x3f
    30ba:	8a e3       	ldi	r24, 0x3A	; 58
    30bc:	09 95       	icall
    30be:	c4 53       	subi	r28, 0x34	; 52
		lcd0.string_size(keypad.get().printstring,6);
    30c0:	df 4f       	sbci	r29, 0xFF	; 255
    30c2:	e8 81       	ld	r30, Y
    30c4:	f9 81       	ldd	r31, Y+1	; 0x01
    30c6:	cc 5c       	subi	r28, 0xCC	; 204
    30c8:	d0 40       	sbci	r29, 0x00	; 0
    30ca:	09 95       	icall
    30cc:	3c ab       	std	Y+52, r19	; 0x34
    30ce:	4d ab       	std	Y+53, r20	; 0x35
    30d0:	66 e0       	ldi	r22, 0x06	; 6
    30d2:	8c a9       	ldd	r24, Y+52	; 0x34
    30d4:	9d a9       	ldd	r25, Y+53	; 0x35
    30d6:	c2 53       	subi	r28, 0x32	; 50
    30d8:	df 4f       	sbci	r29, 0xFF	; 255
    30da:	e8 81       	ld	r30, Y
    30dc:	f9 81       	ldd	r31, Y+1	; 0x01
    30de:	ce 5c       	subi	r28, 0xCE	; 206
    30e0:	d0 40       	sbci	r29, 0x00	; 0
    30e2:	09 95       	icall
    30e4:	5e ca       	rjmp	.-2884   	; 0x25a2 <main+0x364>
    30e6:	0f 2e       	mov	r0, r31
					lcd0.string_size(mstr,3);
					lcd0.gotoxy(1,0);
					lcd0.string_size("Enter Angle",11);
					if(keypad.get().character==KEYPADENTERKEY){
						strncpy(mstr,keypad.get().string,6);
						mvalue=function.strToInt(mstr);
    30e8:	fc e8       	ldi	r31, 0x8C	; 140
    30ea:	4f 2e       	mov	r4, r31
    30ec:	f3 e0       	ldi	r31, 0x03	; 3
    30ee:	5f 2e       	mov	r5, r31
    30f0:	f0 2d       	mov	r31, r0
    30f2:	2e 96       	adiw	r28, 0x0e	; 14
	pid_2.set_SP(&pid_2, 125);
	/**********/
	//TODO:: Please write your application code
	while(TRUE){
		/***PREAMBLE***/
		lcd0.reboot();
    30f4:	ee ad       	ldd	r30, Y+62	; 0x3e
    30f6:	ff ad       	ldd	r31, Y+63	; 0x3f
    30f8:	2e 97       	sbiw	r28, 0x0e	; 14
    30fa:	09 95       	icall
    30fc:	62 96       	adiw	r28, 0x12	; 18
		keypad.read();
    30fe:	ee ad       	ldd	r30, Y+62	; 0x3e
    3100:	ff ad       	ldd	r31, Y+63	; 0x3f
    3102:	62 97       	sbiw	r28, 0x12	; 18
    3104:	09 95       	icall
    3106:	6d e0       	ldi	r22, 0x0D	; 13
		//uartreceive=uart.read();
		/***Reading input***/
		lcd0.gotoxy(3,13);
    3108:	70 e0       	ldi	r23, 0x00	; 0
    310a:	83 e0       	ldi	r24, 0x03	; 3
    310c:	90 e0       	ldi	r25, 0x00	; 0
    310e:	c0 53       	subi	r28, 0x30	; 48
    3110:	df 4f       	sbci	r29, 0xFF	; 255
    3112:	e8 81       	ld	r30, Y
    3114:	f9 81       	ldd	r31, Y+1	; 0x01
    3116:	c0 5d       	subi	r28, 0xD0	; 208
    3118:	d0 40       	sbci	r29, 0x00	; 0
    311a:	09 95       	icall
    311c:	ee ad       	ldd	r30, Y+62	; 0x3e
		lcd0.putch(':');
    311e:	ff ad       	ldd	r31, Y+63	; 0x3f
    3120:	8a e3       	ldi	r24, 0x3A	; 58
    3122:	09 95       	icall
    3124:	c4 53       	subi	r28, 0x34	; 52
		lcd0.string_size(keypad.get().printstring,6);
    3126:	df 4f       	sbci	r29, 0xFF	; 255
    3128:	e8 81       	ld	r30, Y
    312a:	f9 81       	ldd	r31, Y+1	; 0x01
    312c:	cc 5c       	subi	r28, 0xCC	; 204
    312e:	d0 40       	sbci	r29, 0x00	; 0
    3130:	09 95       	icall
    3132:	3c ab       	std	Y+52, r19	; 0x34
    3134:	4d ab       	std	Y+53, r20	; 0x35
    3136:	66 e0       	ldi	r22, 0x06	; 6
    3138:	8c a9       	ldd	r24, Y+52	; 0x34
    313a:	9d a9       	ldd	r25, Y+53	; 0x35
    313c:	c2 53       	subi	r28, 0x32	; 50
    313e:	df 4f       	sbci	r29, 0xFF	; 255
    3140:	e8 81       	ld	r30, Y
    3142:	f9 81       	ldd	r31, Y+1	; 0x01
    3144:	ce 5c       	subi	r28, 0xCE	; 206
    3146:	d0 40       	sbci	r29, 0x00	; 0
    3148:	09 95       	icall
					
					
				break;
			/***MENU 2***/
			case '2': // Manual position override 
				if(!strcmp(keypad.get().string,"A")){Menu='3';keypad.flush();lcd0.clear();break;}
    314a:	c4 53       	subi	r28, 0x34	; 52
    314c:	df 4f       	sbci	r29, 0xFF	; 255
    314e:	e8 81       	ld	r30, Y
    3150:	f9 81       	ldd	r31, Y+1	; 0x01
    3152:	cc 5c       	subi	r28, 0xCC	; 204
    3154:	d0 40       	sbci	r29, 0x00	; 0
    3156:	09 95       	icall
    3158:	2c a3       	std	Y+36, r18	; 0x24
    315a:	3d a3       	std	Y+37, r19	; 0x25
    315c:	4e a3       	std	Y+38, r20	; 0x26
    315e:	5f a3       	std	Y+39, r21	; 0x27
    3160:	68 a7       	std	Y+40, r22	; 0x28
    3162:	62 e1       	ldi	r22, 0x12	; 18
    3164:	71 e0       	ldi	r23, 0x01	; 1
    3166:	8f a1       	ldd	r24, Y+39	; 0x27
    3168:	98 a5       	ldd	r25, Y+40	; 0x28
    316a:	4d d3       	rcall	.+1690   	; 0x3806 <strcmp>
    316c:	89 2b       	or	r24, r25
    316e:	09 f4       	brne	.+2      	; 0x3172 <main+0xf34>
    3170:	99 cb       	rjmp	.-2254   	; 0x28a4 <main+0x666>
    3172:	a7 cb       	rjmp	.-2226   	; 0x28c2 <main+0x684>

00003174 <__vector_15>:
    3174:	1f 92       	push	r1
}
/*
** interrupt
*/
ISR(TIMER0_COMP_vect) // 1Hz and usart Tx
{
    3176:	0f 92       	push	r0
    3178:	0f b6       	in	r0, 0x3f	; 63
    317a:	0f 92       	push	r0
    317c:	11 24       	eor	r1, r1
    317e:	0b b6       	in	r0, 0x3b	; 59
    3180:	0f 92       	push	r0
    3182:	0f 93       	push	r16
    3184:	1f 93       	push	r17
    3186:	2f 93       	push	r18
    3188:	3f 93       	push	r19
    318a:	4f 93       	push	r20
    318c:	5f 93       	push	r21
    318e:	6f 93       	push	r22
    3190:	7f 93       	push	r23
    3192:	8f 93       	push	r24
    3194:	9f 93       	push	r25
    3196:	af 93       	push	r26
    3198:	bf 93       	push	r27
    319a:	cf 93       	push	r28
    319c:	ef 93       	push	r30
    319e:	ff 93       	push	r31
	uint8_t Sreg;
	Sreg=SREG;
    31a0:	cf b7       	in	r28, 0x3f	; 63
	SREG&=~(1<<7);
    31a2:	8f b7       	in	r24, 0x3f	; 63
    31a4:	8f 77       	andi	r24, 0x7F	; 127
    31a6:	8f bf       	out	0x3f, r24	; 63
	if(count>59){ //59 -> 1Hz
    31a8:	80 91 80 01 	lds	r24, 0x0180	; 0x800180 <count>
    31ac:	8c 33       	cpi	r24, 0x3C	; 60
    31ae:	08 f4       	brcc	.+2      	; 0x31b2 <__vector_15+0x3e>
    31b0:	5f c0       	rjmp	.+190    	; 0x3270 <__vector_15+0xfc>
		pid_out_1=pid_1.output(&pid_1,adcvalue,0.5);
    31b2:	60 91 da 03 	lds	r22, 0x03DA	; 0x8003da <adcvalue>
    31b6:	70 91 db 03 	lds	r23, 0x03DB	; 0x8003db <adcvalue+0x1>
    31ba:	80 e0       	ldi	r24, 0x00	; 0
    31bc:	90 e0       	ldi	r25, 0x00	; 0
    31be:	74 d1       	rcall	.+744    	; 0x34a8 <__floatunsisf>
    31c0:	ab 01       	movw	r20, r22
    31c2:	bc 01       	movw	r22, r24
    31c4:	e0 91 10 04 	lds	r30, 0x0410	; 0x800410 <pid_1+0x34>
    31c8:	f0 91 11 04 	lds	r31, 0x0411	; 0x800411 <pid_1+0x35>
    31cc:	00 e0       	ldi	r16, 0x00	; 0
    31ce:	10 e0       	ldi	r17, 0x00	; 0
    31d0:	20 e0       	ldi	r18, 0x00	; 0
    31d2:	3f e3       	ldi	r19, 0x3F	; 63
    31d4:	8c ed       	ldi	r24, 0xDC	; 220
    31d6:	93 e0       	ldi	r25, 0x03	; 3
    31d8:	09 95       	icall
    31da:	60 93 48 04 	sts	0x0448, r22	; 0x800448 <pid_out_1>
    31de:	70 93 49 04 	sts	0x0449, r23	; 0x800449 <pid_out_1+0x1>
    31e2:	80 93 4a 04 	sts	0x044A, r24	; 0x80044a <pid_out_1+0x2>
    31e6:	90 93 4b 04 	sts	0x044B, r25	; 0x80044b <pid_out_1+0x3>
		pid_out_2=pid_2.output(&pid_2,adcvalue,0.5);
    31ea:	60 91 da 03 	lds	r22, 0x03DA	; 0x8003da <adcvalue>
    31ee:	70 91 db 03 	lds	r23, 0x03DB	; 0x8003db <adcvalue+0x1>
    31f2:	80 e0       	ldi	r24, 0x00	; 0
    31f4:	90 e0       	ldi	r25, 0x00	; 0
    31f6:	58 d1       	rcall	.+688    	; 0x34a8 <__floatunsisf>
    31f8:	ab 01       	movw	r20, r22
    31fa:	bc 01       	movw	r22, r24
    31fc:	e0 91 46 04 	lds	r30, 0x0446	; 0x800446 <pid_2+0x34>
    3200:	f0 91 47 04 	lds	r31, 0x0447	; 0x800447 <pid_2+0x35>
    3204:	00 e0       	ldi	r16, 0x00	; 0
    3206:	10 e0       	ldi	r17, 0x00	; 0
    3208:	20 e0       	ldi	r18, 0x00	; 0
    320a:	3f e3       	ldi	r19, 0x3F	; 63
    320c:	82 e1       	ldi	r24, 0x12	; 18
    320e:	94 e0       	ldi	r25, 0x04	; 4
    3210:	09 95       	icall
    3212:	60 93 d6 03 	sts	0x03D6, r22	; 0x8003d6 <pid_out_2>
    3216:	70 93 d7 03 	sts	0x03D7, r23	; 0x8003d7 <pid_out_2+0x1>
    321a:	80 93 d8 03 	sts	0x03D8, r24	; 0x8003d8 <pid_out_2+0x2>
    321e:	90 93 d9 03 	sts	0x03D9, r25	; 0x8003d9 <pid_out_2+0x3>
		increment++;
    3222:	80 91 7f 01 	lds	r24, 0x017F	; 0x80017f <increment>
    3226:	8f 5f       	subi	r24, 0xFF	; 255
    3228:	80 93 7f 01 	sts	0x017F, r24	; 0x80017f <increment>
		if((increment & 0x0F) < 8){
    322c:	8f 70       	andi	r24, 0x0F	; 15
    322e:	90 e0       	ldi	r25, 0x00	; 0
    3230:	08 97       	sbiw	r24, 0x08	; 8
    3232:	74 f4       	brge	.+28     	; 0x3250 <__vector_15+0xdc>
			shift.bit(0);
    3234:	06 e8       	ldi	r16, 0x86	; 134
    3236:	13 e0       	ldi	r17, 0x03	; 3
    3238:	d8 01       	movw	r26, r16
    323a:	ed 91       	ld	r30, X+
    323c:	fc 91       	ld	r31, X
    323e:	80 e0       	ldi	r24, 0x00	; 0
    3240:	09 95       	icall
			shift.out();
    3242:	d8 01       	movw	r26, r16
    3244:	14 96       	adiw	r26, 0x04	; 4
    3246:	ed 91       	ld	r30, X+
    3248:	fc 91       	ld	r31, X
    324a:	15 97       	sbiw	r26, 0x05	; 5
    324c:	09 95       	icall
    324e:	0d c0       	rjmp	.+26     	; 0x326a <__vector_15+0xf6>
		}else{
			shift.bit(1);
    3250:	06 e8       	ldi	r16, 0x86	; 134
    3252:	13 e0       	ldi	r17, 0x03	; 3
    3254:	d8 01       	movw	r26, r16
    3256:	ed 91       	ld	r30, X+
    3258:	fc 91       	ld	r31, X
    325a:	81 e0       	ldi	r24, 0x01	; 1
    325c:	09 95       	icall
			shift.out();
    325e:	d8 01       	movw	r26, r16
    3260:	14 96       	adiw	r26, 0x04	; 4
    3262:	ed 91       	ld	r30, X+
    3264:	fc 91       	ld	r31, X
    3266:	15 97       	sbiw	r26, 0x05	; 5
    3268:	09 95       	icall
		}
		count=0;
    326a:	10 92 80 01 	sts	0x0180, r1	; 0x800180 <count>
    326e:	03 c0       	rjmp	.+6      	; 0x3276 <__vector_15+0x102>
	}else
		count++;
    3270:	8f 5f       	subi	r24, 0xFF	; 255
    3272:	80 93 80 01 	sts	0x0180, r24	; 0x800180 <count>
	SREG=Sreg;
    3276:	cf bf       	out	0x3f, r28	; 63
}
    3278:	ff 91       	pop	r31
    327a:	ef 91       	pop	r30
    327c:	cf 91       	pop	r28
    327e:	bf 91       	pop	r27
    3280:	af 91       	pop	r26
    3282:	9f 91       	pop	r25
    3284:	8f 91       	pop	r24
    3286:	7f 91       	pop	r23
    3288:	6f 91       	pop	r22
    328a:	5f 91       	pop	r21
    328c:	4f 91       	pop	r20
    328e:	3f 91       	pop	r19
    3290:	2f 91       	pop	r18
    3292:	1f 91       	pop	r17
    3294:	0f 91       	pop	r16
    3296:	0f 90       	pop	r0
    3298:	0b be       	out	0x3b, r0	; 59
    329a:	0f 90       	pop	r0
    329c:	0f be       	out	0x3f, r0	; 63
    329e:	0f 90       	pop	r0
    32a0:	1f 90       	pop	r1
    32a2:	18 95       	reti

000032a4 <__subsf3>:
    32a4:	50 58       	subi	r21, 0x80	; 128

000032a6 <__addsf3>:
    32a6:	bb 27       	eor	r27, r27
    32a8:	aa 27       	eor	r26, r26
    32aa:	0e d0       	rcall	.+28     	; 0x32c8 <__addsf3x>
    32ac:	75 c1       	rjmp	.+746    	; 0x3598 <__fp_round>
    32ae:	66 d1       	rcall	.+716    	; 0x357c <__fp_pscA>
    32b0:	30 f0       	brcs	.+12     	; 0x32be <__addsf3+0x18>
    32b2:	6b d1       	rcall	.+726    	; 0x358a <__fp_pscB>
    32b4:	20 f0       	brcs	.+8      	; 0x32be <__addsf3+0x18>
    32b6:	31 f4       	brne	.+12     	; 0x32c4 <__addsf3+0x1e>
    32b8:	9f 3f       	cpi	r25, 0xFF	; 255
    32ba:	11 f4       	brne	.+4      	; 0x32c0 <__addsf3+0x1a>
    32bc:	1e f4       	brtc	.+6      	; 0x32c4 <__addsf3+0x1e>
    32be:	5b c1       	rjmp	.+694    	; 0x3576 <__fp_nan>
    32c0:	0e f4       	brtc	.+2      	; 0x32c4 <__addsf3+0x1e>
    32c2:	e0 95       	com	r30
    32c4:	e7 fb       	bst	r30, 7
    32c6:	51 c1       	rjmp	.+674    	; 0x356a <__fp_inf>

000032c8 <__addsf3x>:
    32c8:	e9 2f       	mov	r30, r25
    32ca:	77 d1       	rcall	.+750    	; 0x35ba <__fp_split3>
    32cc:	80 f3       	brcs	.-32     	; 0x32ae <__addsf3+0x8>
    32ce:	ba 17       	cp	r27, r26
    32d0:	62 07       	cpc	r22, r18
    32d2:	73 07       	cpc	r23, r19
    32d4:	84 07       	cpc	r24, r20
    32d6:	95 07       	cpc	r25, r21
    32d8:	18 f0       	brcs	.+6      	; 0x32e0 <__addsf3x+0x18>
    32da:	71 f4       	brne	.+28     	; 0x32f8 <__addsf3x+0x30>
    32dc:	9e f5       	brtc	.+102    	; 0x3344 <__addsf3x+0x7c>
    32de:	8f c1       	rjmp	.+798    	; 0x35fe <__fp_zero>
    32e0:	0e f4       	brtc	.+2      	; 0x32e4 <__addsf3x+0x1c>
    32e2:	e0 95       	com	r30
    32e4:	0b 2e       	mov	r0, r27
    32e6:	ba 2f       	mov	r27, r26
    32e8:	a0 2d       	mov	r26, r0
    32ea:	0b 01       	movw	r0, r22
    32ec:	b9 01       	movw	r22, r18
    32ee:	90 01       	movw	r18, r0
    32f0:	0c 01       	movw	r0, r24
    32f2:	ca 01       	movw	r24, r20
    32f4:	a0 01       	movw	r20, r0
    32f6:	11 24       	eor	r1, r1
    32f8:	ff 27       	eor	r31, r31
    32fa:	59 1b       	sub	r21, r25
    32fc:	99 f0       	breq	.+38     	; 0x3324 <__addsf3x+0x5c>
    32fe:	59 3f       	cpi	r21, 0xF9	; 249
    3300:	50 f4       	brcc	.+20     	; 0x3316 <__addsf3x+0x4e>
    3302:	50 3e       	cpi	r21, 0xE0	; 224
    3304:	68 f1       	brcs	.+90     	; 0x3360 <__addsf3x+0x98>
    3306:	1a 16       	cp	r1, r26
    3308:	f0 40       	sbci	r31, 0x00	; 0
    330a:	a2 2f       	mov	r26, r18
    330c:	23 2f       	mov	r18, r19
    330e:	34 2f       	mov	r19, r20
    3310:	44 27       	eor	r20, r20
    3312:	58 5f       	subi	r21, 0xF8	; 248
    3314:	f3 cf       	rjmp	.-26     	; 0x32fc <__addsf3x+0x34>
    3316:	46 95       	lsr	r20
    3318:	37 95       	ror	r19
    331a:	27 95       	ror	r18
    331c:	a7 95       	ror	r26
    331e:	f0 40       	sbci	r31, 0x00	; 0
    3320:	53 95       	inc	r21
    3322:	c9 f7       	brne	.-14     	; 0x3316 <__addsf3x+0x4e>
    3324:	7e f4       	brtc	.+30     	; 0x3344 <__addsf3x+0x7c>
    3326:	1f 16       	cp	r1, r31
    3328:	ba 0b       	sbc	r27, r26
    332a:	62 0b       	sbc	r22, r18
    332c:	73 0b       	sbc	r23, r19
    332e:	84 0b       	sbc	r24, r20
    3330:	ba f0       	brmi	.+46     	; 0x3360 <__addsf3x+0x98>
    3332:	91 50       	subi	r25, 0x01	; 1
    3334:	a1 f0       	breq	.+40     	; 0x335e <__addsf3x+0x96>
    3336:	ff 0f       	add	r31, r31
    3338:	bb 1f       	adc	r27, r27
    333a:	66 1f       	adc	r22, r22
    333c:	77 1f       	adc	r23, r23
    333e:	88 1f       	adc	r24, r24
    3340:	c2 f7       	brpl	.-16     	; 0x3332 <__addsf3x+0x6a>
    3342:	0e c0       	rjmp	.+28     	; 0x3360 <__addsf3x+0x98>
    3344:	ba 0f       	add	r27, r26
    3346:	62 1f       	adc	r22, r18
    3348:	73 1f       	adc	r23, r19
    334a:	84 1f       	adc	r24, r20
    334c:	48 f4       	brcc	.+18     	; 0x3360 <__addsf3x+0x98>
    334e:	87 95       	ror	r24
    3350:	77 95       	ror	r23
    3352:	67 95       	ror	r22
    3354:	b7 95       	ror	r27
    3356:	f7 95       	ror	r31
    3358:	9e 3f       	cpi	r25, 0xFE	; 254
    335a:	08 f0       	brcs	.+2      	; 0x335e <__addsf3x+0x96>
    335c:	b3 cf       	rjmp	.-154    	; 0x32c4 <__addsf3+0x1e>
    335e:	93 95       	inc	r25
    3360:	88 0f       	add	r24, r24
    3362:	08 f0       	brcs	.+2      	; 0x3366 <__addsf3x+0x9e>
    3364:	99 27       	eor	r25, r25
    3366:	ee 0f       	add	r30, r30
    3368:	97 95       	ror	r25
    336a:	87 95       	ror	r24
    336c:	08 95       	ret

0000336e <__cmpsf2>:
    336e:	d9 d0       	rcall	.+434    	; 0x3522 <__fp_cmp>
    3370:	08 f4       	brcc	.+2      	; 0x3374 <__cmpsf2+0x6>
    3372:	81 e0       	ldi	r24, 0x01	; 1
    3374:	08 95       	ret

00003376 <__divsf3>:
    3376:	0c d0       	rcall	.+24     	; 0x3390 <__divsf3x>
    3378:	0f c1       	rjmp	.+542    	; 0x3598 <__fp_round>
    337a:	07 d1       	rcall	.+526    	; 0x358a <__fp_pscB>
    337c:	40 f0       	brcs	.+16     	; 0x338e <__divsf3+0x18>
    337e:	fe d0       	rcall	.+508    	; 0x357c <__fp_pscA>
    3380:	30 f0       	brcs	.+12     	; 0x338e <__divsf3+0x18>
    3382:	21 f4       	brne	.+8      	; 0x338c <__divsf3+0x16>
    3384:	5f 3f       	cpi	r21, 0xFF	; 255
    3386:	19 f0       	breq	.+6      	; 0x338e <__divsf3+0x18>
    3388:	f0 c0       	rjmp	.+480    	; 0x356a <__fp_inf>
    338a:	51 11       	cpse	r21, r1
    338c:	39 c1       	rjmp	.+626    	; 0x3600 <__fp_szero>
    338e:	f3 c0       	rjmp	.+486    	; 0x3576 <__fp_nan>

00003390 <__divsf3x>:
    3390:	14 d1       	rcall	.+552    	; 0x35ba <__fp_split3>
    3392:	98 f3       	brcs	.-26     	; 0x337a <__divsf3+0x4>

00003394 <__divsf3_pse>:
    3394:	99 23       	and	r25, r25
    3396:	c9 f3       	breq	.-14     	; 0x338a <__divsf3+0x14>
    3398:	55 23       	and	r21, r21
    339a:	b1 f3       	breq	.-20     	; 0x3388 <__divsf3+0x12>
    339c:	95 1b       	sub	r25, r21
    339e:	55 0b       	sbc	r21, r21
    33a0:	bb 27       	eor	r27, r27
    33a2:	aa 27       	eor	r26, r26
    33a4:	62 17       	cp	r22, r18
    33a6:	73 07       	cpc	r23, r19
    33a8:	84 07       	cpc	r24, r20
    33aa:	38 f0       	brcs	.+14     	; 0x33ba <__divsf3_pse+0x26>
    33ac:	9f 5f       	subi	r25, 0xFF	; 255
    33ae:	5f 4f       	sbci	r21, 0xFF	; 255
    33b0:	22 0f       	add	r18, r18
    33b2:	33 1f       	adc	r19, r19
    33b4:	44 1f       	adc	r20, r20
    33b6:	aa 1f       	adc	r26, r26
    33b8:	a9 f3       	breq	.-22     	; 0x33a4 <__divsf3_pse+0x10>
    33ba:	33 d0       	rcall	.+102    	; 0x3422 <__divsf3_pse+0x8e>
    33bc:	0e 2e       	mov	r0, r30
    33be:	3a f0       	brmi	.+14     	; 0x33ce <__divsf3_pse+0x3a>
    33c0:	e0 e8       	ldi	r30, 0x80	; 128
    33c2:	30 d0       	rcall	.+96     	; 0x3424 <__divsf3_pse+0x90>
    33c4:	91 50       	subi	r25, 0x01	; 1
    33c6:	50 40       	sbci	r21, 0x00	; 0
    33c8:	e6 95       	lsr	r30
    33ca:	00 1c       	adc	r0, r0
    33cc:	ca f7       	brpl	.-14     	; 0x33c0 <__divsf3_pse+0x2c>
    33ce:	29 d0       	rcall	.+82     	; 0x3422 <__divsf3_pse+0x8e>
    33d0:	fe 2f       	mov	r31, r30
    33d2:	27 d0       	rcall	.+78     	; 0x3422 <__divsf3_pse+0x8e>
    33d4:	66 0f       	add	r22, r22
    33d6:	77 1f       	adc	r23, r23
    33d8:	88 1f       	adc	r24, r24
    33da:	bb 1f       	adc	r27, r27
    33dc:	26 17       	cp	r18, r22
    33de:	37 07       	cpc	r19, r23
    33e0:	48 07       	cpc	r20, r24
    33e2:	ab 07       	cpc	r26, r27
    33e4:	b0 e8       	ldi	r27, 0x80	; 128
    33e6:	09 f0       	breq	.+2      	; 0x33ea <__divsf3_pse+0x56>
    33e8:	bb 0b       	sbc	r27, r27
    33ea:	80 2d       	mov	r24, r0
    33ec:	bf 01       	movw	r22, r30
    33ee:	ff 27       	eor	r31, r31
    33f0:	93 58       	subi	r25, 0x83	; 131
    33f2:	5f 4f       	sbci	r21, 0xFF	; 255
    33f4:	2a f0       	brmi	.+10     	; 0x3400 <__divsf3_pse+0x6c>
    33f6:	9e 3f       	cpi	r25, 0xFE	; 254
    33f8:	51 05       	cpc	r21, r1
    33fa:	68 f0       	brcs	.+26     	; 0x3416 <__divsf3_pse+0x82>
    33fc:	b6 c0       	rjmp	.+364    	; 0x356a <__fp_inf>
    33fe:	00 c1       	rjmp	.+512    	; 0x3600 <__fp_szero>
    3400:	5f 3f       	cpi	r21, 0xFF	; 255
    3402:	ec f3       	brlt	.-6      	; 0x33fe <__divsf3_pse+0x6a>
    3404:	98 3e       	cpi	r25, 0xE8	; 232
    3406:	dc f3       	brlt	.-10     	; 0x33fe <__divsf3_pse+0x6a>
    3408:	86 95       	lsr	r24
    340a:	77 95       	ror	r23
    340c:	67 95       	ror	r22
    340e:	b7 95       	ror	r27
    3410:	f7 95       	ror	r31
    3412:	9f 5f       	subi	r25, 0xFF	; 255
    3414:	c9 f7       	brne	.-14     	; 0x3408 <__divsf3_pse+0x74>
    3416:	88 0f       	add	r24, r24
    3418:	91 1d       	adc	r25, r1
    341a:	96 95       	lsr	r25
    341c:	87 95       	ror	r24
    341e:	97 f9       	bld	r25, 7
    3420:	08 95       	ret
    3422:	e1 e0       	ldi	r30, 0x01	; 1
    3424:	66 0f       	add	r22, r22
    3426:	77 1f       	adc	r23, r23
    3428:	88 1f       	adc	r24, r24
    342a:	bb 1f       	adc	r27, r27
    342c:	62 17       	cp	r22, r18
    342e:	73 07       	cpc	r23, r19
    3430:	84 07       	cpc	r24, r20
    3432:	ba 07       	cpc	r27, r26
    3434:	20 f0       	brcs	.+8      	; 0x343e <__divsf3_pse+0xaa>
    3436:	62 1b       	sub	r22, r18
    3438:	73 0b       	sbc	r23, r19
    343a:	84 0b       	sbc	r24, r20
    343c:	ba 0b       	sbc	r27, r26
    343e:	ee 1f       	adc	r30, r30
    3440:	88 f7       	brcc	.-30     	; 0x3424 <__divsf3_pse+0x90>
    3442:	e0 95       	com	r30
    3444:	08 95       	ret

00003446 <__fixsfsi>:
    3446:	04 d0       	rcall	.+8      	; 0x3450 <__fixunssfsi>
    3448:	68 94       	set
    344a:	b1 11       	cpse	r27, r1
    344c:	d9 c0       	rjmp	.+434    	; 0x3600 <__fp_szero>
    344e:	08 95       	ret

00003450 <__fixunssfsi>:
    3450:	bc d0       	rcall	.+376    	; 0x35ca <__fp_splitA>
    3452:	88 f0       	brcs	.+34     	; 0x3476 <__fixunssfsi+0x26>
    3454:	9f 57       	subi	r25, 0x7F	; 127
    3456:	90 f0       	brcs	.+36     	; 0x347c <__fixunssfsi+0x2c>
    3458:	b9 2f       	mov	r27, r25
    345a:	99 27       	eor	r25, r25
    345c:	b7 51       	subi	r27, 0x17	; 23
    345e:	a0 f0       	brcs	.+40     	; 0x3488 <__fixunssfsi+0x38>
    3460:	d1 f0       	breq	.+52     	; 0x3496 <__fixunssfsi+0x46>
    3462:	66 0f       	add	r22, r22
    3464:	77 1f       	adc	r23, r23
    3466:	88 1f       	adc	r24, r24
    3468:	99 1f       	adc	r25, r25
    346a:	1a f0       	brmi	.+6      	; 0x3472 <__fixunssfsi+0x22>
    346c:	ba 95       	dec	r27
    346e:	c9 f7       	brne	.-14     	; 0x3462 <__fixunssfsi+0x12>
    3470:	12 c0       	rjmp	.+36     	; 0x3496 <__fixunssfsi+0x46>
    3472:	b1 30       	cpi	r27, 0x01	; 1
    3474:	81 f0       	breq	.+32     	; 0x3496 <__fixunssfsi+0x46>
    3476:	c3 d0       	rcall	.+390    	; 0x35fe <__fp_zero>
    3478:	b1 e0       	ldi	r27, 0x01	; 1
    347a:	08 95       	ret
    347c:	c0 c0       	rjmp	.+384    	; 0x35fe <__fp_zero>
    347e:	67 2f       	mov	r22, r23
    3480:	78 2f       	mov	r23, r24
    3482:	88 27       	eor	r24, r24
    3484:	b8 5f       	subi	r27, 0xF8	; 248
    3486:	39 f0       	breq	.+14     	; 0x3496 <__fixunssfsi+0x46>
    3488:	b9 3f       	cpi	r27, 0xF9	; 249
    348a:	cc f3       	brlt	.-14     	; 0x347e <__fixunssfsi+0x2e>
    348c:	86 95       	lsr	r24
    348e:	77 95       	ror	r23
    3490:	67 95       	ror	r22
    3492:	b3 95       	inc	r27
    3494:	d9 f7       	brne	.-10     	; 0x348c <__fixunssfsi+0x3c>
    3496:	3e f4       	brtc	.+14     	; 0x34a6 <__fixunssfsi+0x56>
    3498:	90 95       	com	r25
    349a:	80 95       	com	r24
    349c:	70 95       	com	r23
    349e:	61 95       	neg	r22
    34a0:	7f 4f       	sbci	r23, 0xFF	; 255
    34a2:	8f 4f       	sbci	r24, 0xFF	; 255
    34a4:	9f 4f       	sbci	r25, 0xFF	; 255
    34a6:	08 95       	ret

000034a8 <__floatunsisf>:
    34a8:	e8 94       	clt
    34aa:	09 c0       	rjmp	.+18     	; 0x34be <__floatsisf+0x12>

000034ac <__floatsisf>:
    34ac:	97 fb       	bst	r25, 7
    34ae:	3e f4       	brtc	.+14     	; 0x34be <__floatsisf+0x12>
    34b0:	90 95       	com	r25
    34b2:	80 95       	com	r24
    34b4:	70 95       	com	r23
    34b6:	61 95       	neg	r22
    34b8:	7f 4f       	sbci	r23, 0xFF	; 255
    34ba:	8f 4f       	sbci	r24, 0xFF	; 255
    34bc:	9f 4f       	sbci	r25, 0xFF	; 255
    34be:	99 23       	and	r25, r25
    34c0:	a9 f0       	breq	.+42     	; 0x34ec <__floatsisf+0x40>
    34c2:	f9 2f       	mov	r31, r25
    34c4:	96 e9       	ldi	r25, 0x96	; 150
    34c6:	bb 27       	eor	r27, r27
    34c8:	93 95       	inc	r25
    34ca:	f6 95       	lsr	r31
    34cc:	87 95       	ror	r24
    34ce:	77 95       	ror	r23
    34d0:	67 95       	ror	r22
    34d2:	b7 95       	ror	r27
    34d4:	f1 11       	cpse	r31, r1
    34d6:	f8 cf       	rjmp	.-16     	; 0x34c8 <__floatsisf+0x1c>
    34d8:	fa f4       	brpl	.+62     	; 0x3518 <__floatsisf+0x6c>
    34da:	bb 0f       	add	r27, r27
    34dc:	11 f4       	brne	.+4      	; 0x34e2 <__floatsisf+0x36>
    34de:	60 ff       	sbrs	r22, 0
    34e0:	1b c0       	rjmp	.+54     	; 0x3518 <__floatsisf+0x6c>
    34e2:	6f 5f       	subi	r22, 0xFF	; 255
    34e4:	7f 4f       	sbci	r23, 0xFF	; 255
    34e6:	8f 4f       	sbci	r24, 0xFF	; 255
    34e8:	9f 4f       	sbci	r25, 0xFF	; 255
    34ea:	16 c0       	rjmp	.+44     	; 0x3518 <__floatsisf+0x6c>
    34ec:	88 23       	and	r24, r24
    34ee:	11 f0       	breq	.+4      	; 0x34f4 <__floatsisf+0x48>
    34f0:	96 e9       	ldi	r25, 0x96	; 150
    34f2:	11 c0       	rjmp	.+34     	; 0x3516 <__floatsisf+0x6a>
    34f4:	77 23       	and	r23, r23
    34f6:	21 f0       	breq	.+8      	; 0x3500 <__floatsisf+0x54>
    34f8:	9e e8       	ldi	r25, 0x8E	; 142
    34fa:	87 2f       	mov	r24, r23
    34fc:	76 2f       	mov	r23, r22
    34fe:	05 c0       	rjmp	.+10     	; 0x350a <__floatsisf+0x5e>
    3500:	66 23       	and	r22, r22
    3502:	71 f0       	breq	.+28     	; 0x3520 <__floatsisf+0x74>
    3504:	96 e8       	ldi	r25, 0x86	; 134
    3506:	86 2f       	mov	r24, r22
    3508:	70 e0       	ldi	r23, 0x00	; 0
    350a:	60 e0       	ldi	r22, 0x00	; 0
    350c:	2a f0       	brmi	.+10     	; 0x3518 <__floatsisf+0x6c>
    350e:	9a 95       	dec	r25
    3510:	66 0f       	add	r22, r22
    3512:	77 1f       	adc	r23, r23
    3514:	88 1f       	adc	r24, r24
    3516:	da f7       	brpl	.-10     	; 0x350e <__floatsisf+0x62>
    3518:	88 0f       	add	r24, r24
    351a:	96 95       	lsr	r25
    351c:	87 95       	ror	r24
    351e:	97 f9       	bld	r25, 7
    3520:	08 95       	ret

00003522 <__fp_cmp>:
    3522:	99 0f       	add	r25, r25
    3524:	00 08       	sbc	r0, r0
    3526:	55 0f       	add	r21, r21
    3528:	aa 0b       	sbc	r26, r26
    352a:	e0 e8       	ldi	r30, 0x80	; 128
    352c:	fe ef       	ldi	r31, 0xFE	; 254
    352e:	16 16       	cp	r1, r22
    3530:	17 06       	cpc	r1, r23
    3532:	e8 07       	cpc	r30, r24
    3534:	f9 07       	cpc	r31, r25
    3536:	c0 f0       	brcs	.+48     	; 0x3568 <__fp_cmp+0x46>
    3538:	12 16       	cp	r1, r18
    353a:	13 06       	cpc	r1, r19
    353c:	e4 07       	cpc	r30, r20
    353e:	f5 07       	cpc	r31, r21
    3540:	98 f0       	brcs	.+38     	; 0x3568 <__fp_cmp+0x46>
    3542:	62 1b       	sub	r22, r18
    3544:	73 0b       	sbc	r23, r19
    3546:	84 0b       	sbc	r24, r20
    3548:	95 0b       	sbc	r25, r21
    354a:	39 f4       	brne	.+14     	; 0x355a <__fp_cmp+0x38>
    354c:	0a 26       	eor	r0, r26
    354e:	61 f0       	breq	.+24     	; 0x3568 <__fp_cmp+0x46>
    3550:	23 2b       	or	r18, r19
    3552:	24 2b       	or	r18, r20
    3554:	25 2b       	or	r18, r21
    3556:	21 f4       	brne	.+8      	; 0x3560 <__fp_cmp+0x3e>
    3558:	08 95       	ret
    355a:	0a 26       	eor	r0, r26
    355c:	09 f4       	brne	.+2      	; 0x3560 <__fp_cmp+0x3e>
    355e:	a1 40       	sbci	r26, 0x01	; 1
    3560:	a6 95       	lsr	r26
    3562:	8f ef       	ldi	r24, 0xFF	; 255
    3564:	81 1d       	adc	r24, r1
    3566:	81 1d       	adc	r24, r1
    3568:	08 95       	ret

0000356a <__fp_inf>:
    356a:	97 f9       	bld	r25, 7
    356c:	9f 67       	ori	r25, 0x7F	; 127
    356e:	80 e8       	ldi	r24, 0x80	; 128
    3570:	70 e0       	ldi	r23, 0x00	; 0
    3572:	60 e0       	ldi	r22, 0x00	; 0
    3574:	08 95       	ret

00003576 <__fp_nan>:
    3576:	9f ef       	ldi	r25, 0xFF	; 255
    3578:	80 ec       	ldi	r24, 0xC0	; 192
    357a:	08 95       	ret

0000357c <__fp_pscA>:
    357c:	00 24       	eor	r0, r0
    357e:	0a 94       	dec	r0
    3580:	16 16       	cp	r1, r22
    3582:	17 06       	cpc	r1, r23
    3584:	18 06       	cpc	r1, r24
    3586:	09 06       	cpc	r0, r25
    3588:	08 95       	ret

0000358a <__fp_pscB>:
    358a:	00 24       	eor	r0, r0
    358c:	0a 94       	dec	r0
    358e:	12 16       	cp	r1, r18
    3590:	13 06       	cpc	r1, r19
    3592:	14 06       	cpc	r1, r20
    3594:	05 06       	cpc	r0, r21
    3596:	08 95       	ret

00003598 <__fp_round>:
    3598:	09 2e       	mov	r0, r25
    359a:	03 94       	inc	r0
    359c:	00 0c       	add	r0, r0
    359e:	11 f4       	brne	.+4      	; 0x35a4 <__fp_round+0xc>
    35a0:	88 23       	and	r24, r24
    35a2:	52 f0       	brmi	.+20     	; 0x35b8 <__fp_round+0x20>
    35a4:	bb 0f       	add	r27, r27
    35a6:	40 f4       	brcc	.+16     	; 0x35b8 <__fp_round+0x20>
    35a8:	bf 2b       	or	r27, r31
    35aa:	11 f4       	brne	.+4      	; 0x35b0 <__fp_round+0x18>
    35ac:	60 ff       	sbrs	r22, 0
    35ae:	04 c0       	rjmp	.+8      	; 0x35b8 <__fp_round+0x20>
    35b0:	6f 5f       	subi	r22, 0xFF	; 255
    35b2:	7f 4f       	sbci	r23, 0xFF	; 255
    35b4:	8f 4f       	sbci	r24, 0xFF	; 255
    35b6:	9f 4f       	sbci	r25, 0xFF	; 255
    35b8:	08 95       	ret

000035ba <__fp_split3>:
    35ba:	57 fd       	sbrc	r21, 7
    35bc:	90 58       	subi	r25, 0x80	; 128
    35be:	44 0f       	add	r20, r20
    35c0:	55 1f       	adc	r21, r21
    35c2:	59 f0       	breq	.+22     	; 0x35da <__fp_splitA+0x10>
    35c4:	5f 3f       	cpi	r21, 0xFF	; 255
    35c6:	71 f0       	breq	.+28     	; 0x35e4 <__fp_splitA+0x1a>
    35c8:	47 95       	ror	r20

000035ca <__fp_splitA>:
    35ca:	88 0f       	add	r24, r24
    35cc:	97 fb       	bst	r25, 7
    35ce:	99 1f       	adc	r25, r25
    35d0:	61 f0       	breq	.+24     	; 0x35ea <__fp_splitA+0x20>
    35d2:	9f 3f       	cpi	r25, 0xFF	; 255
    35d4:	79 f0       	breq	.+30     	; 0x35f4 <__fp_splitA+0x2a>
    35d6:	87 95       	ror	r24
    35d8:	08 95       	ret
    35da:	12 16       	cp	r1, r18
    35dc:	13 06       	cpc	r1, r19
    35de:	14 06       	cpc	r1, r20
    35e0:	55 1f       	adc	r21, r21
    35e2:	f2 cf       	rjmp	.-28     	; 0x35c8 <__fp_split3+0xe>
    35e4:	46 95       	lsr	r20
    35e6:	f1 df       	rcall	.-30     	; 0x35ca <__fp_splitA>
    35e8:	08 c0       	rjmp	.+16     	; 0x35fa <__fp_splitA+0x30>
    35ea:	16 16       	cp	r1, r22
    35ec:	17 06       	cpc	r1, r23
    35ee:	18 06       	cpc	r1, r24
    35f0:	99 1f       	adc	r25, r25
    35f2:	f1 cf       	rjmp	.-30     	; 0x35d6 <__fp_splitA+0xc>
    35f4:	86 95       	lsr	r24
    35f6:	71 05       	cpc	r23, r1
    35f8:	61 05       	cpc	r22, r1
    35fa:	08 94       	sec
    35fc:	08 95       	ret

000035fe <__fp_zero>:
    35fe:	e8 94       	clt

00003600 <__fp_szero>:
    3600:	bb 27       	eor	r27, r27
    3602:	66 27       	eor	r22, r22
    3604:	77 27       	eor	r23, r23
    3606:	cb 01       	movw	r24, r22
    3608:	97 f9       	bld	r25, 7
    360a:	08 95       	ret

0000360c <__gesf2>:
    360c:	8a df       	rcall	.-236    	; 0x3522 <__fp_cmp>
    360e:	08 f4       	brcc	.+2      	; 0x3612 <__gesf2+0x6>
    3610:	8f ef       	ldi	r24, 0xFF	; 255
    3612:	08 95       	ret

00003614 <__mulsf3>:
    3614:	0b d0       	rcall	.+22     	; 0x362c <__mulsf3x>
    3616:	c0 cf       	rjmp	.-128    	; 0x3598 <__fp_round>
    3618:	b1 df       	rcall	.-158    	; 0x357c <__fp_pscA>
    361a:	28 f0       	brcs	.+10     	; 0x3626 <__mulsf3+0x12>
    361c:	b6 df       	rcall	.-148    	; 0x358a <__fp_pscB>
    361e:	18 f0       	brcs	.+6      	; 0x3626 <__mulsf3+0x12>
    3620:	95 23       	and	r25, r21
    3622:	09 f0       	breq	.+2      	; 0x3626 <__mulsf3+0x12>
    3624:	a2 cf       	rjmp	.-188    	; 0x356a <__fp_inf>
    3626:	a7 cf       	rjmp	.-178    	; 0x3576 <__fp_nan>
    3628:	11 24       	eor	r1, r1
    362a:	ea cf       	rjmp	.-44     	; 0x3600 <__fp_szero>

0000362c <__mulsf3x>:
    362c:	c6 df       	rcall	.-116    	; 0x35ba <__fp_split3>
    362e:	a0 f3       	brcs	.-24     	; 0x3618 <__mulsf3+0x4>

00003630 <__mulsf3_pse>:
    3630:	95 9f       	mul	r25, r21
    3632:	d1 f3       	breq	.-12     	; 0x3628 <__mulsf3+0x14>
    3634:	95 0f       	add	r25, r21
    3636:	50 e0       	ldi	r21, 0x00	; 0
    3638:	55 1f       	adc	r21, r21
    363a:	62 9f       	mul	r22, r18
    363c:	f0 01       	movw	r30, r0
    363e:	72 9f       	mul	r23, r18
    3640:	bb 27       	eor	r27, r27
    3642:	f0 0d       	add	r31, r0
    3644:	b1 1d       	adc	r27, r1
    3646:	63 9f       	mul	r22, r19
    3648:	aa 27       	eor	r26, r26
    364a:	f0 0d       	add	r31, r0
    364c:	b1 1d       	adc	r27, r1
    364e:	aa 1f       	adc	r26, r26
    3650:	64 9f       	mul	r22, r20
    3652:	66 27       	eor	r22, r22
    3654:	b0 0d       	add	r27, r0
    3656:	a1 1d       	adc	r26, r1
    3658:	66 1f       	adc	r22, r22
    365a:	82 9f       	mul	r24, r18
    365c:	22 27       	eor	r18, r18
    365e:	b0 0d       	add	r27, r0
    3660:	a1 1d       	adc	r26, r1
    3662:	62 1f       	adc	r22, r18
    3664:	73 9f       	mul	r23, r19
    3666:	b0 0d       	add	r27, r0
    3668:	a1 1d       	adc	r26, r1
    366a:	62 1f       	adc	r22, r18
    366c:	83 9f       	mul	r24, r19
    366e:	a0 0d       	add	r26, r0
    3670:	61 1d       	adc	r22, r1
    3672:	22 1f       	adc	r18, r18
    3674:	74 9f       	mul	r23, r20
    3676:	33 27       	eor	r19, r19
    3678:	a0 0d       	add	r26, r0
    367a:	61 1d       	adc	r22, r1
    367c:	23 1f       	adc	r18, r19
    367e:	84 9f       	mul	r24, r20
    3680:	60 0d       	add	r22, r0
    3682:	21 1d       	adc	r18, r1
    3684:	82 2f       	mov	r24, r18
    3686:	76 2f       	mov	r23, r22
    3688:	6a 2f       	mov	r22, r26
    368a:	11 24       	eor	r1, r1
    368c:	9f 57       	subi	r25, 0x7F	; 127
    368e:	50 40       	sbci	r21, 0x00	; 0
    3690:	8a f0       	brmi	.+34     	; 0x36b4 <__mulsf3_pse+0x84>
    3692:	e1 f0       	breq	.+56     	; 0x36cc <__mulsf3_pse+0x9c>
    3694:	88 23       	and	r24, r24
    3696:	4a f0       	brmi	.+18     	; 0x36aa <__mulsf3_pse+0x7a>
    3698:	ee 0f       	add	r30, r30
    369a:	ff 1f       	adc	r31, r31
    369c:	bb 1f       	adc	r27, r27
    369e:	66 1f       	adc	r22, r22
    36a0:	77 1f       	adc	r23, r23
    36a2:	88 1f       	adc	r24, r24
    36a4:	91 50       	subi	r25, 0x01	; 1
    36a6:	50 40       	sbci	r21, 0x00	; 0
    36a8:	a9 f7       	brne	.-22     	; 0x3694 <__mulsf3_pse+0x64>
    36aa:	9e 3f       	cpi	r25, 0xFE	; 254
    36ac:	51 05       	cpc	r21, r1
    36ae:	70 f0       	brcs	.+28     	; 0x36cc <__mulsf3_pse+0x9c>
    36b0:	5c cf       	rjmp	.-328    	; 0x356a <__fp_inf>
    36b2:	a6 cf       	rjmp	.-180    	; 0x3600 <__fp_szero>
    36b4:	5f 3f       	cpi	r21, 0xFF	; 255
    36b6:	ec f3       	brlt	.-6      	; 0x36b2 <__mulsf3_pse+0x82>
    36b8:	98 3e       	cpi	r25, 0xE8	; 232
    36ba:	dc f3       	brlt	.-10     	; 0x36b2 <__mulsf3_pse+0x82>
    36bc:	86 95       	lsr	r24
    36be:	77 95       	ror	r23
    36c0:	67 95       	ror	r22
    36c2:	b7 95       	ror	r27
    36c4:	f7 95       	ror	r31
    36c6:	e7 95       	ror	r30
    36c8:	9f 5f       	subi	r25, 0xFF	; 255
    36ca:	c1 f7       	brne	.-16     	; 0x36bc <__mulsf3_pse+0x8c>
    36cc:	fe 2b       	or	r31, r30
    36ce:	88 0f       	add	r24, r24
    36d0:	91 1d       	adc	r25, r1
    36d2:	96 95       	lsr	r25
    36d4:	87 95       	ror	r24
    36d6:	97 f9       	bld	r25, 7
    36d8:	08 95       	ret

000036da <__mulsi3>:
    36da:	db 01       	movw	r26, r22
    36dc:	8f 93       	push	r24
    36de:	9f 93       	push	r25
    36e0:	88 d0       	rcall	.+272    	; 0x37f2 <__muluhisi3>
    36e2:	bf 91       	pop	r27
    36e4:	af 91       	pop	r26
    36e6:	a2 9f       	mul	r26, r18
    36e8:	80 0d       	add	r24, r0
    36ea:	91 1d       	adc	r25, r1
    36ec:	a3 9f       	mul	r26, r19
    36ee:	90 0d       	add	r25, r0
    36f0:	b2 9f       	mul	r27, r18
    36f2:	90 0d       	add	r25, r0
    36f4:	11 24       	eor	r1, r1
    36f6:	08 95       	ret

000036f8 <__udivmodhi4>:
    36f8:	aa 1b       	sub	r26, r26
    36fa:	bb 1b       	sub	r27, r27
    36fc:	51 e1       	ldi	r21, 0x11	; 17
    36fe:	07 c0       	rjmp	.+14     	; 0x370e <__udivmodhi4_ep>

00003700 <__udivmodhi4_loop>:
    3700:	aa 1f       	adc	r26, r26
    3702:	bb 1f       	adc	r27, r27
    3704:	a6 17       	cp	r26, r22
    3706:	b7 07       	cpc	r27, r23
    3708:	10 f0       	brcs	.+4      	; 0x370e <__udivmodhi4_ep>
    370a:	a6 1b       	sub	r26, r22
    370c:	b7 0b       	sbc	r27, r23

0000370e <__udivmodhi4_ep>:
    370e:	88 1f       	adc	r24, r24
    3710:	99 1f       	adc	r25, r25
    3712:	5a 95       	dec	r21
    3714:	a9 f7       	brne	.-22     	; 0x3700 <__udivmodhi4_loop>
    3716:	80 95       	com	r24
    3718:	90 95       	com	r25
    371a:	bc 01       	movw	r22, r24
    371c:	cd 01       	movw	r24, r26
    371e:	08 95       	ret

00003720 <__divmodhi4>:
    3720:	97 fb       	bst	r25, 7
    3722:	07 2e       	mov	r0, r23
    3724:	16 f4       	brtc	.+4      	; 0x372a <__divmodhi4+0xa>
    3726:	00 94       	com	r0
    3728:	06 d0       	rcall	.+12     	; 0x3736 <__divmodhi4_neg1>
    372a:	77 fd       	sbrc	r23, 7
    372c:	08 d0       	rcall	.+16     	; 0x373e <__divmodhi4_neg2>
    372e:	e4 df       	rcall	.-56     	; 0x36f8 <__udivmodhi4>
    3730:	07 fc       	sbrc	r0, 7
    3732:	05 d0       	rcall	.+10     	; 0x373e <__divmodhi4_neg2>
    3734:	3e f4       	brtc	.+14     	; 0x3744 <__divmodhi4_exit>

00003736 <__divmodhi4_neg1>:
    3736:	90 95       	com	r25
    3738:	81 95       	neg	r24
    373a:	9f 4f       	sbci	r25, 0xFF	; 255
    373c:	08 95       	ret

0000373e <__divmodhi4_neg2>:
    373e:	70 95       	com	r23
    3740:	61 95       	neg	r22
    3742:	7f 4f       	sbci	r23, 0xFF	; 255

00003744 <__divmodhi4_exit>:
    3744:	08 95       	ret

00003746 <__udivmodsi4>:
    3746:	a1 e2       	ldi	r26, 0x21	; 33
    3748:	1a 2e       	mov	r1, r26
    374a:	aa 1b       	sub	r26, r26
    374c:	bb 1b       	sub	r27, r27
    374e:	fd 01       	movw	r30, r26
    3750:	0d c0       	rjmp	.+26     	; 0x376c <__udivmodsi4_ep>

00003752 <__udivmodsi4_loop>:
    3752:	aa 1f       	adc	r26, r26
    3754:	bb 1f       	adc	r27, r27
    3756:	ee 1f       	adc	r30, r30
    3758:	ff 1f       	adc	r31, r31
    375a:	a2 17       	cp	r26, r18
    375c:	b3 07       	cpc	r27, r19
    375e:	e4 07       	cpc	r30, r20
    3760:	f5 07       	cpc	r31, r21
    3762:	20 f0       	brcs	.+8      	; 0x376c <__udivmodsi4_ep>
    3764:	a2 1b       	sub	r26, r18
    3766:	b3 0b       	sbc	r27, r19
    3768:	e4 0b       	sbc	r30, r20
    376a:	f5 0b       	sbc	r31, r21

0000376c <__udivmodsi4_ep>:
    376c:	66 1f       	adc	r22, r22
    376e:	77 1f       	adc	r23, r23
    3770:	88 1f       	adc	r24, r24
    3772:	99 1f       	adc	r25, r25
    3774:	1a 94       	dec	r1
    3776:	69 f7       	brne	.-38     	; 0x3752 <__udivmodsi4_loop>
    3778:	60 95       	com	r22
    377a:	70 95       	com	r23
    377c:	80 95       	com	r24
    377e:	90 95       	com	r25
    3780:	9b 01       	movw	r18, r22
    3782:	ac 01       	movw	r20, r24
    3784:	bd 01       	movw	r22, r26
    3786:	cf 01       	movw	r24, r30
    3788:	08 95       	ret

0000378a <__divmodsi4>:
    378a:	05 2e       	mov	r0, r21
    378c:	97 fb       	bst	r25, 7
    378e:	16 f4       	brtc	.+4      	; 0x3794 <__divmodsi4+0xa>
    3790:	00 94       	com	r0
    3792:	0f d0       	rcall	.+30     	; 0x37b2 <__negsi2>
    3794:	57 fd       	sbrc	r21, 7
    3796:	05 d0       	rcall	.+10     	; 0x37a2 <__divmodsi4_neg2>
    3798:	d6 df       	rcall	.-84     	; 0x3746 <__udivmodsi4>
    379a:	07 fc       	sbrc	r0, 7
    379c:	02 d0       	rcall	.+4      	; 0x37a2 <__divmodsi4_neg2>
    379e:	46 f4       	brtc	.+16     	; 0x37b0 <__divmodsi4_exit>
    37a0:	08 c0       	rjmp	.+16     	; 0x37b2 <__negsi2>

000037a2 <__divmodsi4_neg2>:
    37a2:	50 95       	com	r21
    37a4:	40 95       	com	r20
    37a6:	30 95       	com	r19
    37a8:	21 95       	neg	r18
    37aa:	3f 4f       	sbci	r19, 0xFF	; 255
    37ac:	4f 4f       	sbci	r20, 0xFF	; 255
    37ae:	5f 4f       	sbci	r21, 0xFF	; 255

000037b0 <__divmodsi4_exit>:
    37b0:	08 95       	ret

000037b2 <__negsi2>:
    37b2:	90 95       	com	r25
    37b4:	80 95       	com	r24
    37b6:	70 95       	com	r23
    37b8:	61 95       	neg	r22
    37ba:	7f 4f       	sbci	r23, 0xFF	; 255
    37bc:	8f 4f       	sbci	r24, 0xFF	; 255
    37be:	9f 4f       	sbci	r25, 0xFF	; 255
    37c0:	08 95       	ret

000037c2 <__tablejump2__>:
    37c2:	ee 0f       	add	r30, r30
    37c4:	ff 1f       	adc	r31, r31
    37c6:	00 24       	eor	r0, r0
    37c8:	00 1c       	adc	r0, r0
    37ca:	0b be       	out	0x3b, r0	; 59
    37cc:	07 90       	elpm	r0, Z+
    37ce:	f6 91       	elpm	r31, Z
    37d0:	e0 2d       	mov	r30, r0
    37d2:	09 94       	ijmp

000037d4 <__umulhisi3>:
    37d4:	a2 9f       	mul	r26, r18
    37d6:	b0 01       	movw	r22, r0
    37d8:	b3 9f       	mul	r27, r19
    37da:	c0 01       	movw	r24, r0
    37dc:	a3 9f       	mul	r26, r19
    37de:	70 0d       	add	r23, r0
    37e0:	81 1d       	adc	r24, r1
    37e2:	11 24       	eor	r1, r1
    37e4:	91 1d       	adc	r25, r1
    37e6:	b2 9f       	mul	r27, r18
    37e8:	70 0d       	add	r23, r0
    37ea:	81 1d       	adc	r24, r1
    37ec:	11 24       	eor	r1, r1
    37ee:	91 1d       	adc	r25, r1
    37f0:	08 95       	ret

000037f2 <__muluhisi3>:
    37f2:	f0 df       	rcall	.-32     	; 0x37d4 <__umulhisi3>
    37f4:	a5 9f       	mul	r26, r21
    37f6:	90 0d       	add	r25, r0
    37f8:	b4 9f       	mul	r27, r20
    37fa:	90 0d       	add	r25, r0
    37fc:	a4 9f       	mul	r26, r20
    37fe:	80 0d       	add	r24, r0
    3800:	91 1d       	adc	r25, r1
    3802:	11 24       	eor	r1, r1
    3804:	08 95       	ret

00003806 <strcmp>:
    3806:	fb 01       	movw	r30, r22
    3808:	dc 01       	movw	r26, r24
    380a:	8d 91       	ld	r24, X+
    380c:	01 90       	ld	r0, Z+
    380e:	80 19       	sub	r24, r0
    3810:	01 10       	cpse	r0, r1
    3812:	d9 f3       	breq	.-10     	; 0x380a <strcmp+0x4>
    3814:	99 0b       	sbc	r25, r25
    3816:	08 95       	ret

00003818 <strcpy>:
    3818:	fb 01       	movw	r30, r22
    381a:	dc 01       	movw	r26, r24
    381c:	01 90       	ld	r0, Z+
    381e:	0d 92       	st	X+, r0
    3820:	00 20       	and	r0, r0
    3822:	e1 f7       	brne	.-8      	; 0x381c <strcpy+0x4>
    3824:	08 95       	ret

00003826 <strncpy>:
    3826:	fb 01       	movw	r30, r22
    3828:	dc 01       	movw	r26, r24
    382a:	41 50       	subi	r20, 0x01	; 1
    382c:	50 40       	sbci	r21, 0x00	; 0
    382e:	48 f0       	brcs	.+18     	; 0x3842 <strncpy+0x1c>
    3830:	01 90       	ld	r0, Z+
    3832:	0d 92       	st	X+, r0
    3834:	00 20       	and	r0, r0
    3836:	c9 f7       	brne	.-14     	; 0x382a <strncpy+0x4>
    3838:	01 c0       	rjmp	.+2      	; 0x383c <strncpy+0x16>
    383a:	1d 92       	st	X+, r1
    383c:	41 50       	subi	r20, 0x01	; 1
    383e:	50 40       	sbci	r21, 0x00	; 0
    3840:	e0 f7       	brcc	.-8      	; 0x383a <strncpy+0x14>
    3842:	08 95       	ret

00003844 <_exit>:
    3844:	f8 94       	cli

00003846 <__stop_program>:
    3846:	ff cf       	rjmp	.-2      	; 0x3846 <__stop_program>
