
Atmega128.elf:     file format elf32-avr

Sections:
Idx Name          Size      VMA       LMA       File off  Algn
  0 .data         00000036  00800100  00002e60  00002ef4  2**0
                  CONTENTS, ALLOC, LOAD, DATA
  1 .text         00002e60  00000000  00000000  00000094  2**1
                  CONTENTS, ALLOC, LOAD, READONLY, CODE
  2 .bss          000002c1  00800136  00800136  00002f2a  2**0
                  ALLOC
  3 .comment      00000030  00000000  00000000  00002f2a  2**0
                  CONTENTS, READONLY
  4 .note.gnu.avr.deviceinfo 0000003c  00000000  00000000  00002f5c  2**2
                  CONTENTS, READONLY
  5 .debug_aranges 000007d0  00000000  00000000  00002f98  2**3
                  CONTENTS, READONLY, DEBUGGING
  6 .debug_info   000072bc  00000000  00000000  00003768  2**0
                  CONTENTS, READONLY, DEBUGGING
  7 .debug_abbrev 00001bb6  00000000  00000000  0000aa24  2**0
                  CONTENTS, READONLY, DEBUGGING
  8 .debug_line   00004089  00000000  00000000  0000c5da  2**0
                  CONTENTS, READONLY, DEBUGGING
  9 .debug_frame  000011ac  00000000  00000000  00010664  2**2
                  CONTENTS, READONLY, DEBUGGING
 10 .debug_str    0000157d  00000000  00000000  00011810  2**0
                  CONTENTS, READONLY, DEBUGGING
 11 .debug_loc    00005690  00000000  00000000  00012d8d  2**0
                  CONTENTS, READONLY, DEBUGGING
 12 .debug_ranges 000005d0  00000000  00000000  0001841d  2**0
                  CONTENTS, READONLY, DEBUGGING

Disassembly of section .text:

00000000 <__vectors>:
       0:	a1 c0       	rjmp	.+322    	; 0x144 <__ctors_end>
       2:	00 00       	nop
       4:	be c0       	rjmp	.+380    	; 0x182 <__bad_interrupt>
       6:	00 00       	nop
       8:	bc c0       	rjmp	.+376    	; 0x182 <__bad_interrupt>
       a:	00 00       	nop
       c:	ba c0       	rjmp	.+372    	; 0x182 <__bad_interrupt>
       e:	00 00       	nop
      10:	b8 c0       	rjmp	.+368    	; 0x182 <__bad_interrupt>
      12:	00 00       	nop
      14:	b6 c0       	rjmp	.+364    	; 0x182 <__bad_interrupt>
      16:	00 00       	nop
      18:	b4 c0       	rjmp	.+360    	; 0x182 <__bad_interrupt>
      1a:	00 00       	nop
      1c:	b2 c0       	rjmp	.+356    	; 0x182 <__bad_interrupt>
      1e:	00 00       	nop
      20:	b0 c0       	rjmp	.+352    	; 0x182 <__bad_interrupt>
      22:	00 00       	nop
      24:	ae c0       	rjmp	.+348    	; 0x182 <__bad_interrupt>
      26:	00 00       	nop
      28:	b6 c3       	rjmp	.+1900   	; 0x796 <__vector_10>
      2a:	00 00       	nop
      2c:	8c c3       	rjmp	.+1816   	; 0x746 <__vector_11>
      2e:	00 00       	nop
      30:	0c 94 22 12 	jmp	0x2444	; 0x2444 <__vector_12>
      34:	92 c3       	rjmp	.+1828   	; 0x75a <__vector_13>
      36:	00 00       	nop
      38:	a4 c3       	rjmp	.+1864   	; 0x782 <__vector_14>
      3a:	00 00       	nop
      3c:	0c 94 e6 11 	jmp	0x23cc	; 0x23cc <__vector_15>
      40:	78 c3       	rjmp	.+1776   	; 0x732 <__vector_16>
      42:	00 00       	nop
      44:	9e c0       	rjmp	.+316    	; 0x182 <__bad_interrupt>
      46:	00 00       	nop
      48:	e2 c3       	rjmp	.+1988   	; 0x80e <__vector_18>
      4a:	00 00       	nop
      4c:	16 c4       	rjmp	.+2092   	; 0x87a <__vector_19>
      4e:	00 00       	nop
      50:	98 c0       	rjmp	.+304    	; 0x182 <__bad_interrupt>
      52:	00 00       	nop
      54:	97 c0       	rjmp	.+302    	; 0x184 <__vector_21>
      56:	00 00       	nop
      58:	94 c0       	rjmp	.+296    	; 0x182 <__bad_interrupt>
      5a:	00 00       	nop
      5c:	92 c0       	rjmp	.+292    	; 0x182 <__bad_interrupt>
      5e:	00 00       	nop
      60:	86 c3       	rjmp	.+1804   	; 0x76e <__vector_24>
      62:	00 00       	nop
      64:	a2 c3       	rjmp	.+1860   	; 0x7aa <__vector_25>
      66:	00 00       	nop
      68:	aa c3       	rjmp	.+1876   	; 0x7be <__vector_26>
      6a:	00 00       	nop
      6c:	b2 c3       	rjmp	.+1892   	; 0x7d2 <__vector_27>
      6e:	00 00       	nop
      70:	ba c3       	rjmp	.+1908   	; 0x7e6 <__vector_28>
      72:	00 00       	nop
      74:	c2 c3       	rjmp	.+1924   	; 0x7fa <__vector_29>
      76:	00 00       	nop
      78:	29 c4       	rjmp	.+2130   	; 0x8cc <__vector_30>
      7a:	00 00       	nop
      7c:	60 c4       	rjmp	.+2240   	; 0x93e <__vector_31>
      7e:	00 00       	nop
      80:	80 c0       	rjmp	.+256    	; 0x182 <__bad_interrupt>
      82:	00 00       	nop
      84:	7e c0       	rjmp	.+252    	; 0x182 <__bad_interrupt>
      86:	00 00       	nop
      88:	7c c0       	rjmp	.+248    	; 0x182 <__bad_interrupt>
      8a:	00 00       	nop
      8c:	ba 02       	muls	r27, r26
      8e:	be 02       	muls	r27, r30
      90:	c2 02       	muls	r28, r18
      92:	c6 02       	muls	r28, r22
      94:	ca 02       	muls	r28, r26
      96:	d1 02       	muls	r29, r17
      98:	d8 02       	muls	r29, r24
      9a:	df 02       	muls	r29, r31
      9c:	e3 02       	muls	r30, r19
      9e:	ea 02       	muls	r30, r26
      a0:	f1 02       	muls	r31, r17
      a2:	f8 02       	muls	r31, r24
      a4:	fc 02       	muls	r31, r28
      a6:	03 03       	mulsu	r16, r19
      a8:	0a 03       	fmul	r16, r18
      aa:	26 03       	mulsu	r18, r22
      ac:	2a 03       	fmul	r18, r18
      ae:	2e 03       	fmul	r18, r22
      b0:	32 03       	mulsu	r19, r18
      b2:	38 03       	fmul	r19, r16
      b4:	3c 03       	fmul	r19, r20
      b6:	40 03       	mulsu	r20, r16
      b8:	44 03       	mulsu	r20, r20
      ba:	4d 03       	fmul	r20, r21
      bc:	51 03       	mulsu	r21, r17
      be:	55 03       	mulsu	r21, r21
      c0:	5e 03       	fmul	r21, r22
      c2:	07 63       	ori	r16, 0x37	; 55
      c4:	42 36       	cpi	r20, 0x62	; 98
      c6:	b7 9b       	sbis	0x16, 7	; 22
      c8:	d8 a7       	std	Y+40, r29	; 0x28
      ca:	1a 39       	cpi	r17, 0x9A	; 154
      cc:	68 56       	subi	r22, 0x68	; 104
      ce:	18 ae       	std	Y+56, r1	; 0x38
      d0:	ba ab       	std	Y+50, r27	; 0x32
      d2:	55 8c       	ldd	r5, Z+29	; 0x1d
      d4:	1d 3c       	cpi	r17, 0xCD	; 205
      d6:	b7 cc       	rjmp	.-1682   	; 0xfffffa46 <__eeprom_end+0xff7efa46>
      d8:	57 63       	ori	r21, 0x37	; 55
      da:	bd 6d       	ori	r27, 0xDD	; 221
      dc:	ed fd       	.word	0xfded	; ????
      de:	75 3e       	cpi	r23, 0xE5	; 229
      e0:	f6 17       	cp	r31, r22
      e2:	72 31       	cpi	r23, 0x12	; 18
      e4:	bf 00       	.word	0x00bf	; ????
      e6:	00 00       	nop
      e8:	80 3f       	cpi	r24, 0xF0	; 240
      ea:	08 00       	.word	0x0008	; ????
      ec:	00 00       	nop
      ee:	be 92       	st	-X, r11
      f0:	24 49       	sbci	r18, 0x94	; 148
      f2:	12 3e       	cpi	r17, 0xE2	; 226
      f4:	ab aa       	std	Y+51, r10	; 0x33
      f6:	aa 2a       	or	r10, r26
      f8:	be cd       	rjmp	.-1156   	; 0xfffffc76 <__eeprom_end+0xff7efc76>
      fa:	cc cc       	rjmp	.-1640   	; 0xfffffa94 <__eeprom_end+0xff7efa94>
      fc:	4c 3e       	cpi	r20, 0xEC	; 236
      fe:	00 00       	nop
     100:	00 80       	ld	r0, Z
     102:	be ab       	std	Y+54, r27	; 0x36
     104:	aa aa       	std	Y+50, r10	; 0x32
     106:	aa 3e       	cpi	r26, 0xEA	; 234
     108:	00 00       	nop
     10a:	00 00       	nop
     10c:	bf 00       	.word	0x00bf	; ????
     10e:	00 00       	nop
     110:	80 3f       	cpi	r24, 0xF0	; 240
     112:	00 00       	nop
     114:	00 00       	nop
     116:	00 08       	sbc	r0, r0
     118:	41 78       	andi	r20, 0x81	; 129
     11a:	d3 bb       	out	0x13, r29	; 19
     11c:	43 87       	std	Z+11, r20	; 0x0b
     11e:	d1 13       	cpse	r29, r17
     120:	3d 19       	sub	r19, r13
     122:	0e 3c       	cpi	r16, 0xCE	; 206
     124:	c3 bd       	out	0x23, r28	; 35
     126:	42 82       	std	Z+2, r4	; 0x02
     128:	ad 2b       	or	r26, r29
     12a:	3e 68       	ori	r19, 0x8E	; 142
     12c:	ec 82       	std	Y+4, r14	; 0x04
     12e:	76 be       	out	0x36, r7	; 54
     130:	d9 8f       	std	Y+25, r29	; 0x19
     132:	e1 a9       	ldd	r30, Z+49	; 0x31
     134:	3e 4c       	sbci	r19, 0xCE	; 206
     136:	80 ef       	ldi	r24, 0xF0	; 240
     138:	ff be       	out	0x3f, r15	; 63
     13a:	01 c4       	rjmp	.+2050   	; 0x93e <__vector_31>
     13c:	ff 7f       	andi	r31, 0xFF	; 255
     13e:	3f 00       	.word	0x003f	; ????
     140:	00 00       	nop
	...

00000144 <__ctors_end>:
     144:	11 24       	eor	r1, r1
     146:	1f be       	out	0x3f, r1	; 63
     148:	cf ef       	ldi	r28, 0xFF	; 255
     14a:	d0 e1       	ldi	r29, 0x10	; 16
     14c:	de bf       	out	0x3e, r29	; 62
     14e:	cd bf       	out	0x3d, r28	; 61

00000150 <__do_copy_data>:
     150:	11 e0       	ldi	r17, 0x01	; 1
     152:	a0 e0       	ldi	r26, 0x00	; 0
     154:	b1 e0       	ldi	r27, 0x01	; 1
     156:	e0 e6       	ldi	r30, 0x60	; 96
     158:	fe e2       	ldi	r31, 0x2E	; 46
     15a:	00 e0       	ldi	r16, 0x00	; 0
     15c:	0b bf       	out	0x3b, r16	; 59
     15e:	02 c0       	rjmp	.+4      	; 0x164 <__do_copy_data+0x14>
     160:	07 90       	elpm	r0, Z+
     162:	0d 92       	st	X+, r0
     164:	a6 33       	cpi	r26, 0x36	; 54
     166:	b1 07       	cpc	r27, r17
     168:	d9 f7       	brne	.-10     	; 0x160 <__do_copy_data+0x10>

0000016a <__do_clear_bss>:
     16a:	23 e0       	ldi	r18, 0x03	; 3
     16c:	a6 e3       	ldi	r26, 0x36	; 54
     16e:	b1 e0       	ldi	r27, 0x01	; 1
     170:	01 c0       	rjmp	.+2      	; 0x174 <.do_clear_bss_start>

00000172 <.do_clear_bss_loop>:
     172:	1d 92       	st	X+, r1

00000174 <.do_clear_bss_start>:
     174:	a7 3f       	cpi	r26, 0xF7	; 247
     176:	b2 07       	cpc	r27, r18
     178:	e1 f7       	brne	.-8      	; 0x172 <.do_clear_bss_loop>
     17a:	0e 94 92 0f 	call	0x1f24	; 0x1f24 <main>
     17e:	0c 94 2e 17 	jmp	0x2e5c	; 0x2e5c <_exit>

00000182 <__bad_interrupt>:
     182:	3e cf       	rjmp	.-388    	; 0x0 <__vectors>

00000184 <__vector_21>:
ISR(ANALOG_INTERRUPT)
/*************************************************************************
Function: ANALOG interrupt
Purpose:  Read Analog Input
**************************************************************************/
{
     184:	1f 92       	push	r1
     186:	0f 92       	push	r0
     188:	0f b6       	in	r0, 0x3f	; 63
     18a:	0f 92       	push	r0
     18c:	11 24       	eor	r1, r1
     18e:	0b b6       	in	r0, 0x3b	; 59
     190:	0f 92       	push	r0
     192:	2f 93       	push	r18
     194:	3f 93       	push	r19
     196:	4f 93       	push	r20
     198:	5f 93       	push	r21
     19a:	8f 93       	push	r24
     19c:	9f 93       	push	r25
     19e:	ef 93       	push	r30
     1a0:	ff 93       	push	r31
	uint8_t Sreg;
	Sreg=STATUS_REGISTER;
     1a2:	2f b7       	in	r18, 0x3f	; 63
	STATUS_REGISTER&=~(1<<GLOBAL_INTERRUPT_ENABLE);
     1a4:	8f b7       	in	r24, 0x3f	; 63
     1a6:	8f 77       	andi	r24, 0x7F	; 127
     1a8:	8f bf       	out	0x3f, r24	; 63
	adc_tmp=ADCL;
     1aa:	84 b1       	in	r24, 0x04	; 4
     1ac:	90 e0       	ldi	r25, 0x00	; 0
     1ae:	90 93 38 01 	sts	0x0138, r25	; 0x800138 <adc_tmp+0x1>
     1b2:	80 93 37 01 	sts	0x0137, r24	; 0x800137 <adc_tmp>
	adc_tmp|=(ADCH<<8);
     1b6:	35 b1       	in	r19, 0x05	; 5
     1b8:	80 91 37 01 	lds	r24, 0x0137	; 0x800137 <adc_tmp>
     1bc:	90 91 38 01 	lds	r25, 0x0138	; 0x800138 <adc_tmp+0x1>
     1c0:	93 2b       	or	r25, r19
     1c2:	90 93 38 01 	sts	0x0138, r25	; 0x800138 <adc_tmp+0x1>
     1c6:	80 93 37 01 	sts	0x0137, r24	; 0x800137 <adc_tmp>
	if(adc_n_sample < (1<<ADC_NUMBER_SAMPLE)){
     1ca:	80 91 36 01 	lds	r24, 0x0136	; 0x800136 <__data_end>
     1ce:	84 30       	cpi	r24, 0x04	; 4
     1d0:	a0 f4       	brcc	.+40     	; 0x1fa <__vector_21+0x76>
		adc_n_sample++;
     1d2:	80 91 36 01 	lds	r24, 0x0136	; 0x800136 <__data_end>
     1d6:	8f 5f       	subi	r24, 0xFF	; 255
     1d8:	80 93 36 01 	sts	0x0136, r24	; 0x800136 <__data_end>
		adc_sample+=adc_tmp;
     1dc:	40 91 37 01 	lds	r20, 0x0137	; 0x800137 <adc_tmp>
     1e0:	50 91 38 01 	lds	r21, 0x0138	; 0x800138 <adc_tmp+0x1>
     1e4:	80 91 39 01 	lds	r24, 0x0139	; 0x800139 <adc_sample>
     1e8:	90 91 3a 01 	lds	r25, 0x013A	; 0x80013a <adc_sample+0x1>
     1ec:	84 0f       	add	r24, r20
     1ee:	95 1f       	adc	r25, r21
     1f0:	90 93 3a 01 	sts	0x013A, r25	; 0x80013a <adc_sample+0x1>
     1f4:	80 93 39 01 	sts	0x0139, r24	; 0x800139 <adc_sample>
     1f8:	43 c0       	rjmp	.+134    	; 0x280 <__vector_21+0xfc>
	}else{
		ADC_VALUE[ADC_SELECTOR]=adc_sample>>ADC_NUMBER_SAMPLE;
     1fa:	e0 91 3b 01 	lds	r30, 0x013B	; 0x80013b <ADC_SELECTOR>
     1fe:	f0 91 3c 01 	lds	r31, 0x013C	; 0x80013c <ADC_SELECTOR+0x1>
     202:	80 91 39 01 	lds	r24, 0x0139	; 0x800139 <adc_sample>
     206:	90 91 3a 01 	lds	r25, 0x013A	; 0x80013a <adc_sample+0x1>
     20a:	95 95       	asr	r25
     20c:	87 95       	ror	r24
     20e:	95 95       	asr	r25
     210:	87 95       	ror	r24
     212:	ee 0f       	add	r30, r30
     214:	ff 1f       	adc	r31, r31
     216:	e1 5b       	subi	r30, 0xB1	; 177
     218:	fe 4f       	sbci	r31, 0xFE	; 254
     21a:	91 83       	std	Z+1, r25	; 0x01
     21c:	80 83       	st	Z, r24
		adc_n_sample=adc_sample=0;
     21e:	10 92 3a 01 	sts	0x013A, r1	; 0x80013a <adc_sample+0x1>
     222:	10 92 39 01 	sts	0x0139, r1	; 0x800139 <adc_sample>
     226:	10 92 36 01 	sts	0x0136, r1	; 0x800136 <__data_end>
		/******/
		if(ADC_SELECTOR < ADC_N_CHANNEL)
     22a:	40 91 3b 01 	lds	r20, 0x013B	; 0x80013b <ADC_SELECTOR>
     22e:	50 91 3c 01 	lds	r21, 0x013C	; 0x80013c <ADC_SELECTOR+0x1>
     232:	80 91 3d 01 	lds	r24, 0x013D	; 0x80013d <ADC_N_CHANNEL>
     236:	90 91 3e 01 	lds	r25, 0x013E	; 0x80013e <ADC_N_CHANNEL+0x1>
     23a:	48 17       	cp	r20, r24
     23c:	59 07       	cpc	r21, r25
     23e:	54 f4       	brge	.+20     	; 0x254 <__vector_21+0xd0>
			ADC_SELECTOR++;
     240:	80 91 3b 01 	lds	r24, 0x013B	; 0x80013b <ADC_SELECTOR>
     244:	90 91 3c 01 	lds	r25, 0x013C	; 0x80013c <ADC_SELECTOR+0x1>
     248:	01 96       	adiw	r24, 0x01	; 1
     24a:	90 93 3c 01 	sts	0x013C, r25	; 0x80013c <ADC_SELECTOR+0x1>
     24e:	80 93 3b 01 	sts	0x013B, r24	; 0x80013b <ADC_SELECTOR>
     252:	04 c0       	rjmp	.+8      	; 0x25c <__vector_21+0xd8>
		else
			ADC_SELECTOR=0;
     254:	10 92 3c 01 	sts	0x013C, r1	; 0x80013c <ADC_SELECTOR+0x1>
     258:	10 92 3b 01 	sts	0x013B, r1	; 0x80013b <ADC_SELECTOR>
		ADC_SELECT &= ~MUX_MASK;
     25c:	87 b1       	in	r24, 0x07	; 7
     25e:	80 7e       	andi	r24, 0xE0	; 224
     260:	87 b9       	out	0x07, r24	; 7
		ADC_SELECT |= (ADC_CHANNEL_GAIN[ADC_SELECTOR] & MUX_MASK);
     262:	e0 91 3b 01 	lds	r30, 0x013B	; 0x80013b <ADC_SELECTOR>
     266:	f0 91 3c 01 	lds	r31, 0x013C	; 0x80013c <ADC_SELECTOR+0x1>
     26a:	ee 0f       	add	r30, r30
     26c:	ff 1f       	adc	r31, r31
     26e:	e1 5c       	subi	r30, 0xC1	; 193
     270:	fe 4f       	sbci	r31, 0xFE	; 254
     272:	80 81       	ld	r24, Z
     274:	91 81       	ldd	r25, Z+1	; 0x01
     276:	37 b1       	in	r19, 0x07	; 7
     278:	8f 71       	andi	r24, 0x1F	; 31
     27a:	99 27       	eor	r25, r25
     27c:	83 2b       	or	r24, r19
     27e:	87 b9       	out	0x07, r24	; 7
	}
	STATUS_REGISTER=Sreg;
     280:	2f bf       	out	0x3f, r18	; 63
}
     282:	ff 91       	pop	r31
     284:	ef 91       	pop	r30
     286:	9f 91       	pop	r25
     288:	8f 91       	pop	r24
     28a:	5f 91       	pop	r21
     28c:	4f 91       	pop	r20
     28e:	3f 91       	pop	r19
     290:	2f 91       	pop	r18
     292:	0f 90       	pop	r0
     294:	0b be       	out	0x3b, r0	; 59
     296:	0f 90       	pop	r0
     298:	0f be       	out	0x3f, r0	; 63
     29a:	0f 90       	pop	r0
     29c:	1f 90       	pop	r1
     29e:	18 95       	reti

000002a0 <TIMER_COUNTER0_start>:
	timer3.compareB=TIMER_COUNTER3_compareB;
	timer3.compareC=TIMER_COUNTER3_compareC;
	timer3.start=TIMER_COUNTER3_start;
	timer3.stop=TIMER_COUNTER3_stop;
	return timer3;
}
     2a0:	20 91 65 01 	lds	r18, 0x0165	; 0x800165 <timer0_state>
     2a4:	21 11       	cpse	r18, r1
     2a6:	41 c0       	rjmp	.+130    	; 0x32a <TIMER_COUNTER0_start+0x8a>
     2a8:	23 b7       	in	r18, 0x33	; 51
     2aa:	28 7f       	andi	r18, 0xF8	; 248
     2ac:	23 bf       	out	0x33, r18	; 51
     2ae:	80 34       	cpi	r24, 0x40	; 64
     2b0:	91 05       	cpc	r25, r1
     2b2:	11 f1       	breq	.+68     	; 0x2f8 <TIMER_COUNTER0_start+0x58>
     2b4:	48 f4       	brcc	.+18     	; 0x2c8 <TIMER_COUNTER0_start+0x28>
     2b6:	88 30       	cpi	r24, 0x08	; 8
     2b8:	91 05       	cpc	r25, r1
     2ba:	b1 f0       	breq	.+44     	; 0x2e8 <TIMER_COUNTER0_start+0x48>
     2bc:	80 32       	cpi	r24, 0x20	; 32
     2be:	91 05       	cpc	r25, r1
     2c0:	b9 f0       	breq	.+46     	; 0x2f0 <TIMER_COUNTER0_start+0x50>
     2c2:	01 97       	sbiw	r24, 0x01	; 1
     2c4:	49 f5       	brne	.+82     	; 0x318 <TIMER_COUNTER0_start+0x78>
     2c6:	0c c0       	rjmp	.+24     	; 0x2e0 <TIMER_COUNTER0_start+0x40>
     2c8:	81 15       	cp	r24, r1
     2ca:	21 e0       	ldi	r18, 0x01	; 1
     2cc:	92 07       	cpc	r25, r18
     2ce:	e1 f0       	breq	.+56     	; 0x308 <TIMER_COUNTER0_start+0x68>
     2d0:	81 15       	cp	r24, r1
     2d2:	24 e0       	ldi	r18, 0x04	; 4
     2d4:	92 07       	cpc	r25, r18
     2d6:	e1 f0       	breq	.+56     	; 0x310 <TIMER_COUNTER0_start+0x70>
     2d8:	80 38       	cpi	r24, 0x80	; 128
     2da:	91 05       	cpc	r25, r1
     2dc:	e9 f4       	brne	.+58     	; 0x318 <TIMER_COUNTER0_start+0x78>
     2de:	10 c0       	rjmp	.+32     	; 0x300 <TIMER_COUNTER0_start+0x60>
     2e0:	83 b7       	in	r24, 0x33	; 51
     2e2:	81 60       	ori	r24, 0x01	; 1
     2e4:	83 bf       	out	0x33, r24	; 51
     2e6:	1b c0       	rjmp	.+54     	; 0x31e <TIMER_COUNTER0_start+0x7e>
     2e8:	83 b7       	in	r24, 0x33	; 51
     2ea:	82 60       	ori	r24, 0x02	; 2
     2ec:	83 bf       	out	0x33, r24	; 51
     2ee:	17 c0       	rjmp	.+46     	; 0x31e <TIMER_COUNTER0_start+0x7e>
     2f0:	83 b7       	in	r24, 0x33	; 51
     2f2:	83 60       	ori	r24, 0x03	; 3
     2f4:	83 bf       	out	0x33, r24	; 51
     2f6:	13 c0       	rjmp	.+38     	; 0x31e <TIMER_COUNTER0_start+0x7e>
     2f8:	83 b7       	in	r24, 0x33	; 51
     2fa:	84 60       	ori	r24, 0x04	; 4
     2fc:	83 bf       	out	0x33, r24	; 51
     2fe:	0f c0       	rjmp	.+30     	; 0x31e <TIMER_COUNTER0_start+0x7e>
     300:	83 b7       	in	r24, 0x33	; 51
     302:	85 60       	ori	r24, 0x05	; 5
     304:	83 bf       	out	0x33, r24	; 51
     306:	0b c0       	rjmp	.+22     	; 0x31e <TIMER_COUNTER0_start+0x7e>
     308:	83 b7       	in	r24, 0x33	; 51
     30a:	86 60       	ori	r24, 0x06	; 6
     30c:	83 bf       	out	0x33, r24	; 51
     30e:	07 c0       	rjmp	.+14     	; 0x31e <TIMER_COUNTER0_start+0x7e>
     310:	83 b7       	in	r24, 0x33	; 51
     312:	87 60       	ori	r24, 0x07	; 7
     314:	83 bf       	out	0x33, r24	; 51
     316:	03 c0       	rjmp	.+6      	; 0x31e <TIMER_COUNTER0_start+0x7e>
     318:	83 b7       	in	r24, 0x33	; 51
     31a:	87 60       	ori	r24, 0x07	; 7
     31c:	83 bf       	out	0x33, r24	; 51
     31e:	8f b7       	in	r24, 0x3f	; 63
     320:	80 68       	ori	r24, 0x80	; 128
     322:	8f bf       	out	0x3f, r24	; 63
     324:	81 e0       	ldi	r24, 0x01	; 1
     326:	80 93 65 01 	sts	0x0165, r24	; 0x800165 <timer0_state>
     32a:	08 95       	ret

0000032c <TIMER_COUNTER0_compoutmode>:
     32c:	93 b7       	in	r25, 0x33	; 51
     32e:	9f 7c       	andi	r25, 0xCF	; 207
     330:	93 bf       	out	0x33, r25	; 51
     332:	82 30       	cpi	r24, 0x02	; 2
     334:	51 f0       	breq	.+20     	; 0x34a <TIMER_COUNTER0_compoutmode+0x1e>
     336:	83 30       	cpi	r24, 0x03	; 3
     338:	71 f0       	breq	.+28     	; 0x356 <TIMER_COUNTER0_compoutmode+0x2a>
     33a:	81 30       	cpi	r24, 0x01	; 1
     33c:	89 f4       	brne	.+34     	; 0x360 <TIMER_COUNTER0_compoutmode+0x34>
     33e:	80 e1       	ldi	r24, 0x10	; 16
     340:	87 bb       	out	0x17, r24	; 23
     342:	83 b7       	in	r24, 0x33	; 51
     344:	80 61       	ori	r24, 0x10	; 16
     346:	83 bf       	out	0x33, r24	; 51
     348:	08 95       	ret
     34a:	80 e1       	ldi	r24, 0x10	; 16
     34c:	87 bb       	out	0x17, r24	; 23
     34e:	83 b7       	in	r24, 0x33	; 51
     350:	80 62       	ori	r24, 0x20	; 32
     352:	83 bf       	out	0x33, r24	; 51
     354:	08 95       	ret
     356:	80 e1       	ldi	r24, 0x10	; 16
     358:	87 bb       	out	0x17, r24	; 23
     35a:	83 b7       	in	r24, 0x33	; 51
     35c:	80 63       	ori	r24, 0x30	; 48
     35e:	83 bf       	out	0x33, r24	; 51
     360:	08 95       	ret

00000362 <TIMER_COUNTER0_compare>:
     362:	81 bf       	out	0x31, r24	; 49
     364:	08 95       	ret

00000366 <TIMER_COUNTER0_stop>:
     366:	83 b7       	in	r24, 0x33	; 51
     368:	88 7f       	andi	r24, 0xF8	; 248
     36a:	83 bf       	out	0x33, r24	; 51
     36c:	12 be       	out	0x32, r1	; 50
     36e:	10 92 65 01 	sts	0x0165, r1	; 0x800165 <timer0_state>
     372:	08 95       	ret

00000374 <TIMER_COUNTER1_start>:
     374:	20 91 62 01 	lds	r18, 0x0162	; 0x800162 <timer1_state>
     378:	21 11       	cpse	r18, r1
     37a:	41 c0       	rjmp	.+130    	; 0x3fe <TIMER_COUNTER1_start+0x8a>
     37c:	2e b5       	in	r18, 0x2e	; 46
     37e:	28 7f       	andi	r18, 0xF8	; 248
     380:	2e bd       	out	0x2e, r18	; 46
     382:	88 30       	cpi	r24, 0x08	; 8
     384:	91 05       	cpc	r25, r1
     386:	d1 f0       	breq	.+52     	; 0x3bc <TIMER_COUNTER1_start+0x48>
     388:	48 f4       	brcc	.+18     	; 0x39c <TIMER_COUNTER1_start+0x28>
     38a:	83 30       	cpi	r24, 0x03	; 3
     38c:	91 05       	cpc	r25, r1
     38e:	31 f1       	breq	.+76     	; 0x3dc <TIMER_COUNTER1_start+0x68>
     390:	85 30       	cpi	r24, 0x05	; 5
     392:	91 05       	cpc	r25, r1
     394:	39 f1       	breq	.+78     	; 0x3e4 <TIMER_COUNTER1_start+0x70>
     396:	01 97       	sbiw	r24, 0x01	; 1
     398:	49 f5       	brne	.+82     	; 0x3ec <TIMER_COUNTER1_start+0x78>
     39a:	0c c0       	rjmp	.+24     	; 0x3b4 <TIMER_COUNTER1_start+0x40>
     39c:	81 15       	cp	r24, r1
     39e:	21 e0       	ldi	r18, 0x01	; 1
     3a0:	92 07       	cpc	r25, r18
     3a2:	a1 f0       	breq	.+40     	; 0x3cc <TIMER_COUNTER1_start+0x58>
     3a4:	81 15       	cp	r24, r1
     3a6:	24 e0       	ldi	r18, 0x04	; 4
     3a8:	92 07       	cpc	r25, r18
     3aa:	a1 f0       	breq	.+40     	; 0x3d4 <TIMER_COUNTER1_start+0x60>
     3ac:	80 34       	cpi	r24, 0x40	; 64
     3ae:	91 05       	cpc	r25, r1
     3b0:	e9 f4       	brne	.+58     	; 0x3ec <TIMER_COUNTER1_start+0x78>
     3b2:	08 c0       	rjmp	.+16     	; 0x3c4 <TIMER_COUNTER1_start+0x50>
     3b4:	8e b5       	in	r24, 0x2e	; 46
     3b6:	81 60       	ori	r24, 0x01	; 1
     3b8:	8e bd       	out	0x2e, r24	; 46
     3ba:	1b c0       	rjmp	.+54     	; 0x3f2 <TIMER_COUNTER1_start+0x7e>
     3bc:	8e b5       	in	r24, 0x2e	; 46
     3be:	82 60       	ori	r24, 0x02	; 2
     3c0:	8e bd       	out	0x2e, r24	; 46
     3c2:	17 c0       	rjmp	.+46     	; 0x3f2 <TIMER_COUNTER1_start+0x7e>
     3c4:	8e b5       	in	r24, 0x2e	; 46
     3c6:	83 60       	ori	r24, 0x03	; 3
     3c8:	8e bd       	out	0x2e, r24	; 46
     3ca:	13 c0       	rjmp	.+38     	; 0x3f2 <TIMER_COUNTER1_start+0x7e>
     3cc:	8e b5       	in	r24, 0x2e	; 46
     3ce:	84 60       	ori	r24, 0x04	; 4
     3d0:	8e bd       	out	0x2e, r24	; 46
     3d2:	0f c0       	rjmp	.+30     	; 0x3f2 <TIMER_COUNTER1_start+0x7e>
     3d4:	8e b5       	in	r24, 0x2e	; 46
     3d6:	85 60       	ori	r24, 0x05	; 5
     3d8:	8e bd       	out	0x2e, r24	; 46
     3da:	0b c0       	rjmp	.+22     	; 0x3f2 <TIMER_COUNTER1_start+0x7e>
     3dc:	8e b5       	in	r24, 0x2e	; 46
     3de:	86 60       	ori	r24, 0x06	; 6
     3e0:	8e bd       	out	0x2e, r24	; 46
     3e2:	07 c0       	rjmp	.+14     	; 0x3f2 <TIMER_COUNTER1_start+0x7e>
     3e4:	8e b5       	in	r24, 0x2e	; 46
     3e6:	87 60       	ori	r24, 0x07	; 7
     3e8:	8e bd       	out	0x2e, r24	; 46
     3ea:	03 c0       	rjmp	.+6      	; 0x3f2 <TIMER_COUNTER1_start+0x7e>
     3ec:	8e b5       	in	r24, 0x2e	; 46
     3ee:	85 60       	ori	r24, 0x05	; 5
     3f0:	8e bd       	out	0x2e, r24	; 46
     3f2:	8f b7       	in	r24, 0x3f	; 63
     3f4:	80 68       	ori	r24, 0x80	; 128
     3f6:	8f bf       	out	0x3f, r24	; 63
     3f8:	81 e0       	ldi	r24, 0x01	; 1
     3fa:	80 93 62 01 	sts	0x0162, r24	; 0x800162 <timer1_state>
     3fe:	08 95       	ret

00000400 <TIMER_COUNTER1_compoutmodeA>:
     400:	9f b5       	in	r25, 0x2f	; 47
     402:	9f 73       	andi	r25, 0x3F	; 63
     404:	9f bd       	out	0x2f, r25	; 47
     406:	82 30       	cpi	r24, 0x02	; 2
     408:	49 f0       	breq	.+18     	; 0x41c <TIMER_COUNTER1_compoutmodeA+0x1c>
     40a:	83 30       	cpi	r24, 0x03	; 3
     40c:	61 f0       	breq	.+24     	; 0x426 <TIMER_COUNTER1_compoutmodeA+0x26>
     40e:	81 30       	cpi	r24, 0x01	; 1
     410:	71 f4       	brne	.+28     	; 0x42e <TIMER_COUNTER1_compoutmodeA+0x2e>
     412:	bd 9a       	sbi	0x17, 5	; 23
     414:	8f b5       	in	r24, 0x2f	; 47
     416:	80 64       	ori	r24, 0x40	; 64
     418:	8f bd       	out	0x2f, r24	; 47
     41a:	08 95       	ret
     41c:	bd 9a       	sbi	0x17, 5	; 23
     41e:	8f b5       	in	r24, 0x2f	; 47
     420:	80 68       	ori	r24, 0x80	; 128
     422:	8f bd       	out	0x2f, r24	; 47
     424:	08 95       	ret
     426:	bd 9a       	sbi	0x17, 5	; 23
     428:	8f b5       	in	r24, 0x2f	; 47
     42a:	80 6c       	ori	r24, 0xC0	; 192
     42c:	8f bd       	out	0x2f, r24	; 47
     42e:	08 95       	ret

00000430 <TIMER_COUNTER1_compoutmodeB>:
     430:	9f b5       	in	r25, 0x2f	; 47
     432:	9f 7c       	andi	r25, 0xCF	; 207
     434:	9f bd       	out	0x2f, r25	; 47
     436:	82 30       	cpi	r24, 0x02	; 2
     438:	49 f0       	breq	.+18     	; 0x44c <TIMER_COUNTER1_compoutmodeB+0x1c>
     43a:	83 30       	cpi	r24, 0x03	; 3
     43c:	61 f0       	breq	.+24     	; 0x456 <TIMER_COUNTER1_compoutmodeB+0x26>
     43e:	81 30       	cpi	r24, 0x01	; 1
     440:	71 f4       	brne	.+28     	; 0x45e <TIMER_COUNTER1_compoutmodeB+0x2e>
     442:	be 9a       	sbi	0x17, 6	; 23
     444:	8f b5       	in	r24, 0x2f	; 47
     446:	80 61       	ori	r24, 0x10	; 16
     448:	8f bd       	out	0x2f, r24	; 47
     44a:	08 95       	ret
     44c:	be 9a       	sbi	0x17, 6	; 23
     44e:	8f b5       	in	r24, 0x2f	; 47
     450:	80 62       	ori	r24, 0x20	; 32
     452:	8f bd       	out	0x2f, r24	; 47
     454:	08 95       	ret
     456:	be 9a       	sbi	0x17, 6	; 23
     458:	8f b5       	in	r24, 0x2f	; 47
     45a:	80 63       	ori	r24, 0x30	; 48
     45c:	8f bd       	out	0x2f, r24	; 47
     45e:	08 95       	ret

00000460 <TIMER_COUNTER1_compoutmodeC>:
     460:	9f b5       	in	r25, 0x2f	; 47
     462:	93 7f       	andi	r25, 0xF3	; 243
     464:	9f bd       	out	0x2f, r25	; 47
     466:	82 30       	cpi	r24, 0x02	; 2
     468:	49 f0       	breq	.+18     	; 0x47c <TIMER_COUNTER1_compoutmodeC+0x1c>
     46a:	83 30       	cpi	r24, 0x03	; 3
     46c:	61 f0       	breq	.+24     	; 0x486 <TIMER_COUNTER1_compoutmodeC+0x26>
     46e:	81 30       	cpi	r24, 0x01	; 1
     470:	71 f4       	brne	.+28     	; 0x48e <TIMER_COUNTER1_compoutmodeC+0x2e>
     472:	bf 9a       	sbi	0x17, 7	; 23
     474:	8f b5       	in	r24, 0x2f	; 47
     476:	84 60       	ori	r24, 0x04	; 4
     478:	8f bd       	out	0x2f, r24	; 47
     47a:	08 95       	ret
     47c:	bf 9a       	sbi	0x17, 7	; 23
     47e:	8f b5       	in	r24, 0x2f	; 47
     480:	88 60       	ori	r24, 0x08	; 8
     482:	8f bd       	out	0x2f, r24	; 47
     484:	08 95       	ret
     486:	bf 9a       	sbi	0x17, 7	; 23
     488:	8f b5       	in	r24, 0x2f	; 47
     48a:	8c 60       	ori	r24, 0x0C	; 12
     48c:	8f bd       	out	0x2f, r24	; 47
     48e:	08 95       	ret

00000490 <TIMER_COUNTER1_compareA>:
     490:	9b bd       	out	0x2b, r25	; 43
     492:	8a bd       	out	0x2a, r24	; 42
     494:	08 95       	ret

00000496 <TIMER_COUNTER1_compareB>:
     496:	99 bd       	out	0x29, r25	; 41
     498:	88 bd       	out	0x28, r24	; 40
     49a:	08 95       	ret

0000049c <TIMER_COUNTER1_compareC>:
     49c:	90 93 79 00 	sts	0x0079, r25	; 0x800079 <__TEXT_REGION_LENGTH__+0x7e0079>
     4a0:	80 93 78 00 	sts	0x0078, r24	; 0x800078 <__TEXT_REGION_LENGTH__+0x7e0078>
     4a4:	08 95       	ret

000004a6 <TIMER_COUNTER1_stop>:
     4a6:	8e b5       	in	r24, 0x2e	; 46
     4a8:	88 7f       	andi	r24, 0xF8	; 248
     4aa:	8e bd       	out	0x2e, r24	; 46
     4ac:	1d bc       	out	0x2d, r1	; 45
     4ae:	1c bc       	out	0x2c, r1	; 44
     4b0:	10 92 62 01 	sts	0x0162, r1	; 0x800162 <timer1_state>
     4b4:	08 95       	ret

000004b6 <TIMER_COUNTER0enable>:
     4b6:	10 92 65 01 	sts	0x0165, r1	; 0x800165 <timer0_state>
     4ba:	2f ef       	ldi	r18, 0xFF	; 255
     4bc:	21 bf       	out	0x31, r18	; 49
     4be:	23 b7       	in	r18, 0x33	; 51
     4c0:	27 7b       	andi	r18, 0xB7	; 183
     4c2:	23 bf       	out	0x33, r18	; 51
     4c4:	62 30       	cpi	r22, 0x02	; 2
     4c6:	41 f0       	breq	.+16     	; 0x4d8 <TIMER_COUNTER0enable+0x22>
     4c8:	63 30       	cpi	r22, 0x03	; 3
     4ca:	51 f0       	breq	.+20     	; 0x4e0 <TIMER_COUNTER0enable+0x2a>
     4cc:	61 30       	cpi	r22, 0x01	; 1
     4ce:	59 f4       	brne	.+22     	; 0x4e6 <TIMER_COUNTER0enable+0x30>
     4d0:	23 b7       	in	r18, 0x33	; 51
     4d2:	20 64       	ori	r18, 0x40	; 64
     4d4:	23 bf       	out	0x33, r18	; 51
     4d6:	07 c0       	rjmp	.+14     	; 0x4e6 <TIMER_COUNTER0enable+0x30>
     4d8:	23 b7       	in	r18, 0x33	; 51
     4da:	28 60       	ori	r18, 0x08	; 8
     4dc:	23 bf       	out	0x33, r18	; 51
     4de:	03 c0       	rjmp	.+6      	; 0x4e6 <TIMER_COUNTER0enable+0x30>
     4e0:	23 b7       	in	r18, 0x33	; 51
     4e2:	28 64       	ori	r18, 0x48	; 72
     4e4:	23 bf       	out	0x33, r18	; 51
     4e6:	27 b7       	in	r18, 0x37	; 55
     4e8:	2e 7f       	andi	r18, 0xFE	; 254
     4ea:	27 bf       	out	0x37, r18	; 55
     4ec:	27 b7       	in	r18, 0x37	; 55
     4ee:	2d 7f       	andi	r18, 0xFD	; 253
     4f0:	27 bf       	out	0x37, r18	; 55
     4f2:	42 30       	cpi	r20, 0x02	; 2
     4f4:	41 f0       	breq	.+16     	; 0x506 <TIMER_COUNTER0enable+0x50>
     4f6:	43 30       	cpi	r20, 0x03	; 3
     4f8:	51 f0       	breq	.+20     	; 0x50e <TIMER_COUNTER0enable+0x58>
     4fa:	41 30       	cpi	r20, 0x01	; 1
     4fc:	71 f4       	brne	.+28     	; 0x51a <TIMER_COUNTER0enable+0x64>
     4fe:	27 b7       	in	r18, 0x37	; 55
     500:	21 60       	ori	r18, 0x01	; 1
     502:	27 bf       	out	0x37, r18	; 55
     504:	0a c0       	rjmp	.+20     	; 0x51a <TIMER_COUNTER0enable+0x64>
     506:	27 b7       	in	r18, 0x37	; 55
     508:	22 60       	ori	r18, 0x02	; 2
     50a:	27 bf       	out	0x37, r18	; 55
     50c:	06 c0       	rjmp	.+12     	; 0x51a <TIMER_COUNTER0enable+0x64>
     50e:	27 b7       	in	r18, 0x37	; 55
     510:	21 60       	ori	r18, 0x01	; 1
     512:	27 bf       	out	0x37, r18	; 55
     514:	27 b7       	in	r18, 0x37	; 55
     516:	22 60       	ori	r18, 0x02	; 2
     518:	27 bf       	out	0x37, r18	; 55
     51a:	26 e9       	ldi	r18, 0x96	; 150
     51c:	31 e0       	ldi	r19, 0x01	; 1
     51e:	fc 01       	movw	r30, r24
     520:	31 83       	std	Z+1, r19	; 0x01
     522:	20 83       	st	Z, r18
     524:	21 eb       	ldi	r18, 0xB1	; 177
     526:	31 e0       	ldi	r19, 0x01	; 1
     528:	37 83       	std	Z+7, r19	; 0x07
     52a:	26 83       	std	Z+6, r18	; 0x06
     52c:	20 e5       	ldi	r18, 0x50	; 80
     52e:	31 e0       	ldi	r19, 0x01	; 1
     530:	35 87       	std	Z+13, r19	; 0x0d
     532:	24 87       	std	Z+12, r18	; 0x0c
     534:	23 eb       	ldi	r18, 0xB3	; 179
     536:	31 e0       	ldi	r19, 0x01	; 1
     538:	37 87       	std	Z+15, r19	; 0x0f
     53a:	26 87       	std	Z+14, r18	; 0x0e
     53c:	08 95       	ret

0000053e <TIMER_COUNTER1enable>:
     53e:	0f 93       	push	r16
     540:	1f 93       	push	r17
     542:	dc 01       	movw	r26, r24
     544:	10 92 62 01 	sts	0x0162, r1	; 0x800162 <timer1_state>
     548:	8f ef       	ldi	r24, 0xFF	; 255
     54a:	9f ef       	ldi	r25, 0xFF	; 255
     54c:	9b bd       	out	0x2b, r25	; 43
     54e:	8a bd       	out	0x2a, r24	; 42
     550:	8f b5       	in	r24, 0x2f	; 47
     552:	8c 7f       	andi	r24, 0xFC	; 252
     554:	8f bd       	out	0x2f, r24	; 47
     556:	8e b5       	in	r24, 0x2e	; 46
     558:	87 7e       	andi	r24, 0xE7	; 231
     55a:	8e bd       	out	0x2e, r24	; 46
     55c:	06 2f       	mov	r16, r22
     55e:	10 e0       	ldi	r17, 0x00	; 0
     560:	f8 01       	movw	r30, r16
     562:	31 97       	sbiw	r30, 0x01	; 1
     564:	ef 30       	cpi	r30, 0x0F	; 15
     566:	f1 05       	cpc	r31, r1
     568:	08 f0       	brcs	.+2      	; 0x56c <TIMER_COUNTER1enable+0x2e>
     56a:	5a c0       	rjmp	.+180    	; 0x620 <TIMER_COUNTER1enable+0xe2>
     56c:	ea 5b       	subi	r30, 0xBA	; 186
     56e:	ff 4f       	sbci	r31, 0xFF	; 255
     570:	0c 94 a5 16 	jmp	0x2d4a	; 0x2d4a <__tablejump2__>
     574:	8f b5       	in	r24, 0x2f	; 47
     576:	81 60       	ori	r24, 0x01	; 1
     578:	8f bd       	out	0x2f, r24	; 47
     57a:	52 c0       	rjmp	.+164    	; 0x620 <TIMER_COUNTER1enable+0xe2>
     57c:	8f b5       	in	r24, 0x2f	; 47
     57e:	82 60       	ori	r24, 0x02	; 2
     580:	8f bd       	out	0x2f, r24	; 47
     582:	4e c0       	rjmp	.+156    	; 0x620 <TIMER_COUNTER1enable+0xe2>
     584:	8f b5       	in	r24, 0x2f	; 47
     586:	83 60       	ori	r24, 0x03	; 3
     588:	8f bd       	out	0x2f, r24	; 47
     58a:	4a c0       	rjmp	.+148    	; 0x620 <TIMER_COUNTER1enable+0xe2>
     58c:	8e b5       	in	r24, 0x2e	; 46
     58e:	88 60       	ori	r24, 0x08	; 8
     590:	8e bd       	out	0x2e, r24	; 46
     592:	46 c0       	rjmp	.+140    	; 0x620 <TIMER_COUNTER1enable+0xe2>
     594:	8f b5       	in	r24, 0x2f	; 47
     596:	81 60       	ori	r24, 0x01	; 1
     598:	8f bd       	out	0x2f, r24	; 47
     59a:	8e b5       	in	r24, 0x2e	; 46
     59c:	88 60       	ori	r24, 0x08	; 8
     59e:	8e bd       	out	0x2e, r24	; 46
     5a0:	3f c0       	rjmp	.+126    	; 0x620 <TIMER_COUNTER1enable+0xe2>
     5a2:	8f b5       	in	r24, 0x2f	; 47
     5a4:	82 60       	ori	r24, 0x02	; 2
     5a6:	8f bd       	out	0x2f, r24	; 47
     5a8:	8e b5       	in	r24, 0x2e	; 46
     5aa:	88 60       	ori	r24, 0x08	; 8
     5ac:	8e bd       	out	0x2e, r24	; 46
     5ae:	38 c0       	rjmp	.+112    	; 0x620 <TIMER_COUNTER1enable+0xe2>
     5b0:	8f b5       	in	r24, 0x2f	; 47
     5b2:	83 60       	ori	r24, 0x03	; 3
     5b4:	8f bd       	out	0x2f, r24	; 47
     5b6:	8e b5       	in	r24, 0x2e	; 46
     5b8:	88 60       	ori	r24, 0x08	; 8
     5ba:	8e bd       	out	0x2e, r24	; 46
     5bc:	31 c0       	rjmp	.+98     	; 0x620 <TIMER_COUNTER1enable+0xe2>
     5be:	8e b5       	in	r24, 0x2e	; 46
     5c0:	80 61       	ori	r24, 0x10	; 16
     5c2:	8e bd       	out	0x2e, r24	; 46
     5c4:	2d c0       	rjmp	.+90     	; 0x620 <TIMER_COUNTER1enable+0xe2>
     5c6:	8f b5       	in	r24, 0x2f	; 47
     5c8:	81 60       	ori	r24, 0x01	; 1
     5ca:	8f bd       	out	0x2f, r24	; 47
     5cc:	8e b5       	in	r24, 0x2e	; 46
     5ce:	80 61       	ori	r24, 0x10	; 16
     5d0:	8e bd       	out	0x2e, r24	; 46
     5d2:	26 c0       	rjmp	.+76     	; 0x620 <TIMER_COUNTER1enable+0xe2>
     5d4:	8f b5       	in	r24, 0x2f	; 47
     5d6:	82 60       	ori	r24, 0x02	; 2
     5d8:	8f bd       	out	0x2f, r24	; 47
     5da:	8e b5       	in	r24, 0x2e	; 46
     5dc:	80 61       	ori	r24, 0x10	; 16
     5de:	8e bd       	out	0x2e, r24	; 46
     5e0:	1f c0       	rjmp	.+62     	; 0x620 <TIMER_COUNTER1enable+0xe2>
     5e2:	8f b5       	in	r24, 0x2f	; 47
     5e4:	83 60       	ori	r24, 0x03	; 3
     5e6:	8f bd       	out	0x2f, r24	; 47
     5e8:	8e b5       	in	r24, 0x2e	; 46
     5ea:	80 61       	ori	r24, 0x10	; 16
     5ec:	8e bd       	out	0x2e, r24	; 46
     5ee:	18 c0       	rjmp	.+48     	; 0x620 <TIMER_COUNTER1enable+0xe2>
     5f0:	8e b5       	in	r24, 0x2e	; 46
     5f2:	88 61       	ori	r24, 0x18	; 24
     5f4:	8e bd       	out	0x2e, r24	; 46
     5f6:	14 c0       	rjmp	.+40     	; 0x620 <TIMER_COUNTER1enable+0xe2>
     5f8:	8f b5       	in	r24, 0x2f	; 47
     5fa:	81 60       	ori	r24, 0x01	; 1
     5fc:	8f bd       	out	0x2f, r24	; 47
     5fe:	8e b5       	in	r24, 0x2e	; 46
     600:	88 61       	ori	r24, 0x18	; 24
     602:	8e bd       	out	0x2e, r24	; 46
     604:	0d c0       	rjmp	.+26     	; 0x620 <TIMER_COUNTER1enable+0xe2>
     606:	8f b5       	in	r24, 0x2f	; 47
     608:	82 60       	ori	r24, 0x02	; 2
     60a:	8f bd       	out	0x2f, r24	; 47
     60c:	8e b5       	in	r24, 0x2e	; 46
     60e:	88 61       	ori	r24, 0x18	; 24
     610:	8e bd       	out	0x2e, r24	; 46
     612:	06 c0       	rjmp	.+12     	; 0x620 <TIMER_COUNTER1enable+0xe2>
     614:	8f b5       	in	r24, 0x2f	; 47
     616:	83 60       	ori	r24, 0x03	; 3
     618:	8f bd       	out	0x2f, r24	; 47
     61a:	8e b5       	in	r24, 0x2e	; 46
     61c:	88 61       	ori	r24, 0x18	; 24
     61e:	8e bd       	out	0x2e, r24	; 46
     620:	8f b5       	in	r24, 0x2f	; 47
     622:	83 70       	andi	r24, 0x03	; 3
     624:	8f bd       	out	0x2f, r24	; 47
     626:	87 b7       	in	r24, 0x37	; 55
     628:	83 7c       	andi	r24, 0xC3	; 195
     62a:	87 bf       	out	0x37, r24	; 55
     62c:	ed e7       	ldi	r30, 0x7D	; 125
     62e:	f0 e0       	ldi	r31, 0x00	; 0
     630:	80 81       	ld	r24, Z
     632:	8e 7f       	andi	r24, 0xFE	; 254
     634:	80 83       	st	Z, r24
     636:	50 e0       	ldi	r21, 0x00	; 0
     638:	fa 01       	movw	r30, r20
     63a:	31 97       	sbiw	r30, 0x01	; 1
     63c:	ec 30       	cpi	r30, 0x0C	; 12
     63e:	f1 05       	cpc	r31, r1
     640:	08 f0       	brcs	.+2      	; 0x644 <TIMER_COUNTER1enable+0x106>
     642:	44 c0       	rjmp	.+136    	; 0x6cc <TIMER_COUNTER1enable+0x18e>
     644:	eb 5a       	subi	r30, 0xAB	; 171
     646:	ff 4f       	sbci	r31, 0xFF	; 255
     648:	0c 94 a5 16 	jmp	0x2d4a	; 0x2d4a <__tablejump2__>
     64c:	87 b7       	in	r24, 0x37	; 55
     64e:	84 60       	ori	r24, 0x04	; 4
     650:	87 bf       	out	0x37, r24	; 55
     652:	3c c0       	rjmp	.+120    	; 0x6cc <TIMER_COUNTER1enable+0x18e>
     654:	87 b7       	in	r24, 0x37	; 55
     656:	80 61       	ori	r24, 0x10	; 16
     658:	87 bf       	out	0x37, r24	; 55
     65a:	38 c0       	rjmp	.+112    	; 0x6cc <TIMER_COUNTER1enable+0x18e>
     65c:	87 b7       	in	r24, 0x37	; 55
     65e:	88 60       	ori	r24, 0x08	; 8
     660:	87 bf       	out	0x37, r24	; 55
     662:	34 c0       	rjmp	.+104    	; 0x6cc <TIMER_COUNTER1enable+0x18e>
     664:	ed e7       	ldi	r30, 0x7D	; 125
     666:	f0 e0       	ldi	r31, 0x00	; 0
     668:	80 81       	ld	r24, Z
     66a:	81 60       	ori	r24, 0x01	; 1
     66c:	80 83       	st	Z, r24
     66e:	2e c0       	rjmp	.+92     	; 0x6cc <TIMER_COUNTER1enable+0x18e>
     670:	87 b7       	in	r24, 0x37	; 55
     672:	80 62       	ori	r24, 0x20	; 32
     674:	87 bf       	out	0x37, r24	; 55
     676:	2a c0       	rjmp	.+84     	; 0x6cc <TIMER_COUNTER1enable+0x18e>
     678:	87 b7       	in	r24, 0x37	; 55
     67a:	84 61       	ori	r24, 0x14	; 20
     67c:	87 bf       	out	0x37, r24	; 55
     67e:	26 c0       	rjmp	.+76     	; 0x6cc <TIMER_COUNTER1enable+0x18e>
     680:	87 b7       	in	r24, 0x37	; 55
     682:	8c 60       	ori	r24, 0x0C	; 12
     684:	87 bf       	out	0x37, r24	; 55
     686:	22 c0       	rjmp	.+68     	; 0x6cc <TIMER_COUNTER1enable+0x18e>
     688:	87 b7       	in	r24, 0x37	; 55
     68a:	84 60       	ori	r24, 0x04	; 4
     68c:	87 bf       	out	0x37, r24	; 55
     68e:	ed e7       	ldi	r30, 0x7D	; 125
     690:	f0 e0       	ldi	r31, 0x00	; 0
     692:	80 81       	ld	r24, Z
     694:	81 60       	ori	r24, 0x01	; 1
     696:	80 83       	st	Z, r24
     698:	19 c0       	rjmp	.+50     	; 0x6cc <TIMER_COUNTER1enable+0x18e>
     69a:	87 b7       	in	r24, 0x37	; 55
     69c:	84 62       	ori	r24, 0x24	; 36
     69e:	87 bf       	out	0x37, r24	; 55
     6a0:	15 c0       	rjmp	.+42     	; 0x6cc <TIMER_COUNTER1enable+0x18e>
     6a2:	87 b7       	in	r24, 0x37	; 55
     6a4:	8c 61       	ori	r24, 0x1C	; 28
     6a6:	87 bf       	out	0x37, r24	; 55
     6a8:	11 c0       	rjmp	.+34     	; 0x6cc <TIMER_COUNTER1enable+0x18e>
     6aa:	87 b7       	in	r24, 0x37	; 55
     6ac:	8c 61       	ori	r24, 0x1C	; 28
     6ae:	87 bf       	out	0x37, r24	; 55
     6b0:	ed e7       	ldi	r30, 0x7D	; 125
     6b2:	f0 e0       	ldi	r31, 0x00	; 0
     6b4:	80 81       	ld	r24, Z
     6b6:	81 60       	ori	r24, 0x01	; 1
     6b8:	80 83       	st	Z, r24
     6ba:	08 c0       	rjmp	.+16     	; 0x6cc <TIMER_COUNTER1enable+0x18e>
     6bc:	87 b7       	in	r24, 0x37	; 55
     6be:	88 61       	ori	r24, 0x18	; 24
     6c0:	87 bf       	out	0x37, r24	; 55
     6c2:	ed e7       	ldi	r30, 0x7D	; 125
     6c4:	f0 e0       	ldi	r31, 0x00	; 0
     6c6:	80 81       	ld	r24, Z
     6c8:	81 60       	ori	r24, 0x01	; 1
     6ca:	80 83       	st	Z, r24
     6cc:	80 e0       	ldi	r24, 0x00	; 0
     6ce:	92 e0       	ldi	r25, 0x02	; 2
     6d0:	11 96       	adiw	r26, 0x01	; 1
     6d2:	9c 93       	st	X, r25
     6d4:	8e 93       	st	-X, r24
     6d6:	88 e1       	ldi	r24, 0x18	; 24
     6d8:	92 e0       	ldi	r25, 0x02	; 2
     6da:	13 96       	adiw	r26, 0x03	; 3
     6dc:	9c 93       	st	X, r25
     6de:	8e 93       	st	-X, r24
     6e0:	12 97       	sbiw	r26, 0x02	; 2
     6e2:	80 e3       	ldi	r24, 0x30	; 48
     6e4:	92 e0       	ldi	r25, 0x02	; 2
     6e6:	15 96       	adiw	r26, 0x05	; 5
     6e8:	9c 93       	st	X, r25
     6ea:	8e 93       	st	-X, r24
     6ec:	14 97       	sbiw	r26, 0x04	; 4
     6ee:	88 e4       	ldi	r24, 0x48	; 72
     6f0:	92 e0       	ldi	r25, 0x02	; 2
     6f2:	17 96       	adiw	r26, 0x07	; 7
     6f4:	9c 93       	st	X, r25
     6f6:	8e 93       	st	-X, r24
     6f8:	16 97       	sbiw	r26, 0x06	; 6
     6fa:	8b e4       	ldi	r24, 0x4B	; 75
     6fc:	92 e0       	ldi	r25, 0x02	; 2
     6fe:	19 96       	adiw	r26, 0x09	; 9
     700:	9c 93       	st	X, r25
     702:	8e 93       	st	-X, r24
     704:	18 97       	sbiw	r26, 0x08	; 8
     706:	8e e4       	ldi	r24, 0x4E	; 78
     708:	92 e0       	ldi	r25, 0x02	; 2
     70a:	1b 96       	adiw	r26, 0x0b	; 11
     70c:	9c 93       	st	X, r25
     70e:	8e 93       	st	-X, r24
     710:	1a 97       	sbiw	r26, 0x0a	; 10
     712:	8a eb       	ldi	r24, 0xBA	; 186
     714:	91 e0       	ldi	r25, 0x01	; 1
     716:	1d 96       	adiw	r26, 0x0d	; 13
     718:	9c 93       	st	X, r25
     71a:	8e 93       	st	-X, r24
     71c:	1c 97       	sbiw	r26, 0x0c	; 12
     71e:	83 e5       	ldi	r24, 0x53	; 83
     720:	92 e0       	ldi	r25, 0x02	; 2
     722:	1f 96       	adiw	r26, 0x0f	; 15
     724:	9c 93       	st	X, r25
     726:	8e 93       	st	-X, r24
     728:	1e 97       	sbiw	r26, 0x0e	; 14
     72a:	cd 01       	movw	r24, r26
     72c:	1f 91       	pop	r17
     72e:	0f 91       	pop	r16
     730:	08 95       	ret

00000732 <__vector_16>:
	timer3_state=0;
}
/***Interrupt***/
// So that main will not freeze when not defined, therefore exclude here! before use.
//ISR(TIMER0_COMP_vect){ }
ISR(TIMER0_OVF_vect){ }
     732:	1f 92       	push	r1
     734:	0f 92       	push	r0
     736:	0f b6       	in	r0, 0x3f	; 63
     738:	0f 92       	push	r0
     73a:	11 24       	eor	r1, r1
     73c:	0f 90       	pop	r0
     73e:	0f be       	out	0x3f, r0	; 63
     740:	0f 90       	pop	r0
     742:	1f 90       	pop	r1
     744:	18 95       	reti

00000746 <__vector_11>:
ISR(TIMER1_CAPT_vect){ }
     746:	1f 92       	push	r1
     748:	0f 92       	push	r0
     74a:	0f b6       	in	r0, 0x3f	; 63
     74c:	0f 92       	push	r0
     74e:	11 24       	eor	r1, r1
     750:	0f 90       	pop	r0
     752:	0f be       	out	0x3f, r0	; 63
     754:	0f 90       	pop	r0
     756:	1f 90       	pop	r1
     758:	18 95       	reti

0000075a <__vector_13>:
//ISR(TIMER1_COMPA_vect){ }
ISR(TIMER1_COMPB_vect){ }
     75a:	1f 92       	push	r1
     75c:	0f 92       	push	r0
     75e:	0f b6       	in	r0, 0x3f	; 63
     760:	0f 92       	push	r0
     762:	11 24       	eor	r1, r1
     764:	0f 90       	pop	r0
     766:	0f be       	out	0x3f, r0	; 63
     768:	0f 90       	pop	r0
     76a:	1f 90       	pop	r1
     76c:	18 95       	reti

0000076e <__vector_24>:
ISR(TIMER1_COMPC_vect){ }
     76e:	1f 92       	push	r1
     770:	0f 92       	push	r0
     772:	0f b6       	in	r0, 0x3f	; 63
     774:	0f 92       	push	r0
     776:	11 24       	eor	r1, r1
     778:	0f 90       	pop	r0
     77a:	0f be       	out	0x3f, r0	; 63
     77c:	0f 90       	pop	r0
     77e:	1f 90       	pop	r1
     780:	18 95       	reti

00000782 <__vector_14>:
ISR(TIMER1_OVF_vect){ }
     782:	1f 92       	push	r1
     784:	0f 92       	push	r0
     786:	0f b6       	in	r0, 0x3f	; 63
     788:	0f 92       	push	r0
     78a:	11 24       	eor	r1, r1
     78c:	0f 90       	pop	r0
     78e:	0f be       	out	0x3f, r0	; 63
     790:	0f 90       	pop	r0
     792:	1f 90       	pop	r1
     794:	18 95       	reti

00000796 <__vector_10>:
ISR(TIMER2_OVF_vect){ }
     796:	1f 92       	push	r1
     798:	0f 92       	push	r0
     79a:	0f b6       	in	r0, 0x3f	; 63
     79c:	0f 92       	push	r0
     79e:	11 24       	eor	r1, r1
     7a0:	0f 90       	pop	r0
     7a2:	0f be       	out	0x3f, r0	; 63
     7a4:	0f 90       	pop	r0
     7a6:	1f 90       	pop	r1
     7a8:	18 95       	reti

000007aa <__vector_25>:
ISR(TIMER3_CAPT_vect){ }
     7aa:	1f 92       	push	r1
     7ac:	0f 92       	push	r0
     7ae:	0f b6       	in	r0, 0x3f	; 63
     7b0:	0f 92       	push	r0
     7b2:	11 24       	eor	r1, r1
     7b4:	0f 90       	pop	r0
     7b6:	0f be       	out	0x3f, r0	; 63
     7b8:	0f 90       	pop	r0
     7ba:	1f 90       	pop	r1
     7bc:	18 95       	reti

000007be <__vector_26>:
ISR(TIMER3_COMPA_vect){ }
     7be:	1f 92       	push	r1
     7c0:	0f 92       	push	r0
     7c2:	0f b6       	in	r0, 0x3f	; 63
     7c4:	0f 92       	push	r0
     7c6:	11 24       	eor	r1, r1
     7c8:	0f 90       	pop	r0
     7ca:	0f be       	out	0x3f, r0	; 63
     7cc:	0f 90       	pop	r0
     7ce:	1f 90       	pop	r1
     7d0:	18 95       	reti

000007d2 <__vector_27>:
ISR(TIMER3_COMPB_vect){ }
     7d2:	1f 92       	push	r1
     7d4:	0f 92       	push	r0
     7d6:	0f b6       	in	r0, 0x3f	; 63
     7d8:	0f 92       	push	r0
     7da:	11 24       	eor	r1, r1
     7dc:	0f 90       	pop	r0
     7de:	0f be       	out	0x3f, r0	; 63
     7e0:	0f 90       	pop	r0
     7e2:	1f 90       	pop	r1
     7e4:	18 95       	reti

000007e6 <__vector_28>:
ISR(TIMER3_COMPC_vect){ }
     7e6:	1f 92       	push	r1
     7e8:	0f 92       	push	r0
     7ea:	0f b6       	in	r0, 0x3f	; 63
     7ec:	0f 92       	push	r0
     7ee:	11 24       	eor	r1, r1
     7f0:	0f 90       	pop	r0
     7f2:	0f be       	out	0x3f, r0	; 63
     7f4:	0f 90       	pop	r0
     7f6:	1f 90       	pop	r1
     7f8:	18 95       	reti

000007fa <__vector_29>:
ISR(TIMER3_OVF_vect){ }
     7fa:	1f 92       	push	r1
     7fc:	0f 92       	push	r0
     7fe:	0f b6       	in	r0, 0x3f	; 63
     800:	0f 92       	push	r0
     802:	11 24       	eor	r1, r1
     804:	0f 90       	pop	r0
     806:	0f be       	out	0x3f, r0	; 63
     808:	0f 90       	pop	r0
     80a:	1f 90       	pop	r1
     80c:	18 95       	reti

0000080e <__vector_18>:
	}else{
		uart1_index=0;
		ret=uart1_msg;
	}
	return ret;
}
     80e:	1f 92       	push	r1
     810:	0f 92       	push	r0
     812:	0f b6       	in	r0, 0x3f	; 63
     814:	0f 92       	push	r0
     816:	11 24       	eor	r1, r1
     818:	0b b6       	in	r0, 0x3b	; 59
     81a:	0f 92       	push	r0
     81c:	8f 93       	push	r24
     81e:	9f 93       	push	r25
     820:	ef 93       	push	r30
     822:	ff 93       	push	r31
     824:	8b b1       	in	r24, 0x0b	; 11
     826:	9a b1       	in	r25, 0x0a	; 10
     828:	88 71       	andi	r24, 0x18	; 24
     82a:	80 93 a7 01 	sts	0x01A7, r24	; 0x8001a7 <UART_LastRxError>
     82e:	e0 91 b0 02 	lds	r30, 0x02B0	; 0x8002b0 <UART_RxHead>
     832:	ef 5f       	subi	r30, 0xFF	; 255
     834:	ef 73       	andi	r30, 0x3F	; 63
     836:	90 91 b1 02 	lds	r25, 0x02B1	; 0x8002b1 <UART_RxTail>
     83a:	e9 13       	cpse	r30, r25
     83c:	04 c0       	rjmp	.+8      	; 0x846 <__vector_18+0x38>
     83e:	82 e0       	ldi	r24, 0x02	; 2
     840:	80 93 a7 01 	sts	0x01A7, r24	; 0x8001a7 <UART_LastRxError>
     844:	0f c0       	rjmp	.+30     	; 0x864 <__vector_18+0x56>
     846:	9c b1       	in	r25, 0x0c	; 12
     848:	e0 93 b0 02 	sts	0x02B0, r30	; 0x8002b0 <UART_RxHead>
     84c:	88 23       	and	r24, r24
     84e:	31 f0       	breq	.+12     	; 0x85c <__vector_18+0x4e>
     850:	f0 e0       	ldi	r31, 0x00	; 0
     852:	ed 54       	subi	r30, 0x4D	; 77
     854:	fd 4f       	sbci	r31, 0xFD	; 253
     856:	88 e5       	ldi	r24, 0x58	; 88
     858:	80 83       	st	Z, r24
     85a:	04 c0       	rjmp	.+8      	; 0x864 <__vector_18+0x56>
     85c:	f0 e0       	ldi	r31, 0x00	; 0
     85e:	ed 54       	subi	r30, 0x4D	; 77
     860:	fd 4f       	sbci	r31, 0xFD	; 253
     862:	90 83       	st	Z, r25
     864:	ff 91       	pop	r31
     866:	ef 91       	pop	r30
     868:	9f 91       	pop	r25
     86a:	8f 91       	pop	r24
     86c:	0f 90       	pop	r0
     86e:	0b be       	out	0x3b, r0	; 59
     870:	0f 90       	pop	r0
     872:	0f be       	out	0x3f, r0	; 63
     874:	0f 90       	pop	r0
     876:	1f 90       	pop	r1
     878:	18 95       	reti

0000087a <__vector_19>:
     87a:	1f 92       	push	r1
     87c:	0f 92       	push	r0
     87e:	0f b6       	in	r0, 0x3f	; 63
     880:	0f 92       	push	r0
     882:	11 24       	eor	r1, r1
     884:	0b b6       	in	r0, 0x3b	; 59
     886:	0f 92       	push	r0
     888:	8f 93       	push	r24
     88a:	9f 93       	push	r25
     88c:	ef 93       	push	r30
     88e:	ff 93       	push	r31
     890:	e0 91 eb 01 	lds	r30, 0x01EB	; 0x8001eb <UART_TxTail>
     894:	f0 e0       	ldi	r31, 0x00	; 0
     896:	e0 59       	subi	r30, 0x90	; 144
     898:	fd 4f       	sbci	r31, 0xFD	; 253
     89a:	80 81       	ld	r24, Z
     89c:	8c b9       	out	0x0c, r24	; 12
     89e:	10 82       	st	Z, r1
     8a0:	80 91 eb 01 	lds	r24, 0x01EB	; 0x8001eb <UART_TxTail>
     8a4:	8f 5f       	subi	r24, 0xFF	; 255
     8a6:	8f 73       	andi	r24, 0x3F	; 63
     8a8:	80 93 eb 01 	sts	0x01EB, r24	; 0x8001eb <UART_TxTail>
     8ac:	90 91 a6 01 	lds	r25, 0x01A6	; 0x8001a6 <UART_TxHead>
     8b0:	89 13       	cpse	r24, r25
     8b2:	01 c0       	rjmp	.+2      	; 0x8b6 <__vector_19+0x3c>
     8b4:	55 98       	cbi	0x0a, 5	; 10
     8b6:	ff 91       	pop	r31
     8b8:	ef 91       	pop	r30
     8ba:	9f 91       	pop	r25
     8bc:	8f 91       	pop	r24
     8be:	0f 90       	pop	r0
     8c0:	0b be       	out	0x3b, r0	; 59
     8c2:	0f 90       	pop	r0
     8c4:	0f be       	out	0x3f, r0	; 63
     8c6:	0f 90       	pop	r0
     8c8:	1f 90       	pop	r1
     8ca:	18 95       	reti

000008cc <__vector_30>:
	UART1_TxHead = UART1_TxTail;
}
/***Interrupt***/
/***SIGNAL(UART1_RECEIVE_INTERRUPT)***/
SIGNAL(UART1_RECEIVE_INTERRUPT)
{
     8cc:	1f 92       	push	r1
     8ce:	0f 92       	push	r0
     8d0:	0f b6       	in	r0, 0x3f	; 63
     8d2:	0f 92       	push	r0
     8d4:	11 24       	eor	r1, r1
     8d6:	0b b6       	in	r0, 0x3b	; 59
     8d8:	0f 92       	push	r0
     8da:	8f 93       	push	r24
     8dc:	9f 93       	push	r25
     8de:	ef 93       	push	r30
     8e0:	ff 93       	push	r31
    unsigned char tmphead;
	unsigned char data;
	unsigned char bit9;
    unsigned char usr;
    /***read UART status register and UART data register***/
	usr  = UART1_STATUS;
     8e2:	80 91 9b 00 	lds	r24, 0x009B	; 0x80009b <__TEXT_REGION_LENGTH__+0x7e009b>
    bit9 = UART1_CONTROL;
     8e6:	90 91 9a 00 	lds	r25, 0x009A	; 0x80009a <__TEXT_REGION_LENGTH__+0x7e009a>
    bit9 = 0x01 & (bit9>>1);
    /***/
    UART1_LastRxError = (usr & (_BV(FE1)|_BV(DOR1)));
     8ea:	88 71       	andi	r24, 0x18	; 24
     8ec:	80 93 ed 01 	sts	0x01ED, r24	; 0x8001ed <UART1_LastRxError>
	/***calculate buffer index***/
    tmphead = ( UART1_RxHead + 1) & UART_RX_BUFFER_MASK;
     8f0:	e0 91 ec 01 	lds	r30, 0x01EC	; 0x8001ec <UART1_RxHead>
     8f4:	ef 5f       	subi	r30, 0xFF	; 255
     8f6:	ef 73       	andi	r30, 0x3F	; 63
    if ( tmphead == UART1_RxTail ) {	
     8f8:	90 91 b2 02 	lds	r25, 0x02B2	; 0x8002b2 <UART1_RxTail>
     8fc:	e9 13       	cpse	r30, r25
     8fe:	04 c0       	rjmp	.+8      	; 0x908 <__vector_30+0x3c>
        /***error: receive buffer overflow, caracter is lost***/
        UART1_LastRxError = UART_BUFFER_OVERFLOW >> 8; 
     900:	82 e0       	ldi	r24, 0x02	; 2
     902:	80 93 ed 01 	sts	0x01ED, r24	; 0x8001ed <UART1_LastRxError>
     906:	10 c0       	rjmp	.+32     	; 0x928 <__vector_30+0x5c>
	}else{
		data = UART1_DATA;
     908:	90 91 9c 00 	lds	r25, 0x009C	; 0x80009c <__TEXT_REGION_LENGTH__+0x7e009c>
        /***store new index***/
        UART1_RxHead = tmphead;
     90c:	e0 93 ec 01 	sts	0x01EC, r30	; 0x8001ec <UART1_RxHead>
		if(UART1_LastRxError){
     910:	88 23       	and	r24, r24
     912:	31 f0       	breq	.+12     	; 0x920 <__vector_30+0x54>
			/***store indication data error in buffer***/
			UART1_RxBuf[tmphead] = 'X';
     914:	f0 e0       	ldi	r31, 0x00	; 0
     916:	e7 55       	subi	r30, 0x57	; 87
     918:	fe 4f       	sbci	r31, 0xFE	; 254
     91a:	88 e5       	ldi	r24, 0x58	; 88
     91c:	80 83       	st	Z, r24
     91e:	04 c0       	rjmp	.+8      	; 0x928 <__vector_30+0x5c>
		}else{
			/***store received data in buffer***/
			UART1_RxBuf[tmphead] = data;
     920:	f0 e0       	ldi	r31, 0x00	; 0
     922:	e7 55       	subi	r30, 0x57	; 87
     924:	fe 4f       	sbci	r31, 0xFE	; 254
     926:	90 83       	st	Z, r25
		}
    }
}
     928:	ff 91       	pop	r31
     92a:	ef 91       	pop	r30
     92c:	9f 91       	pop	r25
     92e:	8f 91       	pop	r24
     930:	0f 90       	pop	r0
     932:	0b be       	out	0x3b, r0	; 59
     934:	0f 90       	pop	r0
     936:	0f be       	out	0x3f, r0	; 63
     938:	0f 90       	pop	r0
     93a:	1f 90       	pop	r1
     93c:	18 95       	reti

0000093e <__vector_31>:
/***SIGNAL(UART1_TRANSMIT_INTERRUPT)***/
SIGNAL(UART1_TRANSMIT_INTERRUPT)
{
     93e:	1f 92       	push	r1
     940:	0f 92       	push	r0
     942:	0f b6       	in	r0, 0x3f	; 63
     944:	0f 92       	push	r0
     946:	11 24       	eor	r1, r1
     948:	0b b6       	in	r0, 0x3b	; 59
     94a:	0f 92       	push	r0
     94c:	8f 93       	push	r24
     94e:	9f 93       	push	r25
     950:	ef 93       	push	r30
     952:	ff 93       	push	r31
	uint8_t tail = UART1_TxTail;
	UART1_DATA = UART1_TxBuf[tail];
     954:	e0 91 a8 01 	lds	r30, 0x01A8	; 0x8001a8 <UART1_TxTail>
     958:	f0 e0       	ldi	r31, 0x00	; 0
     95a:	e0 5d       	subi	r30, 0xD0	; 208
     95c:	fd 4f       	sbci	r31, 0xFD	; 253
     95e:	80 81       	ld	r24, Z
     960:	80 93 9c 00 	sts	0x009C, r24	; 0x80009c <__TEXT_REGION_LENGTH__+0x7e009c>
	UART1_TxBuf[tail]='\0';
     964:	10 82       	st	Z, r1
	UART1_TxTail = (UART1_TxTail + 1) & UART_TX_BUFFER_MASK;
     966:	80 91 a8 01 	lds	r24, 0x01A8	; 0x8001a8 <UART1_TxTail>
     96a:	8f 5f       	subi	r24, 0xFF	; 255
     96c:	8f 73       	andi	r24, 0x3F	; 63
     96e:	80 93 a8 01 	sts	0x01A8, r24	; 0x8001a8 <UART1_TxTail>
	if ( UART1_TxTail != UART1_TxHead )
     972:	90 91 ee 01 	lds	r25, 0x01EE	; 0x8001ee <UART1_TxHead>
     976:	89 13       	cpse	r24, r25
     978:	05 c0       	rjmp	.+10     	; 0x984 <__vector_31+0x46>
        ;
    else
		UART1_CONTROL &= ~_BV(UART1_UDRIE);
     97a:	ea e9       	ldi	r30, 0x9A	; 154
     97c:	f0 e0       	ldi	r31, 0x00	; 0
     97e:	80 81       	ld	r24, Z
     980:	8f 7d       	andi	r24, 0xDF	; 223
     982:	80 83       	st	Z, r24
}
     984:	ff 91       	pop	r31
     986:	ef 91       	pop	r30
     988:	9f 91       	pop	r25
     98a:	8f 91       	pop	r24
     98c:	0f 90       	pop	r0
     98e:	0b be       	out	0x3b, r0	; 59
     990:	0f 90       	pop	r0
     992:	0f be       	out	0x3f, r0	; 63
     994:	0f 90       	pop	r0
     996:	1f 90       	pop	r1
     998:	18 95       	reti

0000099a <EEPROMenable>:
#include "eeprom.h"
/***Constant & Macro***/
/***Global File Variable***/
/***Header***/
/***Procedure & Function***/
EEPROM EEPROMenable(void){
     99a:	fc 01       	movw	r30, r24
	eprom.write_float=eeprom_write_float;
	eprom.update_float=eeprom_update_float;
	eprom.read_block=eeprom_read_block;
	eprom.write_block=eeprom_write_block;
	eprom.update_block=eeprom_update_block;
	return eprom;
     99c:	87 ed       	ldi	r24, 0xD7	; 215
     99e:	96 e1       	ldi	r25, 0x16	; 22
     9a0:	91 83       	std	Z+1, r25	; 0x01
     9a2:	80 83       	st	Z, r24
     9a4:	89 e1       	ldi	r24, 0x19	; 25
     9a6:	97 e1       	ldi	r25, 0x17	; 23
     9a8:	93 83       	std	Z+3, r25	; 0x03
     9aa:	82 83       	std	Z+2, r24	; 0x02
     9ac:	83 ef       	ldi	r24, 0xF3	; 243
     9ae:	96 e1       	ldi	r25, 0x16	; 22
     9b0:	95 83       	std	Z+5, r25	; 0x05
     9b2:	84 83       	std	Z+4, r24	; 0x04
     9b4:	8f ed       	ldi	r24, 0xDF	; 223
     9b6:	96 e1       	ldi	r25, 0x16	; 22
     9b8:	97 83       	std	Z+7, r25	; 0x07
     9ba:	86 83       	std	Z+6, r24	; 0x06
     9bc:	8b e2       	ldi	r24, 0x2B	; 43
     9be:	97 e1       	ldi	r25, 0x17	; 23
     9c0:	91 87       	std	Z+9, r25	; 0x09
     9c2:	80 87       	std	Z+8, r24	; 0x08
     9c4:	8c e0       	ldi	r24, 0x0C	; 12
     9c6:	97 e1       	ldi	r25, 0x17	; 23
     9c8:	93 87       	std	Z+11, r25	; 0x0b
     9ca:	82 87       	std	Z+10, r24	; 0x0a
     9cc:	86 e2       	ldi	r24, 0x26	; 38
     9ce:	97 e1       	ldi	r25, 0x17	; 23
     9d0:	97 87       	std	Z+15, r25	; 0x0f
     9d2:	86 87       	std	Z+14, r24	; 0x0e
     9d4:	86 e2       	ldi	r24, 0x26	; 38
     9d6:	97 e1       	ldi	r25, 0x17	; 23
     9d8:	95 8b       	std	Z+21, r25	; 0x15
     9da:	84 8b       	std	Z+20, r24	; 0x14
     9dc:	84 e0       	ldi	r24, 0x04	; 4
     9de:	97 e1       	ldi	r25, 0x17	; 23
     9e0:	97 8b       	std	Z+23, r25	; 0x17
     9e2:	86 8b       	std	Z+22, r24	; 0x16
     9e4:	87 ec       	ldi	r24, 0xC7	; 199
     9e6:	96 e1       	ldi	r25, 0x16	; 22
     9e8:	91 8f       	std	Z+25, r25	; 0x19
     9ea:	80 8f       	std	Z+24, r24	; 0x18
     9ec:	80 e1       	ldi	r24, 0x10	; 16
     9ee:	97 e1       	ldi	r25, 0x17	; 23
     9f0:	93 8f       	std	Z+27, r25	; 0x1b
     9f2:	82 8f       	std	Z+26, r24	; 0x1a
     9f4:	84 ee       	ldi	r24, 0xE4	; 228
     9f6:	96 e1       	ldi	r25, 0x16	; 22
     9f8:	95 8f       	std	Z+29, r25	; 0x1d
     9fa:	84 8f       	std	Z+28, r24	; 0x1c
}
     9fc:	cf 01       	movw	r24, r30
     9fe:	08 95       	ret

00000a00 <EXPLODEboot>:
	/******/
	return explode;
}
// boot
void EXPLODEboot(EXPLODE* self, uint8_t x)
{
     a00:	fc 01       	movw	r30, r24
	self->XI = self->XF;
     a02:	82 81       	ldd	r24, Z+2	; 0x02
     a04:	93 81       	ldd	r25, Z+3	; 0x03
     a06:	91 83       	std	Z+1, r25	; 0x01
     a08:	80 83       	st	Z, r24
	self->XF = x;
     a0a:	70 e0       	ldi	r23, 0x00	; 0
     a0c:	73 83       	std	Z+3, r23	; 0x03
     a0e:	62 83       	std	Z+2, r22	; 0x02
     a10:	08 95       	ret

00000a12 <EXPLODEhh>:
	trans=diff&self->XF;
	return (trans<<nbits)|diff;
}
// hh
uint8_t EXPLODEhh(EXPLODE* self)
{
     a12:	fc 01       	movw	r30, r24
	uint8_t i;
	i=self->XI&self->XF;
	return i;
     a14:	90 81       	ld	r25, Z
     a16:	82 81       	ldd	r24, Z+2	; 0x02
}
     a18:	89 23       	and	r24, r25
     a1a:	08 95       	ret

00000a1c <EXPLODEll>:
// ll
uint8_t EXPLODEll(EXPLODE* self)
{
     a1c:	fc 01       	movw	r30, r24
	uint8_t i;
	i=self->XI|self->XF;
	return ~i;
     a1e:	90 81       	ld	r25, Z
     a20:	82 81       	ldd	r24, Z+2	; 0x02
     a22:	89 2b       	or	r24, r25
}
     a24:	80 95       	com	r24
     a26:	08 95       	ret

00000a28 <EXPLODElh>:
// lh
uint8_t EXPLODElh(EXPLODE* self)
{
     a28:	fc 01       	movw	r30, r24
	uint8_t i;
	i=self->XI^self->XF;
     a2a:	92 81       	ldd	r25, Z+2	; 0x02
     a2c:	80 81       	ld	r24, Z
     a2e:	89 27       	eor	r24, r25
	i&=self->XF;
	return i;
}
     a30:	89 23       	and	r24, r25
     a32:	08 95       	ret

00000a34 <EXPLODEhl>:
// hl
uint8_t EXPLODEhl(EXPLODE* self)
{
     a34:	fc 01       	movw	r30, r24
	uint8_t i;
	i=self->XF^self->XI;
     a36:	90 81       	ld	r25, Z
     a38:	82 81       	ldd	r24, Z+2	; 0x02
     a3a:	89 27       	eor	r24, r25
	i&=self->XI;
	return i;
}
     a3c:	89 23       	and	r24, r25
     a3e:	08 95       	ret

00000a40 <EXPLODEdiff>:
// diff
uint8_t EXPLODEdiff(EXPLODE* self)
{
     a40:	fc 01       	movw	r30, r24
	return self->XF^self->XI;
     a42:	92 81       	ldd	r25, Z+2	; 0x02
     a44:	80 81       	ld	r24, Z
}
     a46:	89 27       	eor	r24, r25
     a48:	08 95       	ret

00000a4a <EXPLODEdata>:
uint8_t EXPLODEdata(EXPLODE* self)
{
	return self->XF;	
}
     a4a:	fc 01       	movw	r30, r24
     a4c:	82 81       	ldd	r24, Z+2	; 0x02
     a4e:	08 95       	ret

00000a50 <EXPLODEmayia>:
	self->XI = self->XF;
	self->XF = x;
}
// mayia
uint8_t EXPLODEmayia(EXPLODE* self, uint8_t nbits)
{//magic formula
     a50:	dc 01       	movw	r26, r24
// power: raise base to n-th power; n >= 0
uint8_t EXPLODEPwr(uint8_t bs, uint8_t n)
{
	uint8_t i, p;
	p = 1;
	for (i = 1; i <= n; ++i)
     a52:	66 23       	and	r22, r22
     a54:	39 f0       	breq	.+14     	; 0xa64 <EXPLODEmayia+0x14>
     a56:	91 e0       	ldi	r25, 0x01	; 1
     a58:	21 e0       	ldi	r18, 0x01	; 1
	p = p * bs;
     a5a:	22 0f       	add	r18, r18
// power: raise base to n-th power; n >= 0
uint8_t EXPLODEPwr(uint8_t bs, uint8_t n)
{
	uint8_t i, p;
	p = 1;
	for (i = 1; i <= n; ++i)
     a5c:	9f 5f       	subi	r25, 0xFF	; 255
     a5e:	69 17       	cp	r22, r25
     a60:	e0 f7       	brcc	.-8      	; 0xa5a <EXPLODEmayia+0xa>
     a62:	01 c0       	rjmp	.+2      	; 0xa66 <EXPLODEmayia+0x16>
/*******************************************************************/
// power: raise base to n-th power; n >= 0
uint8_t EXPLODEPwr(uint8_t bs, uint8_t n)
{
	uint8_t i, p;
	p = 1;
     a64:	21 e0       	ldi	r18, 0x01	; 1
uint8_t EXPLODEmayia(EXPLODE* self, uint8_t nbits)
{//magic formula
	unsigned int mask;
	unsigned int diff;
	unsigned int trans;
	mask=EXPLODEPwr(2,nbits)-1;
     a66:	30 e0       	ldi	r19, 0x00	; 0
     a68:	21 50       	subi	r18, 0x01	; 1
     a6a:	31 09       	sbc	r19, r1
	self->XI&=mask;
     a6c:	ed 91       	ld	r30, X+
     a6e:	fc 91       	ld	r31, X
     a70:	11 97       	sbiw	r26, 0x01	; 1
     a72:	e2 23       	and	r30, r18
     a74:	f3 23       	and	r31, r19
     a76:	11 96       	adiw	r26, 0x01	; 1
     a78:	fc 93       	st	X, r31
     a7a:	ee 93       	st	-X, r30
	self->XF&=mask;
     a7c:	12 96       	adiw	r26, 0x02	; 2
     a7e:	4d 91       	ld	r20, X+
     a80:	5c 91       	ld	r21, X
     a82:	13 97       	sbiw	r26, 0x03	; 3
     a84:	24 23       	and	r18, r20
     a86:	35 23       	and	r19, r21
     a88:	13 96       	adiw	r26, 0x03	; 3
     a8a:	3c 93       	st	X, r19
     a8c:	2e 93       	st	-X, r18
     a8e:	12 97       	sbiw	r26, 0x02	; 2
	diff=self->XF^self->XI;
     a90:	cf 01       	movw	r24, r30
     a92:	82 27       	eor	r24, r18
     a94:	93 27       	eor	r25, r19
	trans=diff&self->XF;
	return (trans<<nbits)|diff;
     a96:	28 23       	and	r18, r24
     a98:	39 23       	and	r19, r25
     a9a:	02 c0       	rjmp	.+4      	; 0xaa0 <EXPLODEmayia+0x50>
     a9c:	22 0f       	add	r18, r18
     a9e:	33 1f       	adc	r19, r19
     aa0:	6a 95       	dec	r22
     aa2:	e2 f7       	brpl	.-8      	; 0xa9c <EXPLODEmayia+0x4c>
}
     aa4:	82 2b       	or	r24, r18
     aa6:	08 95       	ret

00000aa8 <EXPLODEenable>:
uint8_t EXPLODEhl(EXPLODE* self);
uint8_t EXPLODEdiff(EXPLODE* self);
uint8_t EXPLODEdata(EXPLODE* self);
/***Procedure & Function***/
EXPLODE EXPLODEenable( void )
{
     aa8:	fc 01       	movw	r30, r24
	uint8_t tSREG;
	tSREG=STATUS_REGISTER;
     aaa:	9f b7       	in	r25, 0x3f	; 63
	STATUS_REGISTER&=~(1<<GLOBAL_INTERRUPT_ENABLE);
     aac:	8f b7       	in	r24, 0x3f	; 63
     aae:	8f 77       	andi	r24, 0x7F	; 127
     ab0:	8f bf       	out	0x3f, r24	; 63
	explode.ll=EXPLODEll;
	explode.lh=EXPLODElh;
	explode.hl=EXPLODEhl;
	explode.diff=EXPLODEdiff;
	explode.data=EXPLODEdata;
	STATUS_REGISTER=tSREG;
     ab2:	9f bf       	out	0x3f, r25	; 63
	/******/
	return explode;
     ab4:	11 82       	std	Z+1, r1	; 0x01
     ab6:	10 82       	st	Z, r1
     ab8:	13 82       	std	Z+3, r1	; 0x03
     aba:	12 82       	std	Z+2, r1	; 0x02
     abc:	80 e0       	ldi	r24, 0x00	; 0
     abe:	95 e0       	ldi	r25, 0x05	; 5
     ac0:	95 83       	std	Z+5, r25	; 0x05
     ac2:	84 83       	std	Z+4, r24	; 0x04
     ac4:	88 e2       	ldi	r24, 0x28	; 40
     ac6:	95 e0       	ldi	r25, 0x05	; 5
     ac8:	97 83       	std	Z+7, r25	; 0x07
     aca:	86 83       	std	Z+6, r24	; 0x06
     acc:	89 e0       	ldi	r24, 0x09	; 9
     ace:	95 e0       	ldi	r25, 0x05	; 5
     ad0:	91 87       	std	Z+9, r25	; 0x09
     ad2:	80 87       	std	Z+8, r24	; 0x08
     ad4:	8e e0       	ldi	r24, 0x0E	; 14
     ad6:	95 e0       	ldi	r25, 0x05	; 5
     ad8:	93 87       	std	Z+11, r25	; 0x0b
     ada:	82 87       	std	Z+10, r24	; 0x0a
     adc:	84 e1       	ldi	r24, 0x14	; 20
     ade:	95 e0       	ldi	r25, 0x05	; 5
     ae0:	95 87       	std	Z+13, r25	; 0x0d
     ae2:	84 87       	std	Z+12, r24	; 0x0c
     ae4:	8a e1       	ldi	r24, 0x1A	; 26
     ae6:	95 e0       	ldi	r25, 0x05	; 5
     ae8:	97 87       	std	Z+15, r25	; 0x0f
     aea:	86 87       	std	Z+14, r24	; 0x0e
     aec:	80 e2       	ldi	r24, 0x20	; 32
     aee:	95 e0       	ldi	r25, 0x05	; 5
     af0:	91 8b       	std	Z+17, r25	; 0x11
     af2:	80 8b       	std	Z+16, r24	; 0x10
     af4:	85 e2       	ldi	r24, 0x25	; 37
     af6:	95 e0       	ldi	r25, 0x05	; 5
     af8:	93 8b       	std	Z+19, r25	; 0x13
     afa:	82 8b       	std	Z+18, r24	; 0x12
}
     afc:	cf 01       	movw	r24, r30
     afe:	08 95       	ret

00000b00 <FUNCpinmatch>:
	return i;
}
uint8_t  bintobcd(uint8_t bin)
{
	return (((bin) / 10) << 4) + ((bin) % 10);
}
     b00:	68 23       	and	r22, r24
     b02:	44 23       	and	r20, r20
     b04:	21 f0       	breq	.+8      	; 0xb0e <FUNCpinmatch+0xe>
     b06:	86 17       	cp	r24, r22
     b08:	21 f0       	breq	.+8      	; 0xb12 <FUNCpinmatch+0x12>
     b0a:	80 e0       	ldi	r24, 0x00	; 0
     b0c:	08 95       	ret
     b0e:	61 11       	cpse	r22, r1
     b10:	80 e0       	ldi	r24, 0x00	; 0
     b12:	08 95       	ret

00000b14 <FUNChmerge>:
     b14:	86 2b       	or	r24, r22
     b16:	08 95       	ret

00000b18 <FUNClmerge>:
     b18:	86 23       	and	r24, r22
     b1a:	08 95       	ret

00000b1c <FUNChh>:
     b1c:	86 23       	and	r24, r22
     b1e:	08 95       	ret

00000b20 <FUNCll>:
     b20:	86 2b       	or	r24, r22
     b22:	80 95       	com	r24
     b24:	08 95       	ret

00000b26 <FUNClh>:
     b26:	86 27       	eor	r24, r22
     b28:	86 23       	and	r24, r22
     b2a:	08 95       	ret

00000b2c <FUNChl>:
     b2c:	60 95       	com	r22
     b2e:	86 23       	and	r24, r22
     b30:	08 95       	ret

00000b32 <FUNCdiff>:
     b32:	86 27       	eor	r24, r22
     b34:	08 95       	ret

00000b36 <FUNCswap>:
     b36:	cf 92       	push	r12
     b38:	df 92       	push	r13
     b3a:	ef 92       	push	r14
     b3c:	ff 92       	push	r15
     b3e:	0f 93       	push	r16
     b40:	1f 93       	push	r17
     b42:	fc 01       	movw	r30, r24
     b44:	00 81       	ld	r16, Z
     b46:	11 81       	ldd	r17, Z+1	; 0x01
     b48:	22 81       	ldd	r18, Z+2	; 0x02
     b4a:	33 81       	ldd	r19, Z+3	; 0x03
     b4c:	fb 01       	movw	r30, r22
     b4e:	c0 80       	ld	r12, Z
     b50:	d1 80       	ldd	r13, Z+1	; 0x01
     b52:	e2 80       	ldd	r14, Z+2	; 0x02
     b54:	f3 80       	ldd	r15, Z+3	; 0x03
     b56:	fc 01       	movw	r30, r24
     b58:	c0 82       	st	Z, r12
     b5a:	d1 82       	std	Z+1, r13	; 0x01
     b5c:	e2 82       	std	Z+2, r14	; 0x02
     b5e:	f3 82       	std	Z+3, r15	; 0x03
     b60:	fb 01       	movw	r30, r22
     b62:	00 83       	st	Z, r16
     b64:	11 83       	std	Z+1, r17	; 0x01
     b66:	22 83       	std	Z+2, r18	; 0x02
     b68:	33 83       	std	Z+3, r19	; 0x03
     b6a:	1f 91       	pop	r17
     b6c:	0f 91       	pop	r16
     b6e:	ff 90       	pop	r15
     b70:	ef 90       	pop	r14
     b72:	df 90       	pop	r13
     b74:	cf 90       	pop	r12
     b76:	08 95       	ret

00000b78 <FUNCcopy>:
     b78:	fb 01       	movw	r30, r22
     b7a:	20 81       	ld	r18, Z
     b7c:	fc 01       	movw	r30, r24
     b7e:	20 83       	st	Z, r18
     b80:	22 23       	and	r18, r18
     b82:	39 f0       	breq	.+14     	; 0xb92 <FUNCcopy+0x1a>
     b84:	db 01       	movw	r26, r22
     b86:	11 96       	adiw	r26, 0x01	; 1
     b88:	31 96       	adiw	r30, 0x01	; 1
     b8a:	9d 91       	ld	r25, X+
     b8c:	91 93       	st	Z+, r25
     b8e:	91 11       	cpse	r25, r1
     b90:	fc cf       	rjmp	.-8      	; 0xb8a <FUNCcopy+0x12>
     b92:	08 95       	ret

00000b94 <FUNCsqueeze>:
     b94:	cf 93       	push	r28
     b96:	df 93       	push	r29
     b98:	ec 01       	movw	r28, r24
     b9a:	98 81       	ld	r25, Y
     b9c:	99 23       	and	r25, r25
     b9e:	99 f0       	breq	.+38     	; 0xbc6 <FUNCsqueeze+0x32>
     ba0:	fe 01       	movw	r30, r28
     ba2:	31 96       	adiw	r30, 0x01	; 1
     ba4:	20 e0       	ldi	r18, 0x00	; 0
     ba6:	30 e0       	ldi	r19, 0x00	; 0
     ba8:	49 2f       	mov	r20, r25
     baa:	50 e0       	ldi	r21, 0x00	; 0
     bac:	46 17       	cp	r20, r22
     bae:	57 07       	cpc	r21, r23
     bb0:	31 f0       	breq	.+12     	; 0xbbe <FUNCsqueeze+0x2a>
     bb2:	de 01       	movw	r26, r28
     bb4:	a2 0f       	add	r26, r18
     bb6:	b3 1f       	adc	r27, r19
     bb8:	9c 93       	st	X, r25
     bba:	2f 5f       	subi	r18, 0xFF	; 255
     bbc:	3f 4f       	sbci	r19, 0xFF	; 255
     bbe:	91 91       	ld	r25, Z+
     bc0:	91 11       	cpse	r25, r1
     bc2:	f2 cf       	rjmp	.-28     	; 0xba8 <FUNCsqueeze+0x14>
     bc4:	02 c0       	rjmp	.+4      	; 0xbca <FUNCsqueeze+0x36>
     bc6:	20 e0       	ldi	r18, 0x00	; 0
     bc8:	30 e0       	ldi	r19, 0x00	; 0
     bca:	fe 01       	movw	r30, r28
     bcc:	e2 0f       	add	r30, r18
     bce:	f3 1f       	adc	r31, r19
     bd0:	10 82       	st	Z, r1
     bd2:	df 91       	pop	r29
     bd4:	cf 91       	pop	r28
     bd6:	08 95       	ret

00000bd8 <FUNCshellsort>:
     bd8:	2f 92       	push	r2
     bda:	3f 92       	push	r3
     bdc:	4f 92       	push	r4
     bde:	5f 92       	push	r5
     be0:	6f 92       	push	r6
     be2:	7f 92       	push	r7
     be4:	8f 92       	push	r8
     be6:	9f 92       	push	r9
     be8:	af 92       	push	r10
     bea:	bf 92       	push	r11
     bec:	cf 92       	push	r12
     bee:	df 92       	push	r13
     bf0:	ef 92       	push	r14
     bf2:	ff 92       	push	r15
     bf4:	0f 93       	push	r16
     bf6:	1f 93       	push	r17
     bf8:	cf 93       	push	r28
     bfa:	df 93       	push	r29
     bfc:	00 d0       	rcall	.+0      	; 0xbfe <FUNCshellsort+0x26>
     bfe:	00 d0       	rcall	.+0      	; 0xc00 <FUNCshellsort+0x28>
     c00:	cd b7       	in	r28, 0x3d	; 61
     c02:	de b7       	in	r29, 0x3e	; 62
     c04:	2c 01       	movw	r4, r24
     c06:	1b 01       	movw	r2, r22
     c08:	4b 01       	movw	r8, r22
     c0a:	77 23       	and	r23, r23
     c0c:	1c f4       	brge	.+6      	; 0xc14 <FUNCshellsort+0x3c>
     c0e:	2f ef       	ldi	r18, 0xFF	; 255
     c10:	82 1a       	sub	r8, r18
     c12:	92 0a       	sbc	r9, r18
     c14:	95 94       	asr	r9
     c16:	87 94       	ror	r8
     c18:	18 14       	cp	r1, r8
     c1a:	19 04       	cpc	r1, r9
     c1c:	0c f4       	brge	.+2      	; 0xc20 <FUNCshellsort+0x48>
     c1e:	51 c0       	rjmp	.+162    	; 0xcc2 <FUNCshellsort+0xea>
     c20:	6a c0       	rjmp	.+212    	; 0xcf6 <FUNCshellsort+0x11e>
     c22:	96 01       	movw	r18, r12
     c24:	dd 20       	and	r13, r13
     c26:	9c f1       	brlt	.+102    	; 0xc8e <FUNCshellsort+0xb6>
     c28:	f5 01       	movw	r30, r10
     c2a:	40 81       	ld	r20, Z
     c2c:	51 81       	ldd	r21, Z+1	; 0x01
     c2e:	f4 01       	movw	r30, r8
     c30:	60 81       	ld	r22, Z
     c32:	71 81       	ldd	r23, Z+1	; 0x01
     c34:	64 17       	cp	r22, r20
     c36:	75 07       	cpc	r23, r21
     c38:	54 f5       	brge	.+84     	; 0xc8e <FUNCshellsort+0xb6>
     c3a:	8c 01       	movw	r16, r24
     c3c:	0a 0d       	add	r16, r10
     c3e:	1b 1d       	adc	r17, r11
     c40:	d4 01       	movw	r26, r8
     c42:	bc 82       	std	Y+4, r11	; 0x04
     c44:	ab 82       	std	Y+3, r10	; 0x03
     c46:	ba 82       	std	Y+2, r11	; 0x02
     c48:	a9 82       	std	Y+1, r10	; 0x01
     c4a:	eb 81       	ldd	r30, Y+3	; 0x03
     c4c:	fc 81       	ldd	r31, Y+4	; 0x04
     c4e:	71 83       	std	Z+1, r23	; 0x01
     c50:	60 83       	st	Z, r22
     c52:	11 96       	adiw	r26, 0x01	; 1
     c54:	5c 93       	st	X, r21
     c56:	4e 93       	st	-X, r20
     c58:	2e 19       	sub	r18, r14
     c5a:	3f 09       	sbc	r19, r15
     c5c:	c2 f0       	brmi	.+48     	; 0xc8e <FUNCshellsort+0xb6>
     c5e:	f8 01       	movw	r30, r16
     c60:	40 81       	ld	r20, Z
     c62:	51 81       	ldd	r21, Z+1	; 0x01
     c64:	e9 81       	ldd	r30, Y+1	; 0x01
     c66:	fa 81       	ldd	r31, Y+2	; 0x02
     c68:	60 81       	ld	r22, Z
     c6a:	71 81       	ldd	r23, Z+1	; 0x01
     c6c:	08 0f       	add	r16, r24
     c6e:	19 1f       	adc	r17, r25
     c70:	e8 0f       	add	r30, r24
     c72:	f9 1f       	adc	r31, r25
     c74:	fa 83       	std	Y+2, r31	; 0x02
     c76:	e9 83       	std	Y+1, r30	; 0x01
     c78:	eb 81       	ldd	r30, Y+3	; 0x03
     c7a:	fc 81       	ldd	r31, Y+4	; 0x04
     c7c:	e8 0f       	add	r30, r24
     c7e:	f9 1f       	adc	r31, r25
     c80:	fc 83       	std	Y+4, r31	; 0x04
     c82:	eb 83       	std	Y+3, r30	; 0x03
     c84:	a8 0f       	add	r26, r24
     c86:	b9 1f       	adc	r27, r25
     c88:	64 17       	cp	r22, r20
     c8a:	75 07       	cpc	r23, r21
     c8c:	f4 f2       	brlt	.-68     	; 0xc4a <FUNCshellsort+0x72>
     c8e:	ff ef       	ldi	r31, 0xFF	; 255
     c90:	cf 1a       	sub	r12, r31
     c92:	df 0a       	sbc	r13, r31
     c94:	22 e0       	ldi	r18, 0x02	; 2
     c96:	a2 0e       	add	r10, r18
     c98:	b1 1c       	adc	r11, r1
     c9a:	e2 e0       	ldi	r30, 0x02	; 2
     c9c:	8e 0e       	add	r8, r30
     c9e:	91 1c       	adc	r9, r1
     ca0:	c6 14       	cp	r12, r6
     ca2:	d7 04       	cpc	r13, r7
     ca4:	09 f0       	breq	.+2      	; 0xca8 <FUNCshellsort+0xd0>
     ca6:	bd cf       	rjmp	.-134    	; 0xc22 <FUNCshellsort+0x4a>
     ca8:	47 01       	movw	r8, r14
     caa:	ff 20       	and	r15, r15
     cac:	1c f4       	brge	.+6      	; 0xcb4 <FUNCshellsort+0xdc>
     cae:	ff ef       	ldi	r31, 0xFF	; 255
     cb0:	8f 1a       	sub	r8, r31
     cb2:	9f 0a       	sbc	r9, r31
     cb4:	95 94       	asr	r9
     cb6:	87 94       	ror	r8
     cb8:	18 14       	cp	r1, r8
     cba:	19 04       	cpc	r1, r9
     cbc:	e4 f4       	brge	.+56     	; 0xcf6 <FUNCshellsort+0x11e>
     cbe:	74 01       	movw	r14, r8
     cc0:	01 c0       	rjmp	.+2      	; 0xcc4 <FUNCshellsort+0xec>
     cc2:	74 01       	movw	r14, r8
     cc4:	82 14       	cp	r8, r2
     cc6:	93 04       	cpc	r9, r3
     cc8:	7c f7       	brge	.-34     	; 0xca8 <FUNCshellsort+0xd0>
     cca:	64 01       	movw	r12, r8
     ccc:	ce 18       	sub	r12, r14
     cce:	df 08       	sbc	r13, r15
     cd0:	56 01       	movw	r10, r12
     cd2:	aa 0c       	add	r10, r10
     cd4:	bb 1c       	adc	r11, r11
     cd6:	a4 0c       	add	r10, r4
     cd8:	b5 1c       	adc	r11, r5
     cda:	88 0c       	add	r8, r8
     cdc:	99 1c       	adc	r9, r9
     cde:	84 0c       	add	r8, r4
     ce0:	95 1c       	adc	r9, r5
     ce2:	31 01       	movw	r6, r2
     ce4:	6e 18       	sub	r6, r14
     ce6:	7f 08       	sbc	r7, r15
     ce8:	c7 01       	movw	r24, r14
     cea:	88 0f       	add	r24, r24
     cec:	99 1f       	adc	r25, r25
     cee:	91 95       	neg	r25
     cf0:	81 95       	neg	r24
     cf2:	91 09       	sbc	r25, r1
     cf4:	96 cf       	rjmp	.-212    	; 0xc22 <FUNCshellsort+0x4a>
     cf6:	0f 90       	pop	r0
     cf8:	0f 90       	pop	r0
     cfa:	0f 90       	pop	r0
     cfc:	0f 90       	pop	r0
     cfe:	df 91       	pop	r29
     d00:	cf 91       	pop	r28
     d02:	1f 91       	pop	r17
     d04:	0f 91       	pop	r16
     d06:	ff 90       	pop	r15
     d08:	ef 90       	pop	r14
     d0a:	df 90       	pop	r13
     d0c:	cf 90       	pop	r12
     d0e:	bf 90       	pop	r11
     d10:	af 90       	pop	r10
     d12:	9f 90       	pop	r9
     d14:	8f 90       	pop	r8
     d16:	7f 90       	pop	r7
     d18:	6f 90       	pop	r6
     d1a:	5f 90       	pop	r5
     d1c:	4f 90       	pop	r4
     d1e:	3f 90       	pop	r3
     d20:	2f 90       	pop	r2
     d22:	08 95       	ret

00000d24 <FUNCpmax>:
     d24:	86 17       	cp	r24, r22
     d26:	97 07       	cpc	r25, r23
     d28:	0c f4       	brge	.+2      	; 0xd2c <FUNCpmax+0x8>
     d2a:	cb 01       	movw	r24, r22
     d2c:	08 95       	ret

00000d2e <FUNCgcd>:
     d2e:	9b 01       	movw	r18, r22
     d30:	67 2b       	or	r22, r23
     d32:	11 f4       	brne	.+4      	; 0xd38 <FUNCgcd+0xa>
     d34:	08 95       	ret
     d36:	9a 01       	movw	r18, r20
     d38:	b9 01       	movw	r22, r18
     d3a:	0e 94 54 16 	call	0x2ca8	; 0x2ca8 <__divmodhi4>
     d3e:	ac 01       	movw	r20, r24
     d40:	82 2f       	mov	r24, r18
     d42:	93 2f       	mov	r25, r19
     d44:	41 15       	cp	r20, r1
     d46:	51 05       	cpc	r21, r1
     d48:	b1 f7       	brne	.-20     	; 0xd36 <FUNCgcd+0x8>
     d4a:	08 95       	ret

00000d4c <FUNCstrToInt>:
     d4c:	fc 01       	movw	r30, r24
     d4e:	90 81       	ld	r25, Z
     d50:	80 ed       	ldi	r24, 0xD0	; 208
     d52:	89 0f       	add	r24, r25
     d54:	8a 30       	cpi	r24, 0x0A	; 10
     d56:	d0 f4       	brcc	.+52     	; 0xd8c <FUNCstrToInt+0x40>
     d58:	31 96       	adiw	r30, 0x01	; 1
     d5a:	20 e0       	ldi	r18, 0x00	; 0
     d5c:	30 e0       	ldi	r19, 0x00	; 0
     d5e:	a9 01       	movw	r20, r18
     d60:	44 0f       	add	r20, r20
     d62:	55 1f       	adc	r21, r21
     d64:	22 0f       	add	r18, r18
     d66:	33 1f       	adc	r19, r19
     d68:	22 0f       	add	r18, r18
     d6a:	33 1f       	adc	r19, r19
     d6c:	22 0f       	add	r18, r18
     d6e:	33 1f       	adc	r19, r19
     d70:	42 0f       	add	r20, r18
     d72:	53 1f       	adc	r21, r19
     d74:	29 2f       	mov	r18, r25
     d76:	30 e0       	ldi	r19, 0x00	; 0
     d78:	20 53       	subi	r18, 0x30	; 48
     d7a:	31 09       	sbc	r19, r1
     d7c:	24 0f       	add	r18, r20
     d7e:	35 1f       	adc	r19, r21
     d80:	91 91       	ld	r25, Z+
     d82:	80 ed       	ldi	r24, 0xD0	; 208
     d84:	89 0f       	add	r24, r25
     d86:	8a 30       	cpi	r24, 0x0A	; 10
     d88:	50 f3       	brcs	.-44     	; 0xd5e <FUNCstrToInt+0x12>
     d8a:	02 c0       	rjmp	.+4      	; 0xd90 <FUNCstrToInt+0x44>
     d8c:	20 e0       	ldi	r18, 0x00	; 0
     d8e:	30 e0       	ldi	r19, 0x00	; 0
     d90:	c9 01       	movw	r24, r18
     d92:	08 95       	ret

00000d94 <FUNCfilter>:
     d94:	86 23       	and	r24, r22
     d96:	08 95       	ret

00000d98 <FUNCticks>:
     d98:	00 97       	sbiw	r24, 0x00	; 0
     d9a:	39 f0       	breq	.+14     	; 0xdaa <FUNCticks+0x12>
     d9c:	20 e0       	ldi	r18, 0x00	; 0
     d9e:	30 e0       	ldi	r19, 0x00	; 0
     da0:	2f 5f       	subi	r18, 0xFF	; 255
     da2:	3f 4f       	sbci	r19, 0xFF	; 255
     da4:	82 17       	cp	r24, r18
     da6:	93 07       	cpc	r25, r19
     da8:	d9 f7       	brne	.-10     	; 0xda0 <FUNCticks+0x8>
     daa:	08 95       	ret

00000dac <FUNCtwocomptoint8bit>:
     dac:	87 ff       	sbrs	r24, 7
     dae:	08 c0       	rjmp	.+16     	; 0xdc0 <FUNCtwocomptoint8bit+0x14>
     db0:	91 95       	neg	r25
     db2:	81 95       	neg	r24
     db4:	91 09       	sbc	r25, r1
     db6:	99 27       	eor	r25, r25
     db8:	91 95       	neg	r25
     dba:	81 95       	neg	r24
     dbc:	91 09       	sbc	r25, r1
     dbe:	08 95       	ret
     dc0:	8f 77       	andi	r24, 0x7F	; 127
     dc2:	99 27       	eor	r25, r25
     dc4:	08 95       	ret

00000dc6 <FUNCtwocomptoint10bit>:
     dc6:	91 ff       	sbrs	r25, 1
     dc8:	08 c0       	rjmp	.+16     	; 0xdda <FUNCtwocomptoint10bit+0x14>
     dca:	91 95       	neg	r25
     dcc:	81 95       	neg	r24
     dce:	91 09       	sbc	r25, r1
     dd0:	93 70       	andi	r25, 0x03	; 3
     dd2:	91 95       	neg	r25
     dd4:	81 95       	neg	r24
     dd6:	91 09       	sbc	r25, r1
     dd8:	08 95       	ret
     dda:	91 70       	andi	r25, 0x01	; 1
     ddc:	08 95       	ret

00000dde <FUNCtwocomptointnbit>:
     dde:	61 50       	subi	r22, 0x01	; 1
     de0:	21 e0       	ldi	r18, 0x01	; 1
     de2:	30 e0       	ldi	r19, 0x00	; 0
     de4:	02 c0       	rjmp	.+4      	; 0xdea <FUNCtwocomptointnbit+0xc>
     de6:	22 0f       	add	r18, r18
     de8:	33 1f       	adc	r19, r19
     dea:	6a 95       	dec	r22
     dec:	e2 f7       	brpl	.-8      	; 0xde6 <FUNCtwocomptointnbit+0x8>
     dee:	a9 01       	movw	r20, r18
     df0:	41 50       	subi	r20, 0x01	; 1
     df2:	51 09       	sbc	r21, r1
     df4:	b9 01       	movw	r22, r18
     df6:	68 23       	and	r22, r24
     df8:	79 23       	and	r23, r25
     dfa:	67 2b       	or	r22, r23
     dfc:	29 f0       	breq	.+10     	; 0xe08 <FUNCtwocomptointnbit+0x2a>
     dfe:	84 23       	and	r24, r20
     e00:	95 23       	and	r25, r21
     e02:	82 1b       	sub	r24, r18
     e04:	93 0b       	sbc	r25, r19
     e06:	08 95       	ret
     e08:	84 23       	and	r24, r20
     e0a:	95 23       	and	r25, r21
     e0c:	08 95       	ret

00000e0e <FUNCdec2bcd>:
     e0e:	9d ec       	ldi	r25, 0xCD	; 205
     e10:	89 9f       	mul	r24, r25
     e12:	91 2d       	mov	r25, r1
     e14:	11 24       	eor	r1, r1
     e16:	96 95       	lsr	r25
     e18:	96 95       	lsr	r25
     e1a:	96 95       	lsr	r25
     e1c:	39 2f       	mov	r19, r25
     e1e:	33 0f       	add	r19, r19
     e20:	23 2f       	mov	r18, r19
     e22:	22 0f       	add	r18, r18
     e24:	22 0f       	add	r18, r18
     e26:	23 0f       	add	r18, r19
     e28:	82 1b       	sub	r24, r18
     e2a:	20 e1       	ldi	r18, 0x10	; 16
     e2c:	92 9f       	mul	r25, r18
     e2e:	80 0d       	add	r24, r0
     e30:	11 24       	eor	r1, r1
     e32:	08 95       	ret

00000e34 <FUNCbcd2dec>:
     e34:	98 2f       	mov	r25, r24
     e36:	92 95       	swap	r25
     e38:	9f 70       	andi	r25, 0x0F	; 15
     e3a:	99 0f       	add	r25, r25
     e3c:	29 2f       	mov	r18, r25
     e3e:	22 0f       	add	r18, r18
     e40:	22 0f       	add	r18, r18
     e42:	92 0f       	add	r25, r18
     e44:	8f 70       	andi	r24, 0x0F	; 15
     e46:	89 0f       	add	r24, r25
     e48:	08 95       	ret

00000e4a <FUNCresizestr>:
     e4a:	fc 01       	movw	r30, r24
     e4c:	db 01       	movw	r26, r22
     e4e:	ad 50       	subi	r26, 0x0D	; 13
     e50:	bd 4f       	sbci	r27, 0xFD	; 253
     e52:	1c 92       	st	X, r1
     e54:	16 16       	cp	r1, r22
     e56:	17 06       	cpc	r1, r23
     e58:	14 f5       	brge	.+68     	; 0xe9e <FUNCresizestr+0x54>
     e5a:	90 81       	ld	r25, Z
     e5c:	91 11       	cpse	r25, r1
     e5e:	0c c0       	rjmp	.+24     	; 0xe78 <FUNCresizestr+0x2e>
     e60:	17 c0       	rjmp	.+46     	; 0xe90 <FUNCresizestr+0x46>
     e62:	91 91       	ld	r25, Z+
     e64:	91 11       	cpse	r25, r1
     e66:	0d c0       	rjmp	.+26     	; 0xe82 <FUNCresizestr+0x38>
     e68:	15 c0       	rjmp	.+42     	; 0xe94 <FUNCresizestr+0x4a>
     e6a:	81 93       	st	Z+, r24
     e6c:	2f 5f       	subi	r18, 0xFF	; 255
     e6e:	3f 4f       	sbci	r19, 0xFF	; 255
     e70:	26 17       	cp	r18, r22
     e72:	37 07       	cpc	r19, r23
     e74:	d4 f3       	brlt	.-12     	; 0xe6a <FUNCresizestr+0x20>
     e76:	13 c0       	rjmp	.+38     	; 0xe9e <FUNCresizestr+0x54>
     e78:	a3 ef       	ldi	r26, 0xF3	; 243
     e7a:	b2 e0       	ldi	r27, 0x02	; 2
     e7c:	31 96       	adiw	r30, 0x01	; 1
     e7e:	20 e0       	ldi	r18, 0x00	; 0
     e80:	30 e0       	ldi	r19, 0x00	; 0
     e82:	9d 93       	st	X+, r25
     e84:	2f 5f       	subi	r18, 0xFF	; 255
     e86:	3f 4f       	sbci	r19, 0xFF	; 255
     e88:	62 17       	cp	r22, r18
     e8a:	73 07       	cpc	r23, r19
     e8c:	51 f7       	brne	.-44     	; 0xe62 <FUNCresizestr+0x18>
     e8e:	07 c0       	rjmp	.+14     	; 0xe9e <FUNCresizestr+0x54>
     e90:	20 e0       	ldi	r18, 0x00	; 0
     e92:	30 e0       	ldi	r19, 0x00	; 0
     e94:	f9 01       	movw	r30, r18
     e96:	ed 50       	subi	r30, 0x0D	; 13
     e98:	fd 4f       	sbci	r31, 0xFD	; 253
     e9a:	80 e2       	ldi	r24, 0x20	; 32
     e9c:	e6 cf       	rjmp	.-52     	; 0xe6a <FUNCresizestr+0x20>
     e9e:	83 ef       	ldi	r24, 0xF3	; 243
     ea0:	92 e0       	ldi	r25, 0x02	; 2
     ea2:	08 95       	ret

00000ea4 <FUNCtrimmer>:
     ea4:	4f 92       	push	r4
     ea6:	5f 92       	push	r5
     ea8:	6f 92       	push	r6
     eaa:	7f 92       	push	r7
     eac:	af 92       	push	r10
     eae:	bf 92       	push	r11
     eb0:	cf 92       	push	r12
     eb2:	df 92       	push	r13
     eb4:	ef 92       	push	r14
     eb6:	ff 92       	push	r15
     eb8:	0f 93       	push	r16
     eba:	1f 93       	push	r17
     ebc:	cf 93       	push	r28
     ebe:	df 93       	push	r29
     ec0:	cd b7       	in	r28, 0x3d	; 61
     ec2:	de b7       	in	r29, 0x3e	; 62
     ec4:	29 01       	movw	r4, r18
     ec6:	3a 01       	movw	r6, r20
     ec8:	9b 01       	movw	r18, r22
     eca:	ac 01       	movw	r20, r24
     ecc:	24 19       	sub	r18, r4
     ece:	35 09       	sbc	r19, r5
     ed0:	46 09       	sbc	r20, r6
     ed2:	57 09       	sbc	r21, r7
     ed4:	89 89       	ldd	r24, Y+17	; 0x11
     ed6:	9a 89       	ldd	r25, Y+18	; 0x12
     ed8:	ab 89       	ldd	r26, Y+19	; 0x13
     eda:	bc 89       	ldd	r27, Y+20	; 0x14
     edc:	bc 01       	movw	r22, r24
     ede:	cd 01       	movw	r24, r26
     ee0:	6a 19       	sub	r22, r10
     ee2:	7b 09       	sbc	r23, r11
     ee4:	8c 09       	sbc	r24, r12
     ee6:	9d 09       	sbc	r25, r13
     ee8:	0e 94 31 16 	call	0x2c62	; 0x2c62 <__mulsi3>
     eec:	a8 01       	movw	r20, r16
     eee:	97 01       	movw	r18, r14
     ef0:	24 19       	sub	r18, r4
     ef2:	35 09       	sbc	r19, r5
     ef4:	46 09       	sbc	r20, r6
     ef6:	57 09       	sbc	r21, r7
     ef8:	0e 94 89 16 	call	0x2d12	; 0x2d12 <__divmodsi4>
     efc:	ca 01       	movw	r24, r20
     efe:	b9 01       	movw	r22, r18
     f00:	6a 0d       	add	r22, r10
     f02:	7b 1d       	adc	r23, r11
     f04:	8c 1d       	adc	r24, r12
     f06:	9d 1d       	adc	r25, r13
     f08:	df 91       	pop	r29
     f0a:	cf 91       	pop	r28
     f0c:	1f 91       	pop	r17
     f0e:	0f 91       	pop	r16
     f10:	ff 90       	pop	r15
     f12:	ef 90       	pop	r14
     f14:	df 90       	pop	r13
     f16:	cf 90       	pop	r12
     f18:	bf 90       	pop	r11
     f1a:	af 90       	pop	r10
     f1c:	7f 90       	pop	r7
     f1e:	6f 90       	pop	r6
     f20:	5f 90       	pop	r5
     f22:	4f 90       	pop	r4
     f24:	08 95       	ret

00000f26 <Pwr>:
     f26:	70 e0       	ldi	r23, 0x00	; 0
     f28:	61 15       	cp	r22, r1
     f2a:	71 05       	cpc	r23, r1
     f2c:	99 f0       	breq	.+38     	; 0xf54 <Pwr+0x2e>
     f2e:	41 e0       	ldi	r20, 0x01	; 1
     f30:	50 e0       	ldi	r21, 0x00	; 0
     f32:	21 e0       	ldi	r18, 0x01	; 1
     f34:	30 e0       	ldi	r19, 0x00	; 0
     f36:	90 e0       	ldi	r25, 0x00	; 0
     f38:	fa 01       	movw	r30, r20
     f3a:	e8 9f       	mul	r30, r24
     f3c:	a0 01       	movw	r20, r0
     f3e:	e9 9f       	mul	r30, r25
     f40:	50 0d       	add	r21, r0
     f42:	f8 9f       	mul	r31, r24
     f44:	50 0d       	add	r21, r0
     f46:	11 24       	eor	r1, r1
     f48:	2f 5f       	subi	r18, 0xFF	; 255
     f4a:	3f 4f       	sbci	r19, 0xFF	; 255
     f4c:	62 17       	cp	r22, r18
     f4e:	73 07       	cpc	r23, r19
     f50:	98 f7       	brcc	.-26     	; 0xf38 <Pwr+0x12>
     f52:	02 c0       	rjmp	.+4      	; 0xf58 <Pwr+0x32>
     f54:	41 e0       	ldi	r20, 0x01	; 1
     f56:	50 e0       	ldi	r21, 0x00	; 0
     f58:	ca 01       	movw	r24, r20
     f5a:	08 95       	ret

00000f5c <StringLength>:
     f5c:	fc 01       	movw	r30, r24
     f5e:	20 81       	ld	r18, Z
     f60:	22 23       	and	r18, r18
     f62:	41 f0       	breq	.+16     	; 0xf74 <StringLength+0x18>
     f64:	31 96       	adiw	r30, 0x01	; 1
     f66:	80 e0       	ldi	r24, 0x00	; 0
     f68:	90 e0       	ldi	r25, 0x00	; 0
     f6a:	01 96       	adiw	r24, 0x01	; 1
     f6c:	21 91       	ld	r18, Z+
     f6e:	21 11       	cpse	r18, r1
     f70:	fc cf       	rjmp	.-8      	; 0xf6a <StringLength+0xe>
     f72:	08 95       	ret
     f74:	80 e0       	ldi	r24, 0x00	; 0
     f76:	90 e0       	ldi	r25, 0x00	; 0
     f78:	08 95       	ret

00000f7a <FUNCtrim>:
     f7a:	cf 93       	push	r28
     f7c:	df 93       	push	r29
     f7e:	ec 01       	movw	r28, r24
     f80:	ed df       	rcall	.-38     	; 0xf5c <StringLength>
     f82:	9c 01       	movw	r18, r24
     f84:	21 50       	subi	r18, 0x01	; 1
     f86:	31 09       	sbc	r19, r1
     f88:	62 f0       	brmi	.+24     	; 0xfa2 <FUNCtrim+0x28>
     f8a:	fe 01       	movw	r30, r28
     f8c:	e8 0f       	add	r30, r24
     f8e:	f9 1f       	adc	r31, r25
     f90:	92 91       	ld	r25, -Z
     f92:	90 32       	cpi	r25, 0x20	; 32
     f94:	19 f0       	breq	.+6      	; 0xf9c <FUNCtrim+0x22>
     f96:	99 50       	subi	r25, 0x09	; 9
     f98:	92 30       	cpi	r25, 0x02	; 2
     f9a:	18 f4       	brcc	.+6      	; 0xfa2 <FUNCtrim+0x28>
     f9c:	21 50       	subi	r18, 0x01	; 1
     f9e:	31 09       	sbc	r19, r1
     fa0:	b8 f7       	brcc	.-18     	; 0xf90 <FUNCtrim+0x16>
     fa2:	c2 0f       	add	r28, r18
     fa4:	d3 1f       	adc	r29, r19
     fa6:	19 82       	std	Y+1, r1	; 0x01
     fa8:	c9 01       	movw	r24, r18
     faa:	df 91       	pop	r29
     fac:	cf 91       	pop	r28
     fae:	08 95       	ret

00000fb0 <Reverse>:
     fb0:	cf 93       	push	r28
     fb2:	df 93       	push	r29
     fb4:	ec 01       	movw	r28, r24
     fb6:	d2 df       	rcall	.-92     	; 0xf5c <StringLength>
     fb8:	9c 01       	movw	r18, r24
     fba:	21 50       	subi	r18, 0x01	; 1
     fbc:	31 09       	sbc	r19, r1
     fbe:	12 16       	cp	r1, r18
     fc0:	13 06       	cpc	r1, r19
     fc2:	84 f4       	brge	.+32     	; 0xfe4 <Reverse+0x34>
     fc4:	de 01       	movw	r26, r28
     fc6:	a8 0f       	add	r26, r24
     fc8:	b9 1f       	adc	r27, r25
     fca:	fe 01       	movw	r30, r28
     fcc:	80 e0       	ldi	r24, 0x00	; 0
     fce:	90 e0       	ldi	r25, 0x00	; 0
     fd0:	40 81       	ld	r20, Z
     fd2:	5e 91       	ld	r21, -X
     fd4:	51 93       	st	Z+, r21
     fd6:	4c 93       	st	X, r20
     fd8:	01 96       	adiw	r24, 0x01	; 1
     fda:	21 50       	subi	r18, 0x01	; 1
     fdc:	31 09       	sbc	r19, r1
     fde:	82 17       	cp	r24, r18
     fe0:	93 07       	cpc	r25, r19
     fe2:	b4 f3       	brlt	.-20     	; 0xfd0 <Reverse+0x20>
     fe4:	df 91       	pop	r29
     fe6:	cf 91       	pop	r28
     fe8:	08 95       	ret

00000fea <FUNCi32toa>:
     fea:	8f 92       	push	r8
     fec:	9f 92       	push	r9
     fee:	af 92       	push	r10
     ff0:	bf 92       	push	r11
     ff2:	cf 92       	push	r12
     ff4:	df 92       	push	r13
     ff6:	ef 92       	push	r14
     ff8:	ff 92       	push	r15
     ffa:	0f 93       	push	r16
     ffc:	1f 93       	push	r17
     ffe:	cf 93       	push	r28
    1000:	df 93       	push	r29
    1002:	6b 01       	movw	r12, r22
    1004:	7c 01       	movw	r14, r24
    1006:	dc 01       	movw	r26, r24
    1008:	cb 01       	movw	r24, r22
    100a:	ff 20       	and	r15, r15
    100c:	3c f4       	brge	.+14     	; 0x101c <FUNCi32toa+0x32>
    100e:	88 27       	eor	r24, r24
    1010:	99 27       	eor	r25, r25
    1012:	dc 01       	movw	r26, r24
    1014:	8c 19       	sub	r24, r12
    1016:	9d 09       	sbc	r25, r13
    1018:	ae 09       	sbc	r26, r14
    101a:	bf 09       	sbc	r27, r15
    101c:	bc 01       	movw	r22, r24
    101e:	cd 01       	movw	r24, r26
    1020:	10 e0       	ldi	r17, 0x00	; 0
    1022:	0f 2e       	mov	r0, r31
    1024:	fa e0       	ldi	r31, 0x0A	; 10
    1026:	8f 2e       	mov	r8, r31
    1028:	91 2c       	mov	r9, r1
    102a:	a1 2c       	mov	r10, r1
    102c:	b1 2c       	mov	r11, r1
    102e:	f0 2d       	mov	r31, r0
    1030:	01 c0       	rjmp	.+2      	; 0x1034 <FUNCi32toa+0x4a>
    1032:	10 2f       	mov	r17, r16
    1034:	01 e0       	ldi	r16, 0x01	; 1
    1036:	01 0f       	add	r16, r17
    1038:	c1 2f       	mov	r28, r17
    103a:	d0 e0       	ldi	r29, 0x00	; 0
    103c:	cd 50       	subi	r28, 0x0D	; 13
    103e:	dd 4f       	sbci	r29, 0xFD	; 253
    1040:	a5 01       	movw	r20, r10
    1042:	94 01       	movw	r18, r8
    1044:	0e 94 89 16 	call	0x2d12	; 0x2d12 <__divmodsi4>
    1048:	60 5d       	subi	r22, 0xD0	; 208
    104a:	68 83       	st	Y, r22
    104c:	62 2f       	mov	r22, r18
    104e:	73 2f       	mov	r23, r19
    1050:	84 2f       	mov	r24, r20
    1052:	95 2f       	mov	r25, r21
    1054:	16 16       	cp	r1, r22
    1056:	17 06       	cpc	r1, r23
    1058:	18 06       	cpc	r1, r24
    105a:	19 06       	cpc	r1, r25
    105c:	54 f3       	brlt	.-44     	; 0x1032 <FUNCi32toa+0x48>
    105e:	ff 20       	and	r15, r15
    1060:	44 f4       	brge	.+16     	; 0x1072 <FUNCi32toa+0x88>
    1062:	e0 2f       	mov	r30, r16
    1064:	f0 e0       	ldi	r31, 0x00	; 0
    1066:	ed 50       	subi	r30, 0x0D	; 13
    1068:	fd 4f       	sbci	r31, 0xFD	; 253
    106a:	8d e2       	ldi	r24, 0x2D	; 45
    106c:	80 83       	st	Z, r24
    106e:	02 e0       	ldi	r16, 0x02	; 2
    1070:	01 0f       	add	r16, r17
    1072:	e0 2f       	mov	r30, r16
    1074:	f0 e0       	ldi	r31, 0x00	; 0
    1076:	ed 50       	subi	r30, 0x0D	; 13
    1078:	fd 4f       	sbci	r31, 0xFD	; 253
    107a:	10 82       	st	Z, r1
    107c:	83 ef       	ldi	r24, 0xF3	; 243
    107e:	92 e0       	ldi	r25, 0x02	; 2
    1080:	97 df       	rcall	.-210    	; 0xfb0 <Reverse>
    1082:	83 ef       	ldi	r24, 0xF3	; 243
    1084:	92 e0       	ldi	r25, 0x02	; 2
    1086:	df 91       	pop	r29
    1088:	cf 91       	pop	r28
    108a:	1f 91       	pop	r17
    108c:	0f 91       	pop	r16
    108e:	ff 90       	pop	r15
    1090:	ef 90       	pop	r14
    1092:	df 90       	pop	r13
    1094:	cf 90       	pop	r12
    1096:	bf 90       	pop	r11
    1098:	af 90       	pop	r10
    109a:	9f 90       	pop	r9
    109c:	8f 90       	pop	r8
    109e:	08 95       	ret

000010a0 <FUNCi16toa>:
    10a0:	0f 93       	push	r16
    10a2:	1f 93       	push	r17
    10a4:	cf 93       	push	r28
    10a6:	df 93       	push	r29
    10a8:	ec 01       	movw	r28, r24
    10aa:	99 23       	and	r25, r25
    10ac:	24 f4       	brge	.+8      	; 0x10b6 <FUNCi16toa+0x16>
    10ae:	88 27       	eor	r24, r24
    10b0:	99 27       	eor	r25, r25
    10b2:	8c 1b       	sub	r24, r28
    10b4:	9d 0b       	sbc	r25, r29
    10b6:	20 e0       	ldi	r18, 0x00	; 0
    10b8:	0a e0       	ldi	r16, 0x0A	; 10
    10ba:	10 e0       	ldi	r17, 0x00	; 0
    10bc:	01 c0       	rjmp	.+2      	; 0x10c0 <FUNCi16toa+0x20>
    10be:	23 2f       	mov	r18, r19
    10c0:	31 e0       	ldi	r19, 0x01	; 1
    10c2:	32 0f       	add	r19, r18
    10c4:	e2 2f       	mov	r30, r18
    10c6:	f0 e0       	ldi	r31, 0x00	; 0
    10c8:	ed 50       	subi	r30, 0x0D	; 13
    10ca:	fd 4f       	sbci	r31, 0xFD	; 253
    10cc:	b8 01       	movw	r22, r16
    10ce:	0e 94 54 16 	call	0x2ca8	; 0x2ca8 <__divmodhi4>
    10d2:	80 5d       	subi	r24, 0xD0	; 208
    10d4:	80 83       	st	Z, r24
    10d6:	86 2f       	mov	r24, r22
    10d8:	97 2f       	mov	r25, r23
    10da:	18 16       	cp	r1, r24
    10dc:	19 06       	cpc	r1, r25
    10de:	7c f3       	brlt	.-34     	; 0x10be <FUNCi16toa+0x1e>
    10e0:	dd 23       	and	r29, r29
    10e2:	44 f4       	brge	.+16     	; 0x10f4 <FUNCi16toa+0x54>
    10e4:	e3 2f       	mov	r30, r19
    10e6:	f0 e0       	ldi	r31, 0x00	; 0
    10e8:	ed 50       	subi	r30, 0x0D	; 13
    10ea:	fd 4f       	sbci	r31, 0xFD	; 253
    10ec:	8d e2       	ldi	r24, 0x2D	; 45
    10ee:	80 83       	st	Z, r24
    10f0:	32 e0       	ldi	r19, 0x02	; 2
    10f2:	32 0f       	add	r19, r18
    10f4:	e3 2f       	mov	r30, r19
    10f6:	f0 e0       	ldi	r31, 0x00	; 0
    10f8:	ed 50       	subi	r30, 0x0D	; 13
    10fa:	fd 4f       	sbci	r31, 0xFD	; 253
    10fc:	10 82       	st	Z, r1
    10fe:	83 ef       	ldi	r24, 0xF3	; 243
    1100:	92 e0       	ldi	r25, 0x02	; 2
    1102:	56 df       	rcall	.-340    	; 0xfb0 <Reverse>
    1104:	83 ef       	ldi	r24, 0xF3	; 243
    1106:	92 e0       	ldi	r25, 0x02	; 2
    1108:	df 91       	pop	r29
    110a:	cf 91       	pop	r28
    110c:	1f 91       	pop	r17
    110e:	0f 91       	pop	r16
    1110:	08 95       	ret

00001112 <FUNCui16toa>:
    1112:	cf 93       	push	r28
    1114:	ac 01       	movw	r20, r24
    1116:	e0 e0       	ldi	r30, 0x00	; 0
    1118:	c1 e0       	ldi	r28, 0x01	; 1
    111a:	ce 0f       	add	r28, r30
    111c:	f0 e0       	ldi	r31, 0x00	; 0
    111e:	ed 50       	subi	r30, 0x0D	; 13
    1120:	fd 4f       	sbci	r31, 0xFD	; 253
    1122:	9a 01       	movw	r18, r20
    1124:	ad ec       	ldi	r26, 0xCD	; 205
    1126:	bc ec       	ldi	r27, 0xCC	; 204
    1128:	0e 94 ae 16 	call	0x2d5c	; 0x2d5c <__umulhisi3>
    112c:	96 95       	lsr	r25
    112e:	87 95       	ror	r24
    1130:	96 95       	lsr	r25
    1132:	87 95       	ror	r24
    1134:	96 95       	lsr	r25
    1136:	87 95       	ror	r24
    1138:	9c 01       	movw	r18, r24
    113a:	22 0f       	add	r18, r18
    113c:	33 1f       	adc	r19, r19
    113e:	88 0f       	add	r24, r24
    1140:	99 1f       	adc	r25, r25
    1142:	88 0f       	add	r24, r24
    1144:	99 1f       	adc	r25, r25
    1146:	88 0f       	add	r24, r24
    1148:	99 1f       	adc	r25, r25
    114a:	82 0f       	add	r24, r18
    114c:	93 1f       	adc	r25, r19
    114e:	9a 01       	movw	r18, r20
    1150:	28 1b       	sub	r18, r24
    1152:	39 0b       	sbc	r19, r25
    1154:	c9 01       	movw	r24, r18
    1156:	80 5d       	subi	r24, 0xD0	; 208
    1158:	80 83       	st	Z, r24
    115a:	9a 01       	movw	r18, r20
    115c:	0e 94 ae 16 	call	0x2d5c	; 0x2d5c <__umulhisi3>
    1160:	ac 01       	movw	r20, r24
    1162:	56 95       	lsr	r21
    1164:	47 95       	ror	r20
    1166:	56 95       	lsr	r21
    1168:	47 95       	ror	r20
    116a:	56 95       	lsr	r21
    116c:	47 95       	ror	r20
    116e:	ec 2f       	mov	r30, r28
    1170:	41 15       	cp	r20, r1
    1172:	51 05       	cpc	r21, r1
    1174:	89 f6       	brne	.-94     	; 0x1118 <FUNCui16toa+0x6>
    1176:	ec 2f       	mov	r30, r28
    1178:	f0 e0       	ldi	r31, 0x00	; 0
    117a:	ed 50       	subi	r30, 0x0D	; 13
    117c:	fd 4f       	sbci	r31, 0xFD	; 253
    117e:	10 82       	st	Z, r1
    1180:	83 ef       	ldi	r24, 0xF3	; 243
    1182:	92 e0       	ldi	r25, 0x02	; 2
    1184:	15 df       	rcall	.-470    	; 0xfb0 <Reverse>
    1186:	83 ef       	ldi	r24, 0xF3	; 243
    1188:	92 e0       	ldi	r25, 0x02	; 2
    118a:	cf 91       	pop	r28
    118c:	08 95       	ret

0000118e <FUNCbcd2bin>:
    118e:	98 2f       	mov	r25, r24
    1190:	92 95       	swap	r25
    1192:	9f 70       	andi	r25, 0x0F	; 15
    1194:	99 0f       	add	r25, r25
    1196:	29 2f       	mov	r18, r25
    1198:	22 0f       	add	r18, r18
    119a:	22 0f       	add	r18, r18
    119c:	92 0f       	add	r25, r18
    119e:	8f 70       	andi	r24, 0x0F	; 15
    11a0:	89 0f       	add	r24, r25
    11a2:	08 95       	ret

000011a4 <FUNCbin2bcd>:
    11a4:	ac 01       	movw	r20, r24
    11a6:	9c 01       	movw	r18, r24
    11a8:	ad ec       	ldi	r26, 0xCD	; 205
    11aa:	bc ec       	ldi	r27, 0xCC	; 204
    11ac:	0e 94 ae 16 	call	0x2d5c	; 0x2d5c <__umulhisi3>
    11b0:	96 95       	lsr	r25
    11b2:	87 95       	ror	r24
    11b4:	96 95       	lsr	r25
    11b6:	87 95       	ror	r24
    11b8:	96 95       	lsr	r25
    11ba:	87 95       	ror	r24
    11bc:	bc 01       	movw	r22, r24
    11be:	66 0f       	add	r22, r22
    11c0:	77 1f       	adc	r23, r23
    11c2:	9c 01       	movw	r18, r24
    11c4:	22 0f       	add	r18, r18
    11c6:	33 1f       	adc	r19, r19
    11c8:	22 0f       	add	r18, r18
    11ca:	33 1f       	adc	r19, r19
    11cc:	22 0f       	add	r18, r18
    11ce:	33 1f       	adc	r19, r19
    11d0:	26 0f       	add	r18, r22
    11d2:	37 1f       	adc	r19, r23
    11d4:	42 1b       	sub	r20, r18
    11d6:	53 0b       	sbc	r21, r19
    11d8:	34 2f       	mov	r19, r20
    11da:	20 e1       	ldi	r18, 0x10	; 16
    11dc:	82 9f       	mul	r24, r18
    11de:	30 0d       	add	r19, r0
    11e0:	11 24       	eor	r1, r1
    11e2:	83 2f       	mov	r24, r19
    11e4:	08 95       	ret

000011e6 <FUNCgcd1>:
    11e6:	cf 92       	push	r12
    11e8:	df 92       	push	r13
    11ea:	ef 92       	push	r14
    11ec:	ff 92       	push	r15
    11ee:	cf 93       	push	r28
    11f0:	df 93       	push	r29
    11f2:	cd b7       	in	r28, 0x3d	; 61
    11f4:	de b7       	in	r29, 0x3e	; 62
    11f6:	28 97       	sbiw	r28, 0x08	; 8
    11f8:	0f b6       	in	r0, 0x3f	; 63
    11fa:	f8 94       	cli
    11fc:	de bf       	out	0x3e, r29	; 62
    11fe:	0f be       	out	0x3f, r0	; 63
    1200:	cd bf       	out	0x3d, r28	; 61
    1202:	6b 01       	movw	r12, r22
    1204:	7c 01       	movw	r14, r24
    1206:	69 83       	std	Y+1, r22	; 0x01
    1208:	7a 83       	std	Y+2, r23	; 0x02
    120a:	8b 83       	std	Y+3, r24	; 0x03
    120c:	9c 83       	std	Y+4, r25	; 0x04
    120e:	2d 83       	std	Y+5, r18	; 0x05
    1210:	3e 83       	std	Y+6, r19	; 0x06
    1212:	4f 83       	std	Y+7, r20	; 0x07
    1214:	58 87       	std	Y+8, r21	; 0x08
    1216:	c2 16       	cp	r12, r18
    1218:	d3 06       	cpc	r13, r19
    121a:	e4 06       	cpc	r14, r20
    121c:	f5 06       	cpc	r15, r21
    121e:	34 f4       	brge	.+12     	; 0x122c <FUNCgcd1+0x46>
    1220:	be 01       	movw	r22, r28
    1222:	6b 5f       	subi	r22, 0xFB	; 251
    1224:	7f 4f       	sbci	r23, 0xFF	; 255
    1226:	ce 01       	movw	r24, r28
    1228:	01 96       	adiw	r24, 0x01	; 1
    122a:	85 dc       	rcall	.-1782   	; 0xb36 <FUNCswap>
    122c:	8d 81       	ldd	r24, Y+5	; 0x05
    122e:	9e 81       	ldd	r25, Y+6	; 0x06
    1230:	af 81       	ldd	r26, Y+7	; 0x07
    1232:	b8 85       	ldd	r27, Y+8	; 0x08
    1234:	89 2b       	or	r24, r25
    1236:	8a 2b       	or	r24, r26
    1238:	8b 2b       	or	r24, r27
    123a:	71 f4       	brne	.+28     	; 0x1258 <FUNCgcd1+0x72>
    123c:	69 81       	ldd	r22, Y+1	; 0x01
    123e:	7a 81       	ldd	r23, Y+2	; 0x02
    1240:	8b 81       	ldd	r24, Y+3	; 0x03
    1242:	9c 81       	ldd	r25, Y+4	; 0x04
    1244:	20 e0       	ldi	r18, 0x00	; 0
    1246:	30 e0       	ldi	r19, 0x00	; 0
    1248:	a9 01       	movw	r20, r18
    124a:	0e 94 89 16 	call	0x2d12	; 0x2d12 <__divmodsi4>
    124e:	61 15       	cp	r22, r1
    1250:	71 05       	cpc	r23, r1
    1252:	81 05       	cpc	r24, r1
    1254:	91 05       	cpc	r25, r1
    1256:	29 f4       	brne	.+10     	; 0x1262 <FUNCgcd1+0x7c>
    1258:	6d 81       	ldd	r22, Y+5	; 0x05
    125a:	7e 81       	ldd	r23, Y+6	; 0x06
    125c:	8f 81       	ldd	r24, Y+7	; 0x07
    125e:	98 85       	ldd	r25, Y+8	; 0x08
    1260:	05 c0       	rjmp	.+10     	; 0x126c <FUNCgcd1+0x86>
    1262:	6d 83       	std	Y+5, r22	; 0x05
    1264:	7e 83       	std	Y+6, r23	; 0x06
    1266:	8f 83       	std	Y+7, r24	; 0x07
    1268:	98 87       	std	Y+8, r25	; 0x08
    126a:	f6 cf       	rjmp	.-20     	; 0x1258 <FUNCgcd1+0x72>
    126c:	28 96       	adiw	r28, 0x08	; 8
    126e:	0f b6       	in	r0, 0x3f	; 63
    1270:	f8 94       	cli
    1272:	de bf       	out	0x3e, r29	; 62
    1274:	0f be       	out	0x3f, r0	; 63
    1276:	cd bf       	out	0x3d, r28	; 61
    1278:	df 91       	pop	r29
    127a:	cf 91       	pop	r28
    127c:	ff 90       	pop	r15
    127e:	ef 90       	pop	r14
    1280:	df 90       	pop	r13
    1282:	cf 90       	pop	r12
    1284:	08 95       	ret

00001286 <FUNCpincheck>:
    1286:	90 e0       	ldi	r25, 0x00	; 0
    1288:	02 c0       	rjmp	.+4      	; 0x128e <FUNCpincheck+0x8>
    128a:	95 95       	asr	r25
    128c:	87 95       	ror	r24
    128e:	6a 95       	dec	r22
    1290:	e2 f7       	brpl	.-8      	; 0x128a <FUNCpincheck+0x4>
    1292:	81 70       	andi	r24, 0x01	; 1
    1294:	08 95       	ret

00001296 <FUNCprint_binary>:
    1296:	e3 ef       	ldi	r30, 0xF3	; 243
    1298:	f2 e0       	ldi	r31, 0x02	; 2
    129a:	90 e0       	ldi	r25, 0x00	; 0
    129c:	20 e8       	ldi	r18, 0x80	; 128
    129e:	50 e3       	ldi	r21, 0x30	; 48
    12a0:	41 e3       	ldi	r20, 0x31	; 49
    12a2:	38 2f       	mov	r19, r24
    12a4:	32 23       	and	r19, r18
    12a6:	11 f0       	breq	.+4      	; 0x12ac <FUNCprint_binary+0x16>
    12a8:	40 83       	st	Z, r20
    12aa:	01 c0       	rjmp	.+2      	; 0x12ae <FUNCprint_binary+0x18>
    12ac:	50 83       	st	Z, r21
    12ae:	26 95       	lsr	r18
    12b0:	9f 5f       	subi	r25, 0xFF	; 255
    12b2:	31 96       	adiw	r30, 0x01	; 1
    12b4:	98 30       	cpi	r25, 0x08	; 8
    12b6:	a9 f7       	brne	.-22     	; 0x12a2 <FUNCprint_binary+0xc>
    12b8:	10 92 fb 02 	sts	0x02FB, r1	; 0x8002fb <FUNCstr+0x8>
    12bc:	83 ef       	ldi	r24, 0xF3	; 243
    12be:	92 e0       	ldi	r25, 0x02	; 2
    12c0:	08 95       	ret

000012c2 <FUNCmayia>:
    12c2:	a4 2f       	mov	r26, r20
    12c4:	b0 e0       	ldi	r27, 0x00	; 0
    12c6:	10 97       	sbiw	r26, 0x00	; 0
    12c8:	61 f0       	breq	.+24     	; 0x12e2 <FUNCmayia+0x20>
    12ca:	21 e0       	ldi	r18, 0x01	; 1
    12cc:	30 e0       	ldi	r19, 0x00	; 0
    12ce:	e1 e0       	ldi	r30, 0x01	; 1
    12d0:	f0 e0       	ldi	r31, 0x00	; 0
    12d2:	ee 0f       	add	r30, r30
    12d4:	ff 1f       	adc	r31, r31
    12d6:	2f 5f       	subi	r18, 0xFF	; 255
    12d8:	3f 4f       	sbci	r19, 0xFF	; 255
    12da:	a2 17       	cp	r26, r18
    12dc:	b3 07       	cpc	r27, r19
    12de:	c8 f7       	brcc	.-14     	; 0x12d2 <FUNCmayia+0x10>
    12e0:	02 c0       	rjmp	.+4      	; 0x12e6 <FUNCmayia+0x24>
    12e2:	e1 e0       	ldi	r30, 0x01	; 1
    12e4:	f0 e0       	ldi	r31, 0x00	; 0
    12e6:	31 97       	sbiw	r30, 0x01	; 1
    12e8:	6e 23       	and	r22, r30
    12ea:	7f 23       	and	r23, r31
    12ec:	8e 23       	and	r24, r30
    12ee:	9f 23       	and	r25, r31
    12f0:	86 27       	eor	r24, r22
    12f2:	97 27       	eor	r25, r23
    12f4:	68 23       	and	r22, r24
    12f6:	79 23       	and	r23, r25
    12f8:	02 c0       	rjmp	.+4      	; 0x12fe <FUNCmayia+0x3c>
    12fa:	66 0f       	add	r22, r22
    12fc:	77 1f       	adc	r23, r23
    12fe:	4a 95       	dec	r20
    1300:	e2 f7       	brpl	.-8      	; 0x12fa <FUNCmayia+0x38>
    1302:	86 2b       	or	r24, r22
    1304:	97 2b       	or	r25, r23
    1306:	08 95       	ret

00001308 <FUNCenable>:
    1308:	fc 01       	movw	r30, r24
    130a:	9f b7       	in	r25, 0x3f	; 63
    130c:	8f b7       	in	r24, 0x3f	; 63
    130e:	8f 77       	andi	r24, 0x7F	; 127
    1310:	8f bf       	out	0x3f, r24	; 63
    1312:	9f bf       	out	0x3f, r25	; 63
    1314:	83 e9       	ldi	r24, 0x93	; 147
    1316:	97 e0       	ldi	r25, 0x07	; 7
    1318:	91 83       	std	Z+1, r25	; 0x01
    131a:	80 83       	st	Z, r24
    131c:	8e ea       	ldi	r24, 0xAE	; 174
    131e:	97 e0       	ldi	r25, 0x07	; 7
    1320:	93 83       	std	Z+3, r25	; 0x03
    1322:	82 83       	std	Z+2, r24	; 0x02
    1324:	88 ed       	ldi	r24, 0xD8	; 216
    1326:	97 e0       	ldi	r25, 0x07	; 7
    1328:	95 83       	std	Z+5, r25	; 0x05
    132a:	84 83       	std	Z+4, r24	; 0x04
    132c:	81 e6       	ldi	r24, 0x61	; 97
    132e:	99 e0       	ldi	r25, 0x09	; 9
    1330:	97 83       	std	Z+7, r25	; 0x07
    1332:	86 83       	std	Z+6, r24	; 0x06
    1334:	80 e8       	ldi	r24, 0x80	; 128
    1336:	95 e0       	ldi	r25, 0x05	; 5
    1338:	91 87       	std	Z+9, r25	; 0x09
    133a:	80 87       	std	Z+8, r24	; 0x08
    133c:	8e e8       	ldi	r24, 0x8E	; 142
    133e:	95 e0       	ldi	r25, 0x05	; 5
    1340:	93 87       	std	Z+11, r25	; 0x0b
    1342:	82 87       	std	Z+10, r24	; 0x0a
    1344:	80 e9       	ldi	r24, 0x90	; 144
    1346:	95 e0       	ldi	r25, 0x05	; 5
    1348:	95 87       	std	Z+13, r25	; 0x0d
    134a:	84 87       	std	Z+12, r24	; 0x0c
    134c:	83 e9       	ldi	r24, 0x93	; 147
    134e:	95 e0       	ldi	r25, 0x05	; 5
    1350:	97 87       	std	Z+15, r25	; 0x0f
    1352:	86 87       	std	Z+14, r24	; 0x0e
    1354:	86 e9       	ldi	r24, 0x96	; 150
    1356:	95 e0       	ldi	r25, 0x05	; 5
    1358:	91 8b       	std	Z+17, r25	; 0x11
    135a:	80 8b       	std	Z+16, r24	; 0x10
    135c:	89 e9       	ldi	r24, 0x99	; 153
    135e:	95 e0       	ldi	r25, 0x05	; 5
    1360:	93 8b       	std	Z+19, r25	; 0x13
    1362:	82 8b       	std	Z+18, r24	; 0x12
    1364:	8a e8       	ldi	r24, 0x8A	; 138
    1366:	95 e0       	ldi	r25, 0x05	; 5
    1368:	95 8b       	std	Z+21, r25	; 0x15
    136a:	84 8b       	std	Z+20, r24	; 0x14
    136c:	8c e8       	ldi	r24, 0x8C	; 140
    136e:	95 e0       	ldi	r25, 0x05	; 5
    1370:	97 8b       	std	Z+23, r25	; 0x17
    1372:	86 8b       	std	Z+22, r24	; 0x16
    1374:	8b e9       	ldi	r24, 0x9B	; 155
    1376:	95 e0       	ldi	r25, 0x05	; 5
    1378:	91 8f       	std	Z+25, r25	; 0x19
    137a:	80 8f       	std	Z+24, r24	; 0x18
    137c:	8c eb       	ldi	r24, 0xBC	; 188
    137e:	95 e0       	ldi	r25, 0x05	; 5
    1380:	93 8f       	std	Z+27, r25	; 0x1b
    1382:	82 8f       	std	Z+26, r24	; 0x1a
    1384:	8a ec       	ldi	r24, 0xCA	; 202
    1386:	95 e0       	ldi	r25, 0x05	; 5
    1388:	95 8f       	std	Z+29, r25	; 0x1d
    138a:	84 8f       	std	Z+28, r24	; 0x1c
    138c:	8c ee       	ldi	r24, 0xEC	; 236
    138e:	95 e0       	ldi	r25, 0x05	; 5
    1390:	97 8f       	std	Z+31, r25	; 0x1f
    1392:	86 8f       	std	Z+30, r24	; 0x1e
    1394:	80 e5       	ldi	r24, 0x50	; 80
    1396:	98 e0       	ldi	r25, 0x08	; 8
    1398:	91 a3       	std	Z+33, r25	; 0x21
    139a:	80 a3       	std	Z+32, r24	; 0x20
    139c:	89 e8       	ldi	r24, 0x89	; 137
    139e:	98 e0       	ldi	r25, 0x08	; 8
    13a0:	93 a3       	std	Z+35, r25	; 0x23
    13a2:	82 a3       	std	Z+34, r24	; 0x22
    13a4:	85 ef       	ldi	r24, 0xF5	; 245
    13a6:	97 e0       	ldi	r25, 0x07	; 7
    13a8:	95 a3       	std	Z+37, r25	; 0x25
    13aa:	84 a3       	std	Z+36, r24	; 0x24
    13ac:	8d eb       	ldi	r24, 0xBD	; 189
    13ae:	97 e0       	ldi	r25, 0x07	; 7
    13b0:	97 a3       	std	Z+39, r25	; 0x27
    13b2:	86 a3       	std	Z+38, r24	; 0x26
    13b4:	82 e9       	ldi	r24, 0x92	; 146
    13b6:	96 e0       	ldi	r25, 0x06	; 6
    13b8:	91 a7       	std	Z+41, r25	; 0x29
    13ba:	80 a7       	std	Z+40, r24	; 0x28
    13bc:	87 e9       	ldi	r24, 0x97	; 151
    13be:	96 e0       	ldi	r25, 0x06	; 6
    13c0:	93 a7       	std	Z+43, r25	; 0x2b
    13c2:	82 a7       	std	Z+42, r24	; 0x2a
    13c4:	86 ea       	ldi	r24, 0xA6	; 166
    13c6:	96 e0       	ldi	r25, 0x06	; 6
    13c8:	95 a7       	std	Z+45, r25	; 0x2d
    13ca:	84 a7       	std	Z+44, r24	; 0x2c
    13cc:	8a ec       	ldi	r24, 0xCA	; 202
    13ce:	96 e0       	ldi	r25, 0x06	; 6
    13d0:	97 a7       	std	Z+47, r25	; 0x2f
    13d2:	86 a7       	std	Z+46, r24	; 0x2e
    13d4:	8c ec       	ldi	r24, 0xCC	; 204
    13d6:	96 e0       	ldi	r25, 0x06	; 6
    13d8:	91 ab       	std	Z+49, r25	; 0x31
    13da:	80 ab       	std	Z+48, r24	; 0x30
    13dc:	86 ed       	ldi	r24, 0xD6	; 214
    13de:	96 e0       	ldi	r25, 0x06	; 6
    13e0:	93 ab       	std	Z+51, r25	; 0x33
    13e2:	82 ab       	std	Z+50, r24	; 0x32
    13e4:	83 ee       	ldi	r24, 0xE3	; 227
    13e6:	96 e0       	ldi	r25, 0x06	; 6
    13e8:	95 ab       	std	Z+53, r25	; 0x35
    13ea:	84 ab       	std	Z+52, r24	; 0x34
    13ec:	8f ee       	ldi	r24, 0xEF	; 239
    13ee:	96 e0       	ldi	r25, 0x06	; 6
    13f0:	97 ab       	std	Z+55, r25	; 0x37
    13f2:	86 ab       	std	Z+54, r24	; 0x36
    13f4:	87 e0       	ldi	r24, 0x07	; 7
    13f6:	97 e0       	ldi	r25, 0x07	; 7
    13f8:	91 af       	std	Z+57, r25	; 0x39
    13fa:	80 af       	std	Z+56, r24	; 0x38
    13fc:	8a e1       	ldi	r24, 0x1A	; 26
    13fe:	97 e0       	ldi	r25, 0x07	; 7
    1400:	93 af       	std	Z+59, r25	; 0x3b
    1402:	82 af       	std	Z+58, r24	; 0x3a
    1404:	85 e2       	ldi	r24, 0x25	; 37
    1406:	97 e0       	ldi	r25, 0x07	; 7
    1408:	95 af       	std	Z+61, r25	; 0x3d
    140a:	84 af       	std	Z+60, r24	; 0x3c
    140c:	82 e5       	ldi	r24, 0x52	; 82
    140e:	97 e0       	ldi	r25, 0x07	; 7
    1410:	97 af       	std	Z+63, r25	; 0x3f
    1412:	86 af       	std	Z+62, r24	; 0x3e
    1414:	df 01       	movw	r26, r30
    1416:	a0 5c       	subi	r26, 0xC0	; 192
    1418:	bf 4f       	sbci	r27, 0xFF	; 255
    141a:	87 ec       	ldi	r24, 0xC7	; 199
    141c:	98 e0       	ldi	r25, 0x08	; 8
    141e:	11 96       	adiw	r26, 0x01	; 1
    1420:	9c 93       	st	X, r25
    1422:	8e 93       	st	-X, r24
    1424:	12 96       	adiw	r26, 0x02	; 2
    1426:	82 ed       	ldi	r24, 0xD2	; 210
    1428:	98 e0       	ldi	r25, 0x08	; 8
    142a:	11 96       	adiw	r26, 0x01	; 1
    142c:	9c 93       	st	X, r25
    142e:	8e 93       	st	-X, r24
    1430:	12 96       	adiw	r26, 0x02	; 2
    1432:	83 ef       	ldi	r24, 0xF3	; 243
    1434:	98 e0       	ldi	r25, 0x08	; 8
    1436:	11 96       	adiw	r26, 0x01	; 1
    1438:	9c 93       	st	X, r25
    143a:	8e 93       	st	-X, r24
    143c:	12 96       	adiw	r26, 0x02	; 2
    143e:	83 e4       	ldi	r24, 0x43	; 67
    1440:	99 e0       	ldi	r25, 0x09	; 9
    1442:	11 96       	adiw	r26, 0x01	; 1
    1444:	9c 93       	st	X, r25
    1446:	8e 93       	st	-X, r24
    1448:	12 96       	adiw	r26, 0x02	; 2
    144a:	8b e4       	ldi	r24, 0x4B	; 75
    144c:	99 e0       	ldi	r25, 0x09	; 9
    144e:	11 96       	adiw	r26, 0x01	; 1
    1450:	9c 93       	st	X, r25
    1452:	8e 93       	st	-X, r24
    1454:	12 96       	adiw	r26, 0x02	; 2
    1456:	8b e8       	ldi	r24, 0x8B	; 139
    1458:	9a e0       	ldi	r25, 0x0A	; 10
    145a:	8d 93       	st	X+, r24
    145c:	9c 93       	st	X, r25
    145e:	cf 01       	movw	r24, r30
    1460:	08 95       	ret

00001462 <FUNCintinvstr>:
/***intinvstr***/
uint8_t FUNCintinvstr(int32_t n, char* res, uint8_t n_digit)
{
    1462:	8f 92       	push	r8
    1464:	9f 92       	push	r9
    1466:	af 92       	push	r10
    1468:	bf 92       	push	r11
    146a:	ef 92       	push	r14
    146c:	ff 92       	push	r15
    146e:	0f 93       	push	r16
    1470:	1f 93       	push	r17
    1472:	cf 93       	push	r28
    1474:	df 93       	push	r29
    1476:	8a 01       	movw	r16, r20
    1478:	d2 2f       	mov	r29, r18
	uint8_t k=0;
	for(res[k++] = (n % 10) + '0' ; (n/=10) > ZERO ; res[k++] = (n % 10) + '0');
    147a:	2a e0       	ldi	r18, 0x0A	; 10
    147c:	30 e0       	ldi	r19, 0x00	; 0
    147e:	40 e0       	ldi	r20, 0x00	; 0
    1480:	50 e0       	ldi	r21, 0x00	; 0
    1482:	0e 94 89 16 	call	0x2d12	; 0x2d12 <__divmodsi4>
    1486:	60 5d       	subi	r22, 0xD0	; 208
    1488:	f8 01       	movw	r30, r16
    148a:	60 83       	st	Z, r22
    148c:	62 2f       	mov	r22, r18
    148e:	73 2f       	mov	r23, r19
    1490:	84 2f       	mov	r24, r20
    1492:	95 2f       	mov	r25, r21
    1494:	16 16       	cp	r1, r22
    1496:	17 06       	cpc	r1, r23
    1498:	18 06       	cpc	r1, r24
    149a:	19 06       	cpc	r1, r25
    149c:	fc f4       	brge	.+62     	; 0x14dc <FUNCintinvstr+0x7a>
    149e:	21 e0       	ldi	r18, 0x01	; 1
    14a0:	0f 2e       	mov	r0, r31
    14a2:	fa e0       	ldi	r31, 0x0A	; 10
    14a4:	8f 2e       	mov	r8, r31
    14a6:	91 2c       	mov	r9, r1
    14a8:	a1 2c       	mov	r10, r1
    14aa:	b1 2c       	mov	r11, r1
    14ac:	f0 2d       	mov	r31, r0
    14ae:	c1 e0       	ldi	r28, 0x01	; 1
    14b0:	c2 0f       	add	r28, r18
    14b2:	78 01       	movw	r14, r16
    14b4:	e2 0e       	add	r14, r18
    14b6:	f1 1c       	adc	r15, r1
    14b8:	a5 01       	movw	r20, r10
    14ba:	94 01       	movw	r18, r8
    14bc:	0e 94 89 16 	call	0x2d12	; 0x2d12 <__divmodsi4>
    14c0:	60 5d       	subi	r22, 0xD0	; 208
    14c2:	f7 01       	movw	r30, r14
    14c4:	60 83       	st	Z, r22
    14c6:	62 2f       	mov	r22, r18
    14c8:	73 2f       	mov	r23, r19
    14ca:	84 2f       	mov	r24, r20
    14cc:	95 2f       	mov	r25, r21
    14ce:	2c 2f       	mov	r18, r28
    14d0:	16 16       	cp	r1, r22
    14d2:	17 06       	cpc	r1, r23
    14d4:	18 06       	cpc	r1, r24
    14d6:	19 06       	cpc	r1, r25
    14d8:	54 f3       	brlt	.-44     	; 0x14ae <FUNCintinvstr+0x4c>
    14da:	01 c0       	rjmp	.+2      	; 0x14de <FUNCintinvstr+0x7c>
    14dc:	c1 e0       	ldi	r28, 0x01	; 1
	for( ; k < n_digit ; res[k++] = '0');
    14de:	cd 17       	cp	r28, r29
    14e0:	48 f4       	brcc	.+18     	; 0x14f4 <FUNCintinvstr+0x92>
    14e2:	80 e3       	ldi	r24, 0x30	; 48
    14e4:	f8 01       	movw	r30, r16
    14e6:	ec 0f       	add	r30, r28
    14e8:	f1 1d       	adc	r31, r1
    14ea:	80 83       	st	Z, r24
    14ec:	cf 5f       	subi	r28, 0xFF	; 255
    14ee:	dc 13       	cpse	r29, r28
    14f0:	f9 cf       	rjmp	.-14     	; 0x14e4 <FUNCintinvstr+0x82>
    14f2:	01 c0       	rjmp	.+2      	; 0x14f6 <FUNCintinvstr+0x94>
    14f4:	dc 2f       	mov	r29, r28
	res[k]='\0';
    14f6:	f8 01       	movw	r30, r16
    14f8:	ed 0f       	add	r30, r29
    14fa:	f1 1d       	adc	r31, r1
    14fc:	10 82       	st	Z, r1
	return k;
}
    14fe:	8d 2f       	mov	r24, r29
    1500:	df 91       	pop	r29
    1502:	cf 91       	pop	r28
    1504:	1f 91       	pop	r17
    1506:	0f 91       	pop	r16
    1508:	ff 90       	pop	r15
    150a:	ef 90       	pop	r14
    150c:	bf 90       	pop	r11
    150e:	af 90       	pop	r10
    1510:	9f 90       	pop	r9
    1512:	8f 90       	pop	r8
    1514:	08 95       	ret

00001516 <FUNCftoa>:
/***ftoa***/
char* FUNCftoa(float n, char* res, uint8_t afterpoint)
{
    1516:	4f 92       	push	r4
    1518:	5f 92       	push	r5
    151a:	6f 92       	push	r6
    151c:	7f 92       	push	r7
    151e:	8f 92       	push	r8
    1520:	9f 92       	push	r9
    1522:	af 92       	push	r10
    1524:	bf 92       	push	r11
    1526:	cf 92       	push	r12
    1528:	df 92       	push	r13
    152a:	ef 92       	push	r14
    152c:	ff 92       	push	r15
    152e:	1f 93       	push	r17
    1530:	cf 93       	push	r28
    1532:	df 93       	push	r29
    1534:	6b 01       	movw	r12, r22
    1536:	7c 01       	movw	r14, r24
    1538:	ea 01       	movw	r28, r20
    153a:	12 2f       	mov	r17, r18
	uint8_t k=ZERO;
	int32_t ipart;
	float fpart;
	int8_t sign;
	if (n < ZERO){
    153c:	20 e0       	ldi	r18, 0x00	; 0
    153e:	30 e0       	ldi	r19, 0x00	; 0
    1540:	a9 01       	movw	r20, r18
    1542:	0e 94 16 13 	call	0x262c	; 0x262c <__cmpsf2>
    1546:	88 23       	and	r24, r24
    1548:	0c f0       	brlt	.+2      	; 0x154c <FUNCftoa+0x36>
    154a:	4c c0       	rjmp	.+152    	; 0x15e4 <FUNCftoa+0xce>
		n = -n;
    154c:	f7 fa       	bst	r15, 7
    154e:	f0 94       	com	r15
    1550:	f7 f8       	bld	r15, 7
    1552:	f0 94       	com	r15
		sign=-ONE;
	}else
		sign=ONE;
	ipart = (int32_t) n;
    1554:	c7 01       	movw	r24, r14
    1556:	b6 01       	movw	r22, r12
    1558:	0e 94 82 13 	call	0x2704	; 0x2704 <__fixsfsi>
    155c:	4b 01       	movw	r8, r22
    155e:	5c 01       	movw	r10, r24
	fpart = n - (float)ipart;
    1560:	0e 94 b5 13 	call	0x276a	; 0x276a <__floatsisf>
    1564:	9b 01       	movw	r18, r22
    1566:	ac 01       	movw	r20, r24
    1568:	c7 01       	movw	r24, r14
    156a:	b6 01       	movw	r22, r12
    156c:	fa d7       	rcall	.+4084   	; 0x2562 <__subsf3>
    156e:	2b 01       	movw	r4, r22
    1570:	3c 01       	movw	r6, r24
	k=FUNCintinvstr( ipart, res, ONE );
    1572:	21 e0       	ldi	r18, 0x01	; 1
    1574:	ae 01       	movw	r20, r28
    1576:	c5 01       	movw	r24, r10
    1578:	b4 01       	movw	r22, r8
    157a:	73 df       	rcall	.-282    	; 0x1462 <FUNCintinvstr>
	if (sign < ZERO)
		res[k++] = '-';
    157c:	ff 24       	eor	r15, r15
    157e:	f3 94       	inc	r15
    1580:	f8 0e       	add	r15, r24
    1582:	fe 01       	movw	r30, r28
    1584:	e8 0f       	add	r30, r24
    1586:	f1 1d       	adc	r31, r1
    1588:	8d e2       	ldi	r24, 0x2D	; 45
    158a:	80 83       	st	Z, r24
	else
		res[k++] = ' ';
	res[k]='\0';
    158c:	6e 01       	movw	r12, r28
    158e:	cf 0c       	add	r12, r15
    1590:	d1 1c       	adc	r13, r1
    1592:	f6 01       	movw	r30, r12
    1594:	10 82       	st	Z, r1
	Reverse(res);
    1596:	ce 01       	movw	r24, r28
    1598:	0b dd       	rcall	.-1514   	; 0xfb0 <Reverse>
	if (afterpoint > ZERO) {
    159a:	11 23       	and	r17, r17
    159c:	09 f4       	brne	.+2      	; 0x15a0 <FUNCftoa+0x8a>
    159e:	3f c0       	rjmp	.+126    	; 0x161e <FUNCftoa+0x108>
		res[k++] = '.';
    15a0:	8e e2       	ldi	r24, 0x2E	; 46
    15a2:	f6 01       	movw	r30, r12
    15a4:	80 83       	st	Z, r24
		FUNCintinvstr( fpart * pow(10, afterpoint), res+k, afterpoint );
    15a6:	f3 94       	inc	r15
    15a8:	ce 01       	movw	r24, r28
    15aa:	8f 0d       	add	r24, r15
    15ac:	91 1d       	adc	r25, r1
    15ae:	7c 01       	movw	r14, r24
    15b0:	61 2f       	mov	r22, r17
    15b2:	70 e0       	ldi	r23, 0x00	; 0
    15b4:	80 e0       	ldi	r24, 0x00	; 0
    15b6:	90 e0       	ldi	r25, 0x00	; 0
    15b8:	0e 94 b3 13 	call	0x2766	; 0x2766 <__floatunsisf>
    15bc:	9b 01       	movw	r18, r22
    15be:	ac 01       	movw	r20, r24
    15c0:	60 e0       	ldi	r22, 0x00	; 0
    15c2:	70 e0       	ldi	r23, 0x00	; 0
    15c4:	80 e2       	ldi	r24, 0x20	; 32
    15c6:	91 e4       	ldi	r25, 0x41	; 65
    15c8:	0e 94 cc 14 	call	0x2998	; 0x2998 <pow>
    15cc:	a3 01       	movw	r20, r6
    15ce:	92 01       	movw	r18, r4
    15d0:	0e 94 69 14 	call	0x28d2	; 0x28d2 <__mulsf3>
    15d4:	0e 94 82 13 	call	0x2704	; 0x2704 <__fixsfsi>
    15d8:	21 2f       	mov	r18, r17
    15da:	a7 01       	movw	r20, r14
		Reverse(res+k);
    15dc:	42 df       	rcall	.-380    	; 0x1462 <FUNCintinvstr>
    15de:	c7 01       	movw	r24, r14
    15e0:	e7 dc       	rcall	.-1586   	; 0xfb0 <Reverse>
	}	
	return res;
    15e2:	1d c0       	rjmp	.+58     	; 0x161e <FUNCftoa+0x108>
	if (n < ZERO){
		n = -n;
		sign=-ONE;
	}else
		sign=ONE;
	ipart = (int32_t) n;
    15e4:	c7 01       	movw	r24, r14
    15e6:	b6 01       	movw	r22, r12
    15e8:	0e 94 82 13 	call	0x2704	; 0x2704 <__fixsfsi>
    15ec:	4b 01       	movw	r8, r22
    15ee:	5c 01       	movw	r10, r24
	fpart = n - (float)ipart;
    15f0:	0e 94 b5 13 	call	0x276a	; 0x276a <__floatsisf>
    15f4:	9b 01       	movw	r18, r22
    15f6:	ac 01       	movw	r20, r24
    15f8:	c7 01       	movw	r24, r14
    15fa:	b6 01       	movw	r22, r12
    15fc:	b2 d7       	rcall	.+3940   	; 0x2562 <__subsf3>
    15fe:	2b 01       	movw	r4, r22
    1600:	3c 01       	movw	r6, r24
	k=FUNCintinvstr( ipart, res, ONE );
    1602:	21 e0       	ldi	r18, 0x01	; 1
    1604:	ae 01       	movw	r20, r28
    1606:	c5 01       	movw	r24, r10
    1608:	b4 01       	movw	r22, r8
    160a:	2b df       	rcall	.-426    	; 0x1462 <FUNCintinvstr>
    160c:	ff 24       	eor	r15, r15
	if (sign < ZERO)
		res[k++] = '-';
	else
		res[k++] = ' ';
    160e:	f3 94       	inc	r15
    1610:	f8 0e       	add	r15, r24
    1612:	fe 01       	movw	r30, r28
    1614:	e8 0f       	add	r30, r24
    1616:	f1 1d       	adc	r31, r1
    1618:	80 e2       	ldi	r24, 0x20	; 32
    161a:	80 83       	st	Z, r24
    161c:	b7 cf       	rjmp	.-146    	; 0x158c <FUNCftoa+0x76>
    161e:	ce 01       	movw	r24, r28
		res[k++] = '.';
		FUNCintinvstr( fpart * pow(10, afterpoint), res+k, afterpoint );
		Reverse(res+k);
	}	
	return res;
}
    1620:	df 91       	pop	r29
    1622:	cf 91       	pop	r28
    1624:	1f 91       	pop	r17
    1626:	ff 90       	pop	r15
    1628:	ef 90       	pop	r14
    162a:	df 90       	pop	r13
    162c:	cf 90       	pop	r12
    162e:	bf 90       	pop	r11
    1630:	af 90       	pop	r10
    1632:	9f 90       	pop	r9
    1634:	8f 90       	pop	r8
    1636:	7f 90       	pop	r7
    1638:	6f 90       	pop	r6
    163a:	5f 90       	pop	r5
    163c:	4f 90       	pop	r4
    163e:	08 95       	ret

00001640 <LCD0_write>:
    1640:	e0 91 1e 03 	lds	r30, 0x031E	; 0x80031e <lcd0_PORT>
	#else
		//round up by default
		__ticks_dc = (uint32_t)(ceil(fabs(__tmp)));
	#endif

	__builtin_avr_delay_cycles(__ticks_dc);
    1644:	f0 91 1f 03 	lds	r31, 0x031F	; 0x80031f <lcd0_PORT+0x1>
    1648:	90 81       	ld	r25, Z
    164a:	9d 7f       	andi	r25, 0xFD	; 253
    164c:	90 83       	st	Z, r25
    164e:	67 2b       	or	r22, r23
    1650:	41 f0       	breq	.+16     	; 0x1662 <LCD0_write+0x22>
    1652:	e0 91 1e 03 	lds	r30, 0x031E	; 0x80031e <lcd0_PORT>
    1656:	f0 91 1f 03 	lds	r31, 0x031F	; 0x80031f <lcd0_PORT+0x1>
    165a:	90 81       	ld	r25, Z
    165c:	91 60       	ori	r25, 0x01	; 1
    165e:	90 83       	st	Z, r25
    1660:	07 c0       	rjmp	.+14     	; 0x1670 <LCD0_write+0x30>
    1662:	e0 91 1e 03 	lds	r30, 0x031E	; 0x80031e <lcd0_PORT>
    1666:	f0 91 1f 03 	lds	r31, 0x031F	; 0x80031f <lcd0_PORT+0x1>
    166a:	90 81       	ld	r25, Z
    166c:	9e 7f       	andi	r25, 0xFE	; 254
    166e:	90 83       	st	Z, r25
    1670:	e0 91 1b 03 	lds	r30, 0x031B	; 0x80031b <lcd0_DDR>
    1674:	f0 91 1c 03 	lds	r31, 0x031C	; 0x80031c <lcd0_DDR+0x1>
    1678:	90 81       	ld	r25, Z
    167a:	90 6f       	ori	r25, 0xF0	; 240
    167c:	90 83       	st	Z, r25
    167e:	e0 91 1e 03 	lds	r30, 0x031E	; 0x80031e <lcd0_PORT>
    1682:	f0 91 1f 03 	lds	r31, 0x031F	; 0x80031f <lcd0_PORT+0x1>
    1686:	90 81       	ld	r25, Z
    1688:	94 60       	ori	r25, 0x04	; 4
    168a:	90 83       	st	Z, r25
    168c:	88 23       	and	r24, r24
    168e:	44 f4       	brge	.+16     	; 0x16a0 <LCD0_write+0x60>
    1690:	e0 91 1e 03 	lds	r30, 0x031E	; 0x80031e <lcd0_PORT>
    1694:	f0 91 1f 03 	lds	r31, 0x031F	; 0x80031f <lcd0_PORT+0x1>
    1698:	90 81       	ld	r25, Z
    169a:	90 68       	ori	r25, 0x80	; 128
    169c:	90 83       	st	Z, r25
    169e:	07 c0       	rjmp	.+14     	; 0x16ae <LCD0_write+0x6e>
    16a0:	e0 91 1e 03 	lds	r30, 0x031E	; 0x80031e <lcd0_PORT>
    16a4:	f0 91 1f 03 	lds	r31, 0x031F	; 0x80031f <lcd0_PORT+0x1>
    16a8:	90 81       	ld	r25, Z
    16aa:	9f 77       	andi	r25, 0x7F	; 127
    16ac:	90 83       	st	Z, r25
    16ae:	86 ff       	sbrs	r24, 6
    16b0:	08 c0       	rjmp	.+16     	; 0x16c2 <LCD0_write+0x82>
    16b2:	e0 91 1e 03 	lds	r30, 0x031E	; 0x80031e <lcd0_PORT>
    16b6:	f0 91 1f 03 	lds	r31, 0x031F	; 0x80031f <lcd0_PORT+0x1>
    16ba:	90 81       	ld	r25, Z
    16bc:	90 64       	ori	r25, 0x40	; 64
    16be:	90 83       	st	Z, r25
    16c0:	07 c0       	rjmp	.+14     	; 0x16d0 <LCD0_write+0x90>
    16c2:	e0 91 1e 03 	lds	r30, 0x031E	; 0x80031e <lcd0_PORT>
    16c6:	f0 91 1f 03 	lds	r31, 0x031F	; 0x80031f <lcd0_PORT+0x1>
    16ca:	90 81       	ld	r25, Z
    16cc:	9f 7b       	andi	r25, 0xBF	; 191
    16ce:	90 83       	st	Z, r25
    16d0:	85 ff       	sbrs	r24, 5
    16d2:	08 c0       	rjmp	.+16     	; 0x16e4 <LCD0_write+0xa4>
    16d4:	e0 91 1e 03 	lds	r30, 0x031E	; 0x80031e <lcd0_PORT>
    16d8:	f0 91 1f 03 	lds	r31, 0x031F	; 0x80031f <lcd0_PORT+0x1>
    16dc:	90 81       	ld	r25, Z
    16de:	90 62       	ori	r25, 0x20	; 32
    16e0:	90 83       	st	Z, r25
    16e2:	07 c0       	rjmp	.+14     	; 0x16f2 <LCD0_write+0xb2>
    16e4:	e0 91 1e 03 	lds	r30, 0x031E	; 0x80031e <lcd0_PORT>
    16e8:	f0 91 1f 03 	lds	r31, 0x031F	; 0x80031f <lcd0_PORT+0x1>
    16ec:	90 81       	ld	r25, Z
    16ee:	9f 7d       	andi	r25, 0xDF	; 223
    16f0:	90 83       	st	Z, r25
    16f2:	84 ff       	sbrs	r24, 4
    16f4:	08 c0       	rjmp	.+16     	; 0x1706 <LCD0_write+0xc6>
    16f6:	e0 91 1e 03 	lds	r30, 0x031E	; 0x80031e <lcd0_PORT>
    16fa:	f0 91 1f 03 	lds	r31, 0x031F	; 0x80031f <lcd0_PORT+0x1>
    16fe:	90 81       	ld	r25, Z
    1700:	90 61       	ori	r25, 0x10	; 16
    1702:	90 83       	st	Z, r25
    1704:	07 c0       	rjmp	.+14     	; 0x1714 <LCD0_write+0xd4>
    1706:	e0 91 1e 03 	lds	r30, 0x031E	; 0x80031e <lcd0_PORT>
    170a:	f0 91 1f 03 	lds	r31, 0x031F	; 0x80031f <lcd0_PORT+0x1>
    170e:	90 81       	ld	r25, Z
    1710:	9f 7e       	andi	r25, 0xEF	; 239
    1712:	90 83       	st	Z, r25
    1714:	e0 91 1e 03 	lds	r30, 0x031E	; 0x80031e <lcd0_PORT>
    1718:	f0 91 1f 03 	lds	r31, 0x031F	; 0x80031f <lcd0_PORT+0x1>
    171c:	90 81       	ld	r25, Z
    171e:	9b 7f       	andi	r25, 0xFB	; 251
    1720:	90 83       	st	Z, r25
    1722:	e0 91 1e 03 	lds	r30, 0x031E	; 0x80031e <lcd0_PORT>
    1726:	f0 91 1f 03 	lds	r31, 0x031F	; 0x80031f <lcd0_PORT+0x1>
    172a:	90 81       	ld	r25, Z
    172c:	94 60       	ori	r25, 0x04	; 4
    172e:	90 83       	st	Z, r25
    1730:	83 ff       	sbrs	r24, 3
    1732:	08 c0       	rjmp	.+16     	; 0x1744 <LCD0_write+0x104>
    1734:	e0 91 1e 03 	lds	r30, 0x031E	; 0x80031e <lcd0_PORT>
    1738:	f0 91 1f 03 	lds	r31, 0x031F	; 0x80031f <lcd0_PORT+0x1>
    173c:	90 81       	ld	r25, Z
    173e:	90 68       	ori	r25, 0x80	; 128
    1740:	90 83       	st	Z, r25
    1742:	07 c0       	rjmp	.+14     	; 0x1752 <LCD0_write+0x112>
    1744:	e0 91 1e 03 	lds	r30, 0x031E	; 0x80031e <lcd0_PORT>
    1748:	f0 91 1f 03 	lds	r31, 0x031F	; 0x80031f <lcd0_PORT+0x1>
    174c:	90 81       	ld	r25, Z
    174e:	9f 77       	andi	r25, 0x7F	; 127
    1750:	90 83       	st	Z, r25
    1752:	82 ff       	sbrs	r24, 2
    1754:	08 c0       	rjmp	.+16     	; 0x1766 <LCD0_write+0x126>
    1756:	e0 91 1e 03 	lds	r30, 0x031E	; 0x80031e <lcd0_PORT>
    175a:	f0 91 1f 03 	lds	r31, 0x031F	; 0x80031f <lcd0_PORT+0x1>
    175e:	90 81       	ld	r25, Z
    1760:	90 64       	ori	r25, 0x40	; 64
    1762:	90 83       	st	Z, r25
    1764:	07 c0       	rjmp	.+14     	; 0x1774 <LCD0_write+0x134>
    1766:	e0 91 1e 03 	lds	r30, 0x031E	; 0x80031e <lcd0_PORT>
    176a:	f0 91 1f 03 	lds	r31, 0x031F	; 0x80031f <lcd0_PORT+0x1>
    176e:	90 81       	ld	r25, Z
    1770:	9f 7b       	andi	r25, 0xBF	; 191
    1772:	90 83       	st	Z, r25
    1774:	81 ff       	sbrs	r24, 1
    1776:	08 c0       	rjmp	.+16     	; 0x1788 <LCD0_write+0x148>
    1778:	e0 91 1e 03 	lds	r30, 0x031E	; 0x80031e <lcd0_PORT>
    177c:	f0 91 1f 03 	lds	r31, 0x031F	; 0x80031f <lcd0_PORT+0x1>
    1780:	90 81       	ld	r25, Z
    1782:	90 62       	ori	r25, 0x20	; 32
    1784:	90 83       	st	Z, r25
    1786:	07 c0       	rjmp	.+14     	; 0x1796 <LCD0_write+0x156>
    1788:	e0 91 1e 03 	lds	r30, 0x031E	; 0x80031e <lcd0_PORT>
    178c:	f0 91 1f 03 	lds	r31, 0x031F	; 0x80031f <lcd0_PORT+0x1>
    1790:	90 81       	ld	r25, Z
    1792:	9f 7d       	andi	r25, 0xDF	; 223
    1794:	90 83       	st	Z, r25
    1796:	80 ff       	sbrs	r24, 0
    1798:	08 c0       	rjmp	.+16     	; 0x17aa <LCD0_write+0x16a>
    179a:	e0 91 1e 03 	lds	r30, 0x031E	; 0x80031e <lcd0_PORT>
    179e:	f0 91 1f 03 	lds	r31, 0x031F	; 0x80031f <lcd0_PORT+0x1>
    17a2:	80 81       	ld	r24, Z
    17a4:	80 61       	ori	r24, 0x10	; 16
    17a6:	80 83       	st	Z, r24
    17a8:	07 c0       	rjmp	.+14     	; 0x17b8 <LCD0_write+0x178>
    17aa:	e0 91 1e 03 	lds	r30, 0x031E	; 0x80031e <lcd0_PORT>
    17ae:	f0 91 1f 03 	lds	r31, 0x031F	; 0x80031f <lcd0_PORT+0x1>
    17b2:	80 81       	ld	r24, Z
    17b4:	8f 7e       	andi	r24, 0xEF	; 239
    17b6:	80 83       	st	Z, r24
    17b8:	e0 91 1e 03 	lds	r30, 0x031E	; 0x80031e <lcd0_PORT>
    17bc:	f0 91 1f 03 	lds	r31, 0x031F	; 0x80031f <lcd0_PORT+0x1>
    17c0:	80 81       	ld	r24, Z
    17c2:	8b 7f       	andi	r24, 0xFB	; 251
    17c4:	80 83       	st	Z, r24
    17c6:	08 95       	ret

000017c8 <LCD0_read>:
    17c8:	e0 91 1b 03 	lds	r30, 0x031B	; 0x80031b <lcd0_DDR>
    17cc:	f0 91 1c 03 	lds	r31, 0x031C	; 0x80031c <lcd0_DDR+0x1>
    17d0:	20 81       	ld	r18, Z
    17d2:	2f 70       	andi	r18, 0x0F	; 15
    17d4:	20 83       	st	Z, r18
    17d6:	e0 91 1e 03 	lds	r30, 0x031E	; 0x80031e <lcd0_PORT>
    17da:	f0 91 1f 03 	lds	r31, 0x031F	; 0x80031f <lcd0_PORT+0x1>
    17de:	20 81       	ld	r18, Z
    17e0:	20 6f       	ori	r18, 0xF0	; 240
    17e2:	20 83       	st	Z, r18
    17e4:	e0 91 1e 03 	lds	r30, 0x031E	; 0x80031e <lcd0_PORT>
    17e8:	f0 91 1f 03 	lds	r31, 0x031F	; 0x80031f <lcd0_PORT+0x1>
    17ec:	20 81       	ld	r18, Z
    17ee:	22 60       	ori	r18, 0x02	; 2
    17f0:	20 83       	st	Z, r18
    17f2:	89 2b       	or	r24, r25
    17f4:	41 f0       	breq	.+16     	; 0x1806 <LCD0_read+0x3e>
    17f6:	e0 91 1e 03 	lds	r30, 0x031E	; 0x80031e <lcd0_PORT>
    17fa:	f0 91 1f 03 	lds	r31, 0x031F	; 0x80031f <lcd0_PORT+0x1>
    17fe:	80 81       	ld	r24, Z
    1800:	81 60       	ori	r24, 0x01	; 1
    1802:	80 83       	st	Z, r24
    1804:	07 c0       	rjmp	.+14     	; 0x1814 <LCD0_read+0x4c>
    1806:	e0 91 1e 03 	lds	r30, 0x031E	; 0x80031e <lcd0_PORT>
    180a:	f0 91 1f 03 	lds	r31, 0x031F	; 0x80031f <lcd0_PORT+0x1>
    180e:	80 81       	ld	r24, Z
    1810:	8e 7f       	andi	r24, 0xFE	; 254
    1812:	80 83       	st	Z, r24
    1814:	e0 91 1e 03 	lds	r30, 0x031E	; 0x80031e <lcd0_PORT>
    1818:	f0 91 1f 03 	lds	r31, 0x031F	; 0x80031f <lcd0_PORT+0x1>
    181c:	80 81       	ld	r24, Z
    181e:	84 60       	ori	r24, 0x04	; 4
    1820:	80 83       	st	Z, r24
    1822:	e0 91 14 03 	lds	r30, 0x0314	; 0x800314 <lcd0_PIN>
    1826:	f0 91 15 03 	lds	r31, 0x0315	; 0x800315 <lcd0_PIN+0x1>
    182a:	80 81       	ld	r24, Z
    182c:	88 23       	and	r24, r24
    182e:	14 f0       	brlt	.+4      	; 0x1834 <LCD0_read+0x6c>
    1830:	80 e0       	ldi	r24, 0x00	; 0
    1832:	01 c0       	rjmp	.+2      	; 0x1836 <LCD0_read+0x6e>
    1834:	80 e8       	ldi	r24, 0x80	; 128
    1836:	90 81       	ld	r25, Z
    1838:	96 ff       	sbrs	r25, 6
    183a:	02 c0       	rjmp	.+4      	; 0x1840 <LCD0_read+0x78>
    183c:	80 64       	ori	r24, 0x40	; 64
    183e:	01 c0       	rjmp	.+2      	; 0x1842 <LCD0_read+0x7a>
    1840:	8f 7b       	andi	r24, 0xBF	; 191
    1842:	90 81       	ld	r25, Z
    1844:	95 ff       	sbrs	r25, 5
    1846:	02 c0       	rjmp	.+4      	; 0x184c <LCD0_read+0x84>
    1848:	80 62       	ori	r24, 0x20	; 32
    184a:	01 c0       	rjmp	.+2      	; 0x184e <LCD0_read+0x86>
    184c:	8f 7d       	andi	r24, 0xDF	; 223
    184e:	90 81       	ld	r25, Z
    1850:	94 ff       	sbrs	r25, 4
    1852:	02 c0       	rjmp	.+4      	; 0x1858 <LCD0_read+0x90>
    1854:	80 61       	ori	r24, 0x10	; 16
    1856:	01 c0       	rjmp	.+2      	; 0x185a <LCD0_read+0x92>
    1858:	8f 7e       	andi	r24, 0xEF	; 239
    185a:	e0 91 1e 03 	lds	r30, 0x031E	; 0x80031e <lcd0_PORT>
    185e:	f0 91 1f 03 	lds	r31, 0x031F	; 0x80031f <lcd0_PORT+0x1>
    1862:	90 81       	ld	r25, Z
    1864:	9b 7f       	andi	r25, 0xFB	; 251
    1866:	90 83       	st	Z, r25
    1868:	e0 91 1e 03 	lds	r30, 0x031E	; 0x80031e <lcd0_PORT>
    186c:	f0 91 1f 03 	lds	r31, 0x031F	; 0x80031f <lcd0_PORT+0x1>
    1870:	90 81       	ld	r25, Z
    1872:	94 60       	ori	r25, 0x04	; 4
    1874:	90 83       	st	Z, r25
    1876:	e0 91 14 03 	lds	r30, 0x0314	; 0x800314 <lcd0_PIN>
    187a:	f0 91 15 03 	lds	r31, 0x0315	; 0x800315 <lcd0_PIN+0x1>
    187e:	90 81       	ld	r25, Z
    1880:	99 23       	and	r25, r25
    1882:	14 f4       	brge	.+4      	; 0x1888 <LCD0_read+0xc0>
    1884:	88 60       	ori	r24, 0x08	; 8
    1886:	01 c0       	rjmp	.+2      	; 0x188a <LCD0_read+0xc2>
    1888:	87 7f       	andi	r24, 0xF7	; 247
    188a:	90 81       	ld	r25, Z
    188c:	96 ff       	sbrs	r25, 6
    188e:	02 c0       	rjmp	.+4      	; 0x1894 <LCD0_read+0xcc>
    1890:	84 60       	ori	r24, 0x04	; 4
    1892:	01 c0       	rjmp	.+2      	; 0x1896 <LCD0_read+0xce>
    1894:	8b 7f       	andi	r24, 0xFB	; 251
    1896:	90 81       	ld	r25, Z
    1898:	95 ff       	sbrs	r25, 5
    189a:	02 c0       	rjmp	.+4      	; 0x18a0 <LCD0_read+0xd8>
    189c:	82 60       	ori	r24, 0x02	; 2
    189e:	01 c0       	rjmp	.+2      	; 0x18a2 <LCD0_read+0xda>
    18a0:	8d 7f       	andi	r24, 0xFD	; 253
    18a2:	90 81       	ld	r25, Z
    18a4:	94 ff       	sbrs	r25, 4
    18a6:	02 c0       	rjmp	.+4      	; 0x18ac <LCD0_read+0xe4>
    18a8:	81 60       	ori	r24, 0x01	; 1
    18aa:	01 c0       	rjmp	.+2      	; 0x18ae <LCD0_read+0xe6>
    18ac:	8e 7f       	andi	r24, 0xFE	; 254
    18ae:	e0 91 1e 03 	lds	r30, 0x031E	; 0x80031e <lcd0_PORT>
    18b2:	f0 91 1f 03 	lds	r31, 0x031F	; 0x80031f <lcd0_PORT+0x1>
    18b6:	90 81       	ld	r25, Z
    18b8:	9b 7f       	andi	r25, 0xFB	; 251
    18ba:	90 83       	st	Z, r25
    18bc:	08 95       	ret

000018be <LCD0_BF>:
    18be:	cf 93       	push	r28
    18c0:	df 93       	push	r29
    18c2:	80 e0       	ldi	r24, 0x00	; 0
    18c4:	90 e0       	ldi	r25, 0x00	; 0
    18c6:	80 df       	rcall	.-256    	; 0x17c8 <LCD0_read>
    18c8:	cb e0       	ldi	r28, 0x0B	; 11
    18ca:	d0 e0       	ldi	r29, 0x00	; 0
    18cc:	05 c0       	rjmp	.+10     	; 0x18d8 <LCD0_BF+0x1a>
    18ce:	80 e0       	ldi	r24, 0x00	; 0
    18d0:	90 e0       	ldi	r25, 0x00	; 0
    18d2:	7a df       	rcall	.-268    	; 0x17c8 <LCD0_read>
    18d4:	21 97       	sbiw	r28, 0x01	; 1
    18d6:	11 f0       	breq	.+4      	; 0x18dc <LCD0_BF+0x1e>
    18d8:	88 23       	and	r24, r24
    18da:	cc f3       	brlt	.-14     	; 0x18ce <LCD0_BF+0x10>
    18dc:	df 91       	pop	r29
    18de:	cf 91       	pop	r28
    18e0:	08 95       	ret

000018e2 <LCD0_putch>:
    18e2:	61 e0       	ldi	r22, 0x01	; 1
    18e4:	70 e0       	ldi	r23, 0x00	; 0
    18e6:	ac de       	rcall	.-680    	; 0x1640 <LCD0_write>
    18e8:	ea cf       	rjmp	.-44     	; 0x18be <LCD0_BF>
    18ea:	08 95       	ret

000018ec <LCD0_getch>:
    18ec:	cf 93       	push	r28
    18ee:	81 e0       	ldi	r24, 0x01	; 1
    18f0:	90 e0       	ldi	r25, 0x00	; 0
    18f2:	6a df       	rcall	.-300    	; 0x17c8 <LCD0_read>
    18f4:	c8 2f       	mov	r28, r24
    18f6:	e3 df       	rcall	.-58     	; 0x18be <LCD0_BF>
    18f8:	8c 2f       	mov	r24, r28
    18fa:	cf 91       	pop	r28
    18fc:	08 95       	ret

000018fe <LCD0_string>:
    18fe:	cf 93       	push	r28
    1900:	df 93       	push	r29
    1902:	ec 01       	movw	r28, r24
    1904:	88 81       	ld	r24, Y
    1906:	88 23       	and	r24, r24
    1908:	41 f0       	breq	.+16     	; 0x191a <LCD0_string+0x1c>
    190a:	21 96       	adiw	r28, 0x01	; 1
    190c:	61 e0       	ldi	r22, 0x01	; 1
    190e:	70 e0       	ldi	r23, 0x00	; 0
    1910:	97 de       	rcall	.-722    	; 0x1640 <LCD0_write>
    1912:	d5 df       	rcall	.-86     	; 0x18be <LCD0_BF>
    1914:	89 91       	ld	r24, Y+
    1916:	81 11       	cpse	r24, r1
    1918:	f9 cf       	rjmp	.-14     	; 0x190c <LCD0_string+0xe>
    191a:	df 91       	pop	r29
    191c:	cf 91       	pop	r28
    191e:	08 95       	ret

00001920 <LCD0_string_size>:
    1920:	0f 93       	push	r16
    1922:	1f 93       	push	r17
    1924:	cf 93       	push	r28
    1926:	df 93       	push	r29
    1928:	fc 01       	movw	r30, r24
    192a:	d6 2f       	mov	r29, r22
    192c:	80 81       	ld	r24, Z
    192e:	88 23       	and	r24, r24
    1930:	51 f0       	breq	.+20     	; 0x1946 <LCD0_string_size+0x26>
    1932:	8f 01       	movw	r16, r30
    1934:	0f 5f       	subi	r16, 0xFF	; 255
    1936:	1f 4f       	sbci	r17, 0xFF	; 255
    1938:	61 11       	cpse	r22, r1
    193a:	09 c0       	rjmp	.+18     	; 0x194e <LCD0_string_size+0x2e>
    193c:	1b c0       	rjmp	.+54     	; 0x1974 <LCD0_string_size+0x54>
    193e:	cf 5f       	subi	r28, 0xFF	; 255
    1940:	dc 17       	cp	r29, r28
    1942:	30 f4       	brcc	.+12     	; 0x1950 <LCD0_string_size+0x30>
    1944:	01 c0       	rjmp	.+2      	; 0x1948 <LCD0_string_size+0x28>
    1946:	c0 e0       	ldi	r28, 0x00	; 0
    1948:	cd 17       	cp	r28, r29
    194a:	60 f0       	brcs	.+24     	; 0x1964 <LCD0_string_size+0x44>
    194c:	13 c0       	rjmp	.+38     	; 0x1974 <LCD0_string_size+0x54>
    194e:	c1 e0       	ldi	r28, 0x01	; 1
    1950:	61 e0       	ldi	r22, 0x01	; 1
    1952:	70 e0       	ldi	r23, 0x00	; 0
    1954:	75 de       	rcall	.-790    	; 0x1640 <LCD0_write>
    1956:	b3 df       	rcall	.-154    	; 0x18be <LCD0_BF>
    1958:	f8 01       	movw	r30, r16
    195a:	81 91       	ld	r24, Z+
    195c:	8f 01       	movw	r16, r30
    195e:	81 11       	cpse	r24, r1
    1960:	ee cf       	rjmp	.-36     	; 0x193e <LCD0_string_size+0x1e>
    1962:	f2 cf       	rjmp	.-28     	; 0x1948 <LCD0_string_size+0x28>
    1964:	cf 5f       	subi	r28, 0xFF	; 255
    1966:	61 e0       	ldi	r22, 0x01	; 1
    1968:	70 e0       	ldi	r23, 0x00	; 0
    196a:	80 e2       	ldi	r24, 0x20	; 32
    196c:	69 de       	rcall	.-814    	; 0x1640 <LCD0_write>
    196e:	a7 df       	rcall	.-178    	; 0x18be <LCD0_BF>
    1970:	cd 17       	cp	r28, r29
    1972:	c0 f3       	brcs	.-16     	; 0x1964 <LCD0_string_size+0x44>
    1974:	df 91       	pop	r29
    1976:	cf 91       	pop	r28
    1978:	1f 91       	pop	r17
    197a:	0f 91       	pop	r16
    197c:	08 95       	ret

0000197e <LCD0_hspace>:
    197e:	cf 93       	push	r28
    1980:	c8 2f       	mov	r28, r24
    1982:	88 23       	and	r24, r24
    1984:	39 f0       	breq	.+14     	; 0x1994 <LCD0_hspace+0x16>
    1986:	61 e0       	ldi	r22, 0x01	; 1
    1988:	70 e0       	ldi	r23, 0x00	; 0
    198a:	80 e2       	ldi	r24, 0x20	; 32
    198c:	59 de       	rcall	.-846    	; 0x1640 <LCD0_write>
    198e:	97 df       	rcall	.-210    	; 0x18be <LCD0_BF>
    1990:	c1 50       	subi	r28, 0x01	; 1
    1992:	c9 f7       	brne	.-14     	; 0x1986 <LCD0_hspace+0x8>
    1994:	cf 91       	pop	r28
    1996:	08 95       	ret

00001998 <LCD0_gotoxy>:
    1998:	26 2f       	mov	r18, r22
    199a:	81 30       	cpi	r24, 0x01	; 1
    199c:	91 05       	cpc	r25, r1
    199e:	71 f0       	breq	.+28     	; 0x19bc <LCD0_gotoxy+0x24>
    19a0:	30 f0       	brcs	.+12     	; 0x19ae <LCD0_gotoxy+0x16>
    19a2:	82 30       	cpi	r24, 0x02	; 2
    19a4:	91 05       	cpc	r25, r1
    19a6:	89 f0       	breq	.+34     	; 0x19ca <LCD0_gotoxy+0x32>
    19a8:	03 97       	sbiw	r24, 0x03	; 3
    19aa:	b1 f0       	breq	.+44     	; 0x19d8 <LCD0_gotoxy+0x40>
    19ac:	08 95       	ret
    19ae:	60 e0       	ldi	r22, 0x00	; 0
    19b0:	70 e0       	ldi	r23, 0x00	; 0
    19b2:	80 e8       	ldi	r24, 0x80	; 128
    19b4:	82 0f       	add	r24, r18
    19b6:	44 de       	rcall	.-888    	; 0x1640 <LCD0_write>
    19b8:	82 cf       	rjmp	.-252    	; 0x18be <LCD0_BF>
    19ba:	08 95       	ret
    19bc:	60 e0       	ldi	r22, 0x00	; 0
    19be:	70 e0       	ldi	r23, 0x00	; 0
    19c0:	80 ec       	ldi	r24, 0xC0	; 192
    19c2:	82 0f       	add	r24, r18
    19c4:	3d de       	rcall	.-902    	; 0x1640 <LCD0_write>
    19c6:	7b cf       	rjmp	.-266    	; 0x18be <LCD0_BF>
    19c8:	08 95       	ret
    19ca:	60 e0       	ldi	r22, 0x00	; 0
    19cc:	70 e0       	ldi	r23, 0x00	; 0
    19ce:	84 e9       	ldi	r24, 0x94	; 148
    19d0:	82 0f       	add	r24, r18
    19d2:	36 de       	rcall	.-916    	; 0x1640 <LCD0_write>
    19d4:	74 cf       	rjmp	.-280    	; 0x18be <LCD0_BF>
    19d6:	08 95       	ret
    19d8:	60 e0       	ldi	r22, 0x00	; 0
    19da:	70 e0       	ldi	r23, 0x00	; 0
    19dc:	84 ed       	ldi	r24, 0xD4	; 212
    19de:	82 0f       	add	r24, r18
    19e0:	2f de       	rcall	.-930    	; 0x1640 <LCD0_write>
    19e2:	6d cf       	rjmp	.-294    	; 0x18be <LCD0_BF>
    19e4:	08 95       	ret

000019e6 <LCD0_clear>:
    19e6:	60 e0       	ldi	r22, 0x00	; 0
    19e8:	70 e0       	ldi	r23, 0x00	; 0
    19ea:	81 e0       	ldi	r24, 0x01	; 1
    19ec:	29 de       	rcall	.-942    	; 0x1640 <LCD0_write>
    19ee:	87 ee       	ldi	r24, 0xE7	; 231
    19f0:	97 e1       	ldi	r25, 0x17	; 23
    19f2:	01 97       	sbiw	r24, 0x01	; 1
    19f4:	f1 f7       	brne	.-4      	; 0x19f2 <LCD0_clear+0xc>
    19f6:	00 c0       	rjmp	.+0      	; 0x19f8 <LCD0_clear+0x12>
    19f8:	00 00       	nop
    19fa:	08 95       	ret

000019fc <LCD0_inic>:
	return lcd0;
}
void LCD0_inic(void)
{
	//LCD INIC
	*lcd0_DDR=(1<<RS)|(1<<RW)|(1<<EN)|(0<<NC);
    19fc:	e0 91 1b 03 	lds	r30, 0x031B	; 0x80031b <lcd0_DDR>
    1a00:	f0 91 1c 03 	lds	r31, 0x031C	; 0x80031c <lcd0_DDR+0x1>
    1a04:	87 e0       	ldi	r24, 0x07	; 7
    1a06:	80 83       	st	Z, r24
	*lcd0_PORT=(1<<NC);
    1a08:	e0 91 1e 03 	lds	r30, 0x031E	; 0x80031e <lcd0_PORT>
    1a0c:	f0 91 1f 03 	lds	r31, 0x031F	; 0x80031f <lcd0_PORT+0x1>
    1a10:	88 e0       	ldi	r24, 0x08	; 8
    1a12:	80 83       	st	Z, r24
    1a14:	2f ef       	ldi	r18, 0xFF	; 255
    1a16:	83 ef       	ldi	r24, 0xF3	; 243
    1a18:	91 e0       	ldi	r25, 0x01	; 1
    1a1a:	21 50       	subi	r18, 0x01	; 1
    1a1c:	80 40       	sbci	r24, 0x00	; 0
    1a1e:	90 40       	sbci	r25, 0x00	; 0
    1a20:	e1 f7       	brne	.-8      	; 0x1a1a <LCD0_inic+0x1e>
    1a22:	00 c0       	rjmp	.+0      	; 0x1a24 <LCD0_inic+0x28>
    1a24:	00 00       	nop
	/***INICIALIZACAO LCD**datasheet*/
	_delay_ms(40);
	LCD0_write(0x33,INST); //function set
    1a26:	60 e0       	ldi	r22, 0x00	; 0
    1a28:	70 e0       	ldi	r23, 0x00	; 0
    1a2a:	83 e3       	ldi	r24, 0x33	; 51
    1a2c:	09 de       	rcall	.-1006   	; 0x1640 <LCD0_write>
	#else
		//round up by default
		__ticks_dc = (uint32_t)(ceil(fabs(__tmp)));
	#endif

	__builtin_avr_delay_cycles(__ticks_dc);
    1a2e:	20 ed       	ldi	r18, 0xD0	; 208
    1a30:	2a 95       	dec	r18
    1a32:	f1 f7       	brne	.-4      	; 0x1a30 <LCD0_inic+0x34>
	_delay_us(39);
	LCD0_write(0x33,INST); //function set
    1a34:	60 e0       	ldi	r22, 0x00	; 0
    1a36:	70 e0       	ldi	r23, 0x00	; 0
    1a38:	83 e3       	ldi	r24, 0x33	; 51
    1a3a:	02 de       	rcall	.-1020   	; 0x1640 <LCD0_write>
    1a3c:	80 ed       	ldi	r24, 0xD0	; 208
    1a3e:	8a 95       	dec	r24
    1a40:	f1 f7       	brne	.-4      	; 0x1a3e <LCD0_inic+0x42>
	_delay_us(39);
	LCD0_write(0x2B,INST); //function set
    1a42:	60 e0       	ldi	r22, 0x00	; 0
    1a44:	70 e0       	ldi	r23, 0x00	; 0
    1a46:	8b e2       	ldi	r24, 0x2B	; 43
    1a48:	fb dd       	rcall	.-1034   	; 0x1640 <LCD0_write>
    1a4a:	95 ec       	ldi	r25, 0xC5	; 197
    1a4c:	9a 95       	dec	r25
    1a4e:	f1 f7       	brne	.-4      	; 0x1a4c <LCD0_inic+0x50>
    1a50:	00 00       	nop
	_delay_us(37);
	LCD0_write(0x0C,INST);// display on/off control
    1a52:	60 e0       	ldi	r22, 0x00	; 0
    1a54:	70 e0       	ldi	r23, 0x00	; 0
    1a56:	8c e0       	ldi	r24, 0x0C	; 12
    1a58:	f3 dd       	rcall	.-1050   	; 0x1640 <LCD0_write>
    1a5a:	25 ec       	ldi	r18, 0xC5	; 197
    1a5c:	2a 95       	dec	r18
    1a5e:	f1 f7       	brne	.-4      	; 0x1a5c <LCD0_inic+0x60>
	_delay_us(37);
	LCD0_write(0x01,INST);// clear display
    1a60:	00 00       	nop
    1a62:	60 e0       	ldi	r22, 0x00	; 0
    1a64:	70 e0       	ldi	r23, 0x00	; 0
    1a66:	81 e0       	ldi	r24, 0x01	; 1
    1a68:	eb dd       	rcall	.-1066   	; 0x1640 <LCD0_write>
	#else
		//round up by default
		__ticks_dc = (uint32_t)(ceil(fabs(__tmp)));
	#endif

	__builtin_avr_delay_cycles(__ticks_dc);
    1a6a:	87 ee       	ldi	r24, 0xE7	; 231
    1a6c:	97 e1       	ldi	r25, 0x17	; 23
    1a6e:	01 97       	sbiw	r24, 0x01	; 1
    1a70:	f1 f7       	brne	.-4      	; 0x1a6e <LCD0_inic+0x72>
    1a72:	00 c0       	rjmp	.+0      	; 0x1a74 <LCD0_inic+0x78>
	_delay_ms(1.53);
	LCD0_write(0x06,INST);// entry mode set (crazy settings)
    1a74:	00 00       	nop
    1a76:	60 e0       	ldi	r22, 0x00	; 0
    1a78:	70 e0       	ldi	r23, 0x00	; 0
    1a7a:	86 e0       	ldi	r24, 0x06	; 6
    1a7c:	e1 dd       	rcall	.-1086   	; 0x1640 <LCD0_write>
	#else
		//round up by default
		__ticks_dc = (uint32_t)(ceil(fabs(__tmp)));
	#endif

	__builtin_avr_delay_cycles(__ticks_dc);
    1a7e:	95 ec       	ldi	r25, 0xC5	; 197
    1a80:	9a 95       	dec	r25
    1a82:	f1 f7       	brne	.-4      	; 0x1a80 <LCD0_inic+0x84>
    1a84:	00 00       	nop
    1a86:	08 95       	ret

00001a88 <LCD0enable>:
void LCD1_strobe(unsigned int num);
void LCD1_reboot(void);
unsigned int LCD_ticks(unsigned int num);
/***Procedure & Function***/
LCD0 LCD0enable(volatile uint8_t *ddr, volatile uint8_t *pin, volatile uint8_t *port)
{
    1a88:	1f 93       	push	r17
    1a8a:	cf 93       	push	r28
    1a8c:	df 93       	push	r29
    1a8e:	ec 01       	movw	r28, r24
	//LOCAL VARIABLES
	uint8_t tSREG;
	tSREG=SREG;
    1a90:	1f b7       	in	r17, 0x3f	; 63
	SREG&=~(1<<GLOBAL_INTERRUPT_ENABLE);
    1a92:	8f b7       	in	r24, 0x3f	; 63
    1a94:	8f 77       	andi	r24, 0x7F	; 127
    1a96:	8f bf       	out	0x3f, r24	; 63
	//ALLOCAO MEMORIA PARA Estrutura
	LCD0 lcd0;
	//import parametros
	lcd0_DDR=ddr;
    1a98:	70 93 1c 03 	sts	0x031C, r23	; 0x80031c <lcd0_DDR+0x1>
    1a9c:	60 93 1b 03 	sts	0x031B, r22	; 0x80031b <lcd0_DDR>
	lcd0_PIN=pin;
    1aa0:	50 93 15 03 	sts	0x0315, r21	; 0x800315 <lcd0_PIN+0x1>
    1aa4:	40 93 14 03 	sts	0x0314, r20	; 0x800314 <lcd0_PIN>
	lcd0_PORT=port;
    1aa8:	30 93 1f 03 	sts	0x031F, r19	; 0x80031f <lcd0_PORT+0x1>
    1aac:	20 93 1e 03 	sts	0x031E, r18	; 0x80031e <lcd0_PORT>
	//inic variables
	*lcd0_DDR=0x00;
    1ab0:	fb 01       	movw	r30, r22
    1ab2:	10 82       	st	Z, r1
	*lcd0_PORT=0xFF;
    1ab4:	e0 91 1e 03 	lds	r30, 0x031E	; 0x80031e <lcd0_PORT>
    1ab8:	f0 91 1f 03 	lds	r31, 0x031F	; 0x80031f <lcd0_PORT+0x1>
    1abc:	8f ef       	ldi	r24, 0xFF	; 255
    1abe:	80 83       	st	Z, r24
	lcd0_detect=*lcd0_PIN & (1<<NC);
    1ac0:	e0 91 14 03 	lds	r30, 0x0314	; 0x800314 <lcd0_PIN>
    1ac4:	f0 91 15 03 	lds	r31, 0x0315	; 0x800315 <lcd0_PIN+0x1>
    1ac8:	80 81       	ld	r24, Z
    1aca:	88 70       	andi	r24, 0x08	; 8
    1acc:	80 93 1d 03 	sts	0x031D, r24	; 0x80031d <lcd0_detect>
	lcd0.hspace=LCD0_hspace;
	lcd0.clear=LCD0_clear;
	lcd0.gotoxy=LCD0_gotoxy;
	lcd0.reboot=LCD0_reboot;
	//LCD INIC
	LCD0_inic();
    1ad0:	95 df       	rcall	.-214    	; 0x19fc <LCD0_inic>
	SREG=tSREG;
    1ad2:	1f bf       	out	0x3f, r17	; 63
	//
	return lcd0;
    1ad4:	80 e2       	ldi	r24, 0x20	; 32
    1ad6:	9b e0       	ldi	r25, 0x0B	; 11
    1ad8:	99 83       	std	Y+1, r25	; 0x01
    1ada:	88 83       	st	Y, r24
    1adc:	84 ee       	ldi	r24, 0xE4	; 228
    1ade:	9b e0       	ldi	r25, 0x0B	; 11
    1ae0:	9b 83       	std	Y+3, r25	; 0x03
    1ae2:	8a 83       	std	Y+2, r24	; 0x02
    1ae4:	8f e5       	ldi	r24, 0x5F	; 95
    1ae6:	9c e0       	ldi	r25, 0x0C	; 12
    1ae8:	9d 83       	std	Y+5, r25	; 0x05
    1aea:	8c 83       	std	Y+4, r24	; 0x04
    1aec:	81 e7       	ldi	r24, 0x71	; 113
    1aee:	9c e0       	ldi	r25, 0x0C	; 12
    1af0:	9f 83       	std	Y+7, r25	; 0x07
    1af2:	8e 83       	std	Y+6, r24	; 0x06
    1af4:	86 e7       	ldi	r24, 0x76	; 118
    1af6:	9c e0       	ldi	r25, 0x0C	; 12
    1af8:	99 87       	std	Y+9, r25	; 0x09
    1afa:	88 87       	std	Y+8, r24	; 0x08
    1afc:	8f e7       	ldi	r24, 0x7F	; 127
    1afe:	9c e0       	ldi	r25, 0x0C	; 12
    1b00:	9b 87       	std	Y+11, r25	; 0x0b
    1b02:	8a 87       	std	Y+10, r24	; 0x0a
    1b04:	80 e9       	ldi	r24, 0x90	; 144
    1b06:	9c e0       	ldi	r25, 0x0C	; 12
    1b08:	9d 87       	std	Y+13, r25	; 0x0d
    1b0a:	8c 87       	std	Y+12, r24	; 0x0c
    1b0c:	8f eb       	ldi	r24, 0xBF	; 191
    1b0e:	9c e0       	ldi	r25, 0x0C	; 12
    1b10:	9f 87       	std	Y+15, r25	; 0x0f
    1b12:	8e 87       	std	Y+14, r24	; 0x0e
    1b14:	83 ef       	ldi	r24, 0xF3	; 243
    1b16:	9c e0       	ldi	r25, 0x0C	; 12
    1b18:	99 8b       	std	Y+17, r25	; 0x11
    1b1a:	88 8b       	std	Y+16, r24	; 0x10
    1b1c:	8c ec       	ldi	r24, 0xCC	; 204
    1b1e:	9c e0       	ldi	r25, 0x0C	; 12
    1b20:	9b 8b       	std	Y+19, r25	; 0x13
    1b22:	8a 8b       	std	Y+18, r24	; 0x12
    1b24:	8b e9       	ldi	r24, 0x9B	; 155
    1b26:	9d e0       	ldi	r25, 0x0D	; 13
    1b28:	9d 8b       	std	Y+21, r25	; 0x15
    1b2a:	8c 8b       	std	Y+20, r24	; 0x14
}
    1b2c:	ce 01       	movw	r24, r28
    1b2e:	df 91       	pop	r29
    1b30:	cf 91       	pop	r28
    1b32:	1f 91       	pop	r17
    1b34:	08 95       	ret

00001b36 <LCD0_reboot>:
	*lcd0_PORT|=(1<<EN);
	LCD_ticks(num);
	*lcd0_PORT&=~(1<<EN);
}
void LCD0_reboot(void)
{
    1b36:	cf 93       	push	r28
    1b38:	df 93       	push	r29
	uint8_t tSREG;
	tSREG=SREG;
    1b3a:	df b7       	in	r29, 0x3f	; 63
	SREG&=~(1<<GLOBAL_INTERRUPT_ENABLE);
    1b3c:	8f b7       	in	r24, 0x3f	; 63
    1b3e:	8f 77       	andi	r24, 0x7F	; 127
    1b40:	8f bf       	out	0x3f, r24	; 63
	//low high detect pin NC
	uint8_t i;
	uint8_t tmp;
	tmp=*lcd0_PIN & (1<<NC);
    1b42:	e0 91 14 03 	lds	r30, 0x0314	; 0x800314 <lcd0_PIN>
    1b46:	f0 91 15 03 	lds	r31, 0x0315	; 0x800315 <lcd0_PIN+0x1>
    1b4a:	c0 81       	ld	r28, Z
    1b4c:	c8 70       	andi	r28, 0x08	; 8
	i=tmp^lcd0_detect;
    1b4e:	80 91 1d 03 	lds	r24, 0x031D	; 0x80031d <lcd0_detect>
    1b52:	8c 27       	eor	r24, r28
	i&=tmp;
	if(i)
    1b54:	8c 23       	and	r24, r28
    1b56:	09 f0       	breq	.+2      	; 0x1b5a <LCD0_reboot+0x24>
		LCD0_inic();
    1b58:	51 df       	rcall	.-350    	; 0x19fc <LCD0_inic>
	lcd0_detect=tmp;
    1b5a:	c0 93 1d 03 	sts	0x031D, r28	; 0x80031d <lcd0_detect>
	SREG=tSREG;
    1b5e:	df bf       	out	0x3f, r29	; 63
}
    1b60:	df 91       	pop	r29
    1b62:	cf 91       	pop	r28
    1b64:	08 95       	ret

00001b66 <HX711_set_readflag>:
	// returns a copy
	return hx711;
}
void HX711_set_readflag(HX711* self)
{
	self->readflag=ONE;
    1b66:	21 e0       	ldi	r18, 0x01	; 1
    1b68:	fc 01       	movw	r30, r24
    1b6a:	20 83       	st	Z, r18
    1b6c:	08 95       	ret

00001b6e <HX711_check_readflag>:
	self->readflag=ZERO;
}
uint8_t HX711_check_readflag(HX711* self)
{
	return self->readflag;	
}
    1b6e:	fc 01       	movw	r30, r24
    1b70:	80 81       	ld	r24, Z
    1b72:	08 95       	ret

00001b74 <HX711_read_bit>:
uint8_t HX711_read_bit(void)
{	
	uint16_t bool;
	*hx711_PORT|=(ONE<<hx711_clkpin);
    1b74:	e0 91 25 03 	lds	r30, 0x0325	; 0x800325 <hx711_PORT>
    1b78:	f0 91 26 03 	lds	r31, 0x0326	; 0x800326 <hx711_PORT+0x1>
    1b7c:	20 81       	ld	r18, Z
    1b7e:	81 e0       	ldi	r24, 0x01	; 1
    1b80:	90 e0       	ldi	r25, 0x00	; 0
    1b82:	00 90 29 03 	lds	r0, 0x0329	; 0x800329 <hx711_clkpin>
    1b86:	02 c0       	rjmp	.+4      	; 0x1b8c <HX711_read_bit+0x18>
    1b88:	88 0f       	add	r24, r24
    1b8a:	99 1f       	adc	r25, r25
    1b8c:	0a 94       	dec	r0
    1b8e:	e2 f7       	brpl	.-8      	; 0x1b88 <HX711_read_bit+0x14>
    1b90:	82 2b       	or	r24, r18
    1b92:	80 83       	st	Z, r24
    1b94:	89 e6       	ldi	r24, 0x69	; 105
    1b96:	90 e0       	ldi	r25, 0x00	; 0
    1b98:	01 97       	sbiw	r24, 0x01	; 1
	/**0.1us minimum**/
	for(bool=0;bool<HX711_ticks;bool++);
    1b9a:	f1 f7       	brne	.-4      	; 0x1b98 <HX711_read_bit+0x24>
	bool=*hx711_PIN & (ONE<<hx711_datapin);
    1b9c:	e0 91 23 03 	lds	r30, 0x0323	; 0x800323 <hx711_PIN>
    1ba0:	f0 91 24 03 	lds	r31, 0x0324	; 0x800324 <hx711_PIN+0x1>
    1ba4:	40 81       	ld	r20, Z
    1ba6:	21 e0       	ldi	r18, 0x01	; 1
    1ba8:	30 e0       	ldi	r19, 0x00	; 0
    1baa:	c9 01       	movw	r24, r18
    1bac:	00 90 22 03 	lds	r0, 0x0322	; 0x800322 <hx711_datapin>
    1bb0:	02 c0       	rjmp	.+4      	; 0x1bb6 <HX711_read_bit+0x42>
    1bb2:	88 0f       	add	r24, r24
    1bb4:	99 1f       	adc	r25, r25
    1bb6:	0a 94       	dec	r0
    1bb8:	e2 f7       	brpl	.-8      	; 0x1bb2 <HX711_read_bit+0x3e>
	*hx711_PORT&=~(ONE<<hx711_clkpin);
    1bba:	e0 91 25 03 	lds	r30, 0x0325	; 0x800325 <hx711_PORT>
    1bbe:	f0 91 26 03 	lds	r31, 0x0326	; 0x800326 <hx711_PORT+0x1>
    1bc2:	90 81       	ld	r25, Z
    1bc4:	00 90 29 03 	lds	r0, 0x0329	; 0x800329 <hx711_clkpin>
    1bc8:	02 c0       	rjmp	.+4      	; 0x1bce <HX711_read_bit+0x5a>
    1bca:	22 0f       	add	r18, r18
    1bcc:	33 1f       	adc	r19, r19
    1bce:	0a 94       	dec	r0
    1bd0:	e2 f7       	brpl	.-8      	; 0x1bca <HX711_read_bit+0x56>
    1bd2:	20 95       	com	r18
    1bd4:	29 23       	and	r18, r25
    1bd6:	20 83       	st	Z, r18
	return bool;
}
    1bd8:	84 23       	and	r24, r20
    1bda:	08 95       	ret

00001bdc <HX711_set_amplify>:
// Gain selector
// AVDD connected to 5V, channel B gain=32
void HX711_set_amplify(HX711* self, uint8_t amplify)
{
	switch(amplify){
    1bdc:	60 34       	cpi	r22, 0x40	; 64
    1bde:	79 f0       	breq	.+30     	; 0x1bfe <HX711_set_amplify+0x22>
    1be0:	60 38       	cpi	r22, 0x80	; 128
    1be2:	19 f0       	breq	.+6      	; 0x1bea <HX711_set_amplify+0xe>
    1be4:	60 32       	cpi	r22, 0x20	; 32
    1be6:	81 f4       	brne	.+32     	; 0x1c08 <HX711_set_amplify+0x2c>
    1be8:	05 c0       	rjmp	.+10     	; 0x1bf4 <HX711_set_amplify+0x18>
		case 128:
			self->amplify=ONE; //channel A
    1bea:	21 e0       	ldi	r18, 0x01	; 1
    1bec:	fc 01       	movw	r30, r24
    1bee:	22 83       	std	Z+2, r18	; 0x02
			self->ampcount=ONE;
    1bf0:	23 83       	std	Z+3, r18	; 0x03
			break;
    1bf2:	08 95       	ret
		case 32:
			self->amplify=2; //channel B
    1bf4:	22 e0       	ldi	r18, 0x02	; 2
    1bf6:	fc 01       	movw	r30, r24
    1bf8:	22 83       	std	Z+2, r18	; 0x02
			self->ampcount=2; 
    1bfa:	23 83       	std	Z+3, r18	; 0x03
			break;
    1bfc:	08 95       	ret
		case 64:
			self->amplify=3; //channel A
    1bfe:	23 e0       	ldi	r18, 0x03	; 3
    1c00:	fc 01       	movw	r30, r24
    1c02:	22 83       	std	Z+2, r18	; 0x02
			self->ampcount=3;
    1c04:	23 83       	std	Z+3, r18	; 0x03
			break;
    1c06:	08 95       	ret
		default:
			self->amplify=ONE;
    1c08:	21 e0       	ldi	r18, 0x01	; 1
    1c0a:	fc 01       	movw	r30, r24
    1c0c:	22 83       	std	Z+2, r18	; 0x02
			self->ampcount=ONE;
    1c0e:	23 83       	std	Z+3, r18	; 0x03
    1c10:	08 95       	ret

00001c12 <HX711_raw_average>:
		}
	}
	return self->raw_reading;
}
float HX711_raw_average(HX711* self, uint8_t n)
{
    1c12:	0f 93       	push	r16
    1c14:	1f 93       	push	r17
    1c16:	cf 93       	push	r28
    1c18:	df 93       	push	r29
    1c1a:	ec 01       	movw	r28, r24
	if(self->trigger){
    1c1c:	89 81       	ldd	r24, Y+1	; 0x01
    1c1e:	88 23       	and	r24, r24
    1c20:	91 f1       	breq	.+100    	; 0x1c86 <HX711_raw_average+0x74>
		if(self->av_n < n){
    1c22:	8a 89       	ldd	r24, Y+18	; 0x12
    1c24:	86 17       	cp	r24, r22
    1c26:	98 f4       	brcc	.+38     	; 0x1c4e <HX711_raw_average+0x3c>
			self->sum+=self->raw_reading;
    1c28:	0e 85       	ldd	r16, Y+14	; 0x0e
    1c2a:	1f 85       	ldd	r17, Y+15	; 0x0f
    1c2c:	28 89       	ldd	r18, Y+16	; 0x10
    1c2e:	39 89       	ldd	r19, Y+17	; 0x11
    1c30:	4a 85       	ldd	r20, Y+10	; 0x0a
    1c32:	5b 85       	ldd	r21, Y+11	; 0x0b
    1c34:	6c 85       	ldd	r22, Y+12	; 0x0c
    1c36:	7d 85       	ldd	r23, Y+13	; 0x0d
    1c38:	40 0f       	add	r20, r16
    1c3a:	51 1f       	adc	r21, r17
    1c3c:	62 1f       	adc	r22, r18
    1c3e:	73 1f       	adc	r23, r19
    1c40:	4e 87       	std	Y+14, r20	; 0x0e
    1c42:	5f 87       	std	Y+15, r21	; 0x0f
    1c44:	68 8b       	std	Y+16, r22	; 0x10
    1c46:	79 8b       	std	Y+17, r23	; 0x11
			self->av_n++;
    1c48:	8f 5f       	subi	r24, 0xFF	; 255
    1c4a:	8a 8b       	std	Y+18, r24	; 0x12
    1c4c:	1b c0       	rjmp	.+54     	; 0x1c84 <HX711_raw_average+0x72>
			}else{
			self->av_n=0;
			self->raw_mean=self->sum/n;
    1c4e:	26 2f       	mov	r18, r22
    1c50:	30 e0       	ldi	r19, 0x00	; 0
    1c52:	40 e0       	ldi	r20, 0x00	; 0
    1c54:	50 e0       	ldi	r21, 0x00	; 0
    1c56:	6e 85       	ldd	r22, Y+14	; 0x0e
    1c58:	7f 85       	ldd	r23, Y+15	; 0x0f
    1c5a:	88 89       	ldd	r24, Y+16	; 0x10
    1c5c:	99 89       	ldd	r25, Y+17	; 0x11
    1c5e:	0e 94 89 16 	call	0x2d12	; 0x2d12 <__divmodsi4>
    1c62:	ca 01       	movw	r24, r20
    1c64:	b9 01       	movw	r22, r18
    1c66:	81 d5       	rcall	.+2818   	; 0x276a <__floatsisf>
    1c68:	6b 8b       	std	Y+19, r22	; 0x13
    1c6a:	7c 8b       	std	Y+20, r23	; 0x14
    1c6c:	8d 8b       	std	Y+21, r24	; 0x15
    1c6e:	9e 8b       	std	Y+22, r25	; 0x16
			self->sum=0;
			self->sum+=self->raw_reading;
    1c70:	8a 85       	ldd	r24, Y+10	; 0x0a
    1c72:	9b 85       	ldd	r25, Y+11	; 0x0b
    1c74:	ac 85       	ldd	r26, Y+12	; 0x0c
    1c76:	bd 85       	ldd	r27, Y+13	; 0x0d
    1c78:	8e 87       	std	Y+14, r24	; 0x0e
    1c7a:	9f 87       	std	Y+15, r25	; 0x0f
    1c7c:	a8 8b       	std	Y+16, r26	; 0x10
    1c7e:	b9 8b       	std	Y+17, r27	; 0x11
			self->av_n++;
    1c80:	81 e0       	ldi	r24, 0x01	; 1
    1c82:	8a 8b       	std	Y+18, r24	; 0x12
		}
		self->trigger=ZERO;
    1c84:	19 82       	std	Y+1, r1	; 0x01
	}
	return self->raw_mean;
    1c86:	6b 89       	ldd	r22, Y+19	; 0x13
    1c88:	7c 89       	ldd	r23, Y+20	; 0x14
    1c8a:	8d 89       	ldd	r24, Y+21	; 0x15
    1c8c:	9e 89       	ldd	r25, Y+22	; 0x16
}
    1c8e:	df 91       	pop	r29
    1c90:	cf 91       	pop	r28
    1c92:	1f 91       	pop	r17
    1c94:	0f 91       	pop	r16
    1c96:	08 95       	ret

00001c98 <HX711_ptrcal>:
struct HX711_calibration* HX711_ptrcal(HX711* self)
{
	return &(self->cal);
}
    1c98:	47 96       	adiw	r24, 0x17	; 23
    1c9a:	08 95       	ret

00001c9c <HX711_get_offset_32>:
int32_t HX711_get_offset_32(HX711* self)
{
	return self->cal.offset_32;
    1c9c:	fc 01       	movw	r30, r24
    1c9e:	67 89       	ldd	r22, Z+23	; 0x17
    1ca0:	70 8d       	ldd	r23, Z+24	; 0x18
    1ca2:	81 8d       	ldd	r24, Z+25	; 0x19
    1ca4:	92 8d       	ldd	r25, Z+26	; 0x1a
}
    1ca6:	08 95       	ret

00001ca8 <HX711_get_offset_64>:
int32_t HX711_get_offset_64(HX711* self)
{
	return self->cal.offset_64;
    1ca8:	fc 01       	movw	r30, r24
    1caa:	63 8d       	ldd	r22, Z+27	; 0x1b
    1cac:	74 8d       	ldd	r23, Z+28	; 0x1c
    1cae:	85 8d       	ldd	r24, Z+29	; 0x1d
    1cb0:	96 8d       	ldd	r25, Z+30	; 0x1e
}
    1cb2:	08 95       	ret

00001cb4 <HX711_get_offset_128>:
int32_t HX711_get_offset_128(HX711* self)
{
	return self->cal.offset_128;
    1cb4:	fc 01       	movw	r30, r24
    1cb6:	67 8d       	ldd	r22, Z+31	; 0x1f
    1cb8:	70 a1       	ldd	r23, Z+32	; 0x20
    1cba:	81 a1       	ldd	r24, Z+33	; 0x21
    1cbc:	92 a1       	ldd	r25, Z+34	; 0x22
}
    1cbe:	08 95       	ret

00001cc0 <HX711_get_divfactor_32>:
int8_t HX711_get_divfactor_32(HX711* self)
{
	return self->cal.divfactor_32;
}
    1cc0:	fc 01       	movw	r30, r24
    1cc2:	83 a1       	ldd	r24, Z+35	; 0x23
    1cc4:	08 95       	ret

00001cc6 <HX711_get_divfactor_64>:
int8_t HX711_get_divfactor_64(HX711* self)
{
	return self->cal.divfactor_64;
}
    1cc6:	fc 01       	movw	r30, r24
    1cc8:	86 a1       	ldd	r24, Z+38	; 0x26
    1cca:	08 95       	ret

00001ccc <HX711_get_divfactor_128>:
int8_t HX711_get_divfactor_128(HX711* self)
{
	return self->cal.divfactor_128;
}
    1ccc:	fc 01       	movw	r30, r24
    1cce:	81 a5       	ldd	r24, Z+41	; 0x29
    1cd0:	08 95       	ret

00001cd2 <HX711_read_raw>:
}
/***
Function to be used in the interrupt routine with appropriate cycle period.
***/
int32_t HX711_read_raw(HX711* self)
{
    1cd2:	0f 93       	push	r16
    1cd4:	1f 93       	push	r17
    1cd6:	cf 93       	push	r28
    1cd8:	df 93       	push	r29
    1cda:	ec 01       	movw	r28, r24
	uint8_t aindex, bindex;
	int32_t value;
	aindex = self->bufferindex-ONE;
    1cdc:	09 85       	ldd	r16, Y+9	; 0x09
	bindex = self->bitcount-ONE;
    1cde:	1c 81       	ldd	r17, Y+4	; 0x04
	ptr=(int32_t*)self->buffer;
    1ce0:	05 96       	adiw	r24, 0x05	; 5
    1ce2:	90 93 28 03 	sts	0x0328, r25	; 0x800328 <ptr+0x1>
    1ce6:	80 93 27 03 	sts	0x0327, r24	; 0x800327 <ptr>
	/***Detect query for reading***/
	if((!(*hx711_PIN & ONE << hx711_datapin)) && !self->readflag){
    1cea:	e0 91 23 03 	lds	r30, 0x0323	; 0x800323 <hx711_PIN>
    1cee:	f0 91 24 03 	lds	r31, 0x0324	; 0x800324 <hx711_PIN+0x1>
    1cf2:	80 81       	ld	r24, Z
    1cf4:	90 e0       	ldi	r25, 0x00	; 0
    1cf6:	00 90 22 03 	lds	r0, 0x0322	; 0x800322 <hx711_datapin>
    1cfa:	02 c0       	rjmp	.+4      	; 0x1d00 <HX711_read_raw+0x2e>
    1cfc:	95 95       	asr	r25
    1cfe:	87 95       	ror	r24
    1d00:	0a 94       	dec	r0
    1d02:	e2 f7       	brpl	.-8      	; 0x1cfc <HX711_read_raw+0x2a>
    1d04:	80 fd       	sbrc	r24, 0
    1d06:	06 c0       	rjmp	.+12     	; 0x1d14 <HX711_read_raw+0x42>
    1d08:	88 81       	ld	r24, Y
    1d0a:	81 11       	cpse	r24, r1
    1d0c:	07 c0       	rjmp	.+14     	; 0x1d1c <HX711_read_raw+0x4a>
	// returns a copy
	return hx711;
}
void HX711_set_readflag(HX711* self)
{
	self->readflag=ONE;
    1d0e:	81 e0       	ldi	r24, 0x01	; 1
    1d10:	88 83       	st	Y, r24
    1d12:	04 c0       	rjmp	.+8      	; 0x1d1c <HX711_read_raw+0x4a>
	/***Detect query for reading***/
	if((!(*hx711_PIN & ONE << hx711_datapin)) && !self->readflag){
		HX711_set_readflag(self);
	}
	/***Interrupt 24 times sequence***/
	if(self->readflag){
    1d14:	88 81       	ld	r24, Y
    1d16:	88 23       	and	r24, r24
    1d18:	09 f4       	brne	.+2      	; 0x1d1c <HX711_read_raw+0x4a>
    1d1a:	48 c0       	rjmp	.+144    	; 0x1dac <HX711_read_raw+0xda>
		if(self->bitcount){
    1d1c:	11 23       	and	r17, r17
    1d1e:	29 f1       	breq	.+74     	; 0x1d6a <HX711_read_raw+0x98>
			if (HX711_read_bit())
    1d20:	29 df       	rcall	.-430    	; 0x1b74 <HX711_read_bit>
    1d22:	88 23       	and	r24, r24
    1d24:	a9 f0       	breq	.+42     	; 0x1d50 <HX711_read_raw+0x7e>
				self->buffer[aindex] |= ONE<<(bindex-(aindex*8));
    1d26:	01 50       	subi	r16, 0x01	; 1
    1d28:	80 2f       	mov	r24, r16
    1d2a:	90 e0       	ldi	r25, 0x00	; 0
    1d2c:	fe 01       	movw	r30, r28
    1d2e:	e8 0f       	add	r30, r24
    1d30:	f9 1f       	adc	r31, r25
    1d32:	11 50       	subi	r17, 0x01	; 1
    1d34:	28 e0       	ldi	r18, 0x08	; 8
    1d36:	02 9f       	mul	r16, r18
    1d38:	10 19       	sub	r17, r0
    1d3a:	11 24       	eor	r1, r1
    1d3c:	81 e0       	ldi	r24, 0x01	; 1
    1d3e:	90 e0       	ldi	r25, 0x00	; 0
    1d40:	02 c0       	rjmp	.+4      	; 0x1d46 <HX711_read_raw+0x74>
    1d42:	88 0f       	add	r24, r24
    1d44:	99 1f       	adc	r25, r25
    1d46:	1a 95       	dec	r17
    1d48:	e2 f7       	brpl	.-8      	; 0x1d42 <HX711_read_raw+0x70>
    1d4a:	95 81       	ldd	r25, Z+5	; 0x05
    1d4c:	89 2b       	or	r24, r25
    1d4e:	85 83       	std	Z+5, r24	; 0x05
			self->bitcount--;
    1d50:	8c 81       	ldd	r24, Y+4	; 0x04
    1d52:	81 50       	subi	r24, 0x01	; 1
    1d54:	8c 83       	std	Y+4, r24	; 0x04
			if(self->bitcount==16)
    1d56:	80 31       	cpi	r24, 0x10	; 16
    1d58:	19 f4       	brne	.+6      	; 0x1d60 <HX711_read_raw+0x8e>
				self->bufferindex=2;
    1d5a:	82 e0       	ldi	r24, 0x02	; 2
    1d5c:	89 87       	std	Y+9, r24	; 0x09
    1d5e:	26 c0       	rjmp	.+76     	; 0x1dac <HX711_read_raw+0xda>
			if(self->bitcount==8)
    1d60:	88 30       	cpi	r24, 0x08	; 8
    1d62:	21 f5       	brne	.+72     	; 0x1dac <HX711_read_raw+0xda>
				self->bufferindex=ONE;
    1d64:	81 e0       	ldi	r24, 0x01	; 1
    1d66:	89 87       	std	Y+9, r24	; 0x09
    1d68:	21 c0       	rjmp	.+66     	; 0x1dac <HX711_read_raw+0xda>
		}else{
			if(self->ampcount){
    1d6a:	8b 81       	ldd	r24, Y+3	; 0x03
    1d6c:	88 23       	and	r24, r24
				HX711_read_bit();
    1d6e:	29 f0       	breq	.+10     	; 0x1d7a <HX711_read_raw+0xa8>
    1d70:	01 df       	rcall	.-510    	; 0x1b74 <HX711_read_bit>
				self->ampcount--;
    1d72:	8b 81       	ldd	r24, Y+3	; 0x03
    1d74:	81 50       	subi	r24, 0x01	; 1
    1d76:	8b 83       	std	Y+3, r24	; 0x03
    1d78:	19 c0       	rjmp	.+50     	; 0x1dac <HX711_read_raw+0xda>
			}else{
				value=*(ptr);
    1d7a:	e0 91 27 03 	lds	r30, 0x0327	; 0x800327 <ptr>
    1d7e:	f0 91 28 03 	lds	r31, 0x0328	; 0x800328 <ptr+0x1>
    1d82:	80 81       	ld	r24, Z
    1d84:	91 81       	ldd	r25, Z+1	; 0x01
    1d86:	a2 81       	ldd	r26, Z+2	; 0x02
    1d88:	b3 81       	ldd	r27, Z+3	; 0x03
				self->raw_reading=value;
    1d8a:	8a 87       	std	Y+10, r24	; 0x0a
    1d8c:	9b 87       	std	Y+11, r25	; 0x0b
    1d8e:	ac 87       	std	Y+12, r26	; 0x0c
    1d90:	bd 87       	std	Y+13, r27	; 0x0d
				self->bitcount=HX711_ADC_bits;
    1d92:	88 e1       	ldi	r24, 0x18	; 24
    1d94:	8c 83       	std	Y+4, r24	; 0x04
				self->bufferindex=HX711_VECT_SIZE-ONE;
    1d96:	83 e0       	ldi	r24, 0x03	; 3
    1d98:	89 87       	std	Y+9, r24	; 0x09
				self->ampcount=self->amplify;
    1d9a:	8a 81       	ldd	r24, Y+2	; 0x02
    1d9c:	8b 83       	std	Y+3, r24	; 0x03
				self->buffer[0]=ZERO;
    1d9e:	1d 82       	std	Y+5, r1	; 0x05
				self->buffer[1]=ZERO;
    1da0:	1e 82       	std	Y+6, r1	; 0x06
				self->buffer[2]=ZERO;
    1da2:	1f 82       	std	Y+7, r1	; 0x07
				self->buffer[3]=ZERO;
    1da4:	18 86       	std	Y+8, r1	; 0x08
				self->trigger=ONE;
    1da6:	81 e0       	ldi	r24, 0x01	; 1
    1da8:	89 83       	std	Y+1, r24	; 0x01
{
	self->readflag=ONE;
}
void HX711_reset_readflag(HX711* self)
{
	self->readflag=ZERO;
    1daa:	18 82       	st	Y, r1
				/***Reset ready for next query***/
				HX711_reset_readflag(self);
			}
		}
	}
	return self->raw_reading;
    1dac:	6a 85       	ldd	r22, Y+10	; 0x0a
    1dae:	7b 85       	ldd	r23, Y+11	; 0x0b
    1db0:	8c 85       	ldd	r24, Y+12	; 0x0c
    1db2:	9d 85       	ldd	r25, Y+13	; 0x0d
}
    1db4:	df 91       	pop	r29
    1db6:	cf 91       	pop	r28
    1db8:	1f 91       	pop	r17
    1dba:	0f 91       	pop	r16
    1dbc:	08 95       	ret

00001dbe <HX711enable>:
int8_t HX711_get_divfactor_32(HX711* self);
int8_t HX711_get_divfactor_64(HX711* self);
int8_t HX711_get_divfactor_128(HX711* self);
/***Procedure & Function***/
HX711 HX711enable(volatile uint8_t *ddr, volatile uint8_t *pin, volatile uint8_t *port, uint8_t datapin, uint8_t clkpin)
{
    1dbe:	ef 92       	push	r14
    1dc0:	0f 93       	push	r16
    1dc2:	fc 01       	movw	r30, r24
    1dc4:	da 01       	movw	r26, r20
	//LOCAL VARIABLES
	uint8_t tSREG;
	tSREG=SREG;
    1dc6:	5f b7       	in	r21, 0x3f	; 63
	SREG&=~(1<<GLOBAL_INTERRUPT_ENABLE);
    1dc8:	8f b7       	in	r24, 0x3f	; 63
    1dca:	8f 77       	andi	r24, 0x7F	; 127
    1dcc:	8f bf       	out	0x3f, r24	; 63
	//ALLOCAO MEMORIA PARA Estrutura
	HX711 hx711;
	//import parametros
	hx711_DDR=ddr;
    1dce:	70 93 2b 03 	sts	0x032B, r23	; 0x80032b <hx711_DDR+0x1>
    1dd2:	60 93 2a 03 	sts	0x032A, r22	; 0x80032a <hx711_DDR>
	hx711_PIN=pin;
    1dd6:	b0 93 24 03 	sts	0x0324, r27	; 0x800324 <hx711_PIN+0x1>
    1dda:	a0 93 23 03 	sts	0x0323, r26	; 0x800323 <hx711_PIN>
	hx711_PORT=port;
    1dde:	30 93 26 03 	sts	0x0326, r19	; 0x800326 <hx711_PORT+0x1>
    1de2:	20 93 25 03 	sts	0x0325, r18	; 0x800325 <hx711_PORT>
	hx711_datapin=datapin;
    1de6:	00 93 22 03 	sts	0x0322, r16	; 0x800322 <hx711_datapin>
	hx711_clkpin=clkpin;
    1dea:	e0 92 29 03 	sts	0x0329, r14	; 0x800329 <hx711_clkpin>
	//inic variables
	*hx711_DDR |= (ONE<<clkpin);
    1dee:	db 01       	movw	r26, r22
    1df0:	4c 91       	ld	r20, X
    1df2:	81 e0       	ldi	r24, 0x01	; 1
    1df4:	90 e0       	ldi	r25, 0x00	; 0
    1df6:	9c 01       	movw	r18, r24
    1df8:	02 c0       	rjmp	.+4      	; 0x1dfe <HX711enable+0x40>
    1dfa:	22 0f       	add	r18, r18
    1dfc:	33 1f       	adc	r19, r19
    1dfe:	ea 94       	dec	r14
    1e00:	e2 f7       	brpl	.-8      	; 0x1dfa <HX711enable+0x3c>
    1e02:	24 2b       	or	r18, r20
    1e04:	2c 93       	st	X, r18
	*hx711_PORT |= (ONE<<datapin);
    1e06:	a0 91 25 03 	lds	r26, 0x0325	; 0x800325 <hx711_PORT>
    1e0a:	b0 91 26 03 	lds	r27, 0x0326	; 0x800326 <hx711_PORT+0x1>
    1e0e:	2c 91       	ld	r18, X
    1e10:	02 c0       	rjmp	.+4      	; 0x1e16 <HX711enable+0x58>
    1e12:	88 0f       	add	r24, r24
    1e14:	99 1f       	adc	r25, r25
    1e16:	0a 95       	dec	r16
    1e18:	e2 f7       	brpl	.-8      	; 0x1e12 <HX711enable+0x54>
    1e1a:	82 2b       	or	r24, r18
    1e1c:	8c 93       	st	X, r24
	hx711.get_offset_64=HX711_get_offset_64;
	hx711.get_offset_128=HX711_get_offset_128;
	hx711.get_divfactor_32=HX711_get_divfactor_32;
	hx711.get_divfactor_64=HX711_get_divfactor_64;
	hx711.get_divfactor_128=HX711_get_divfactor_128;
	SREG=tSREG;
    1e1e:	5f bf       	out	0x3f, r21	; 63
	// returns a copy
	return hx711;
    1e20:	10 82       	st	Z, r1
    1e22:	11 82       	std	Z+1, r1	; 0x01
    1e24:	81 e0       	ldi	r24, 0x01	; 1
    1e26:	82 83       	std	Z+2, r24	; 0x02
    1e28:	83 83       	std	Z+3, r24	; 0x03
    1e2a:	88 e1       	ldi	r24, 0x18	; 24
    1e2c:	84 83       	std	Z+4, r24	; 0x04
    1e2e:	15 82       	std	Z+5, r1	; 0x05
    1e30:	16 82       	std	Z+6, r1	; 0x06
    1e32:	17 82       	std	Z+7, r1	; 0x07
    1e34:	10 86       	std	Z+8, r1	; 0x08
    1e36:	83 e0       	ldi	r24, 0x03	; 3
    1e38:	81 87       	std	Z+9, r24	; 0x09
    1e3a:	12 86       	std	Z+10, r1	; 0x0a
    1e3c:	13 86       	std	Z+11, r1	; 0x0b
    1e3e:	14 86       	std	Z+12, r1	; 0x0c
    1e40:	15 86       	std	Z+13, r1	; 0x0d
    1e42:	16 86       	std	Z+14, r1	; 0x0e
    1e44:	17 86       	std	Z+15, r1	; 0x0f
    1e46:	10 8a       	std	Z+16, r1	; 0x10
    1e48:	11 8a       	std	Z+17, r1	; 0x11
    1e4a:	12 8a       	std	Z+18, r1	; 0x12
    1e4c:	13 8a       	std	Z+19, r1	; 0x13
    1e4e:	14 8a       	std	Z+20, r1	; 0x14
    1e50:	15 8a       	std	Z+21, r1	; 0x15
    1e52:	16 8a       	std	Z+22, r1	; 0x16
    1e54:	82 e0       	ldi	r24, 0x02	; 2
    1e56:	91 e9       	ldi	r25, 0x91	; 145
    1e58:	a0 e0       	ldi	r26, 0x00	; 0
    1e5a:	b0 e0       	ldi	r27, 0x00	; 0
    1e5c:	87 8b       	std	Z+23, r24	; 0x17
    1e5e:	90 8f       	std	Z+24, r25	; 0x18
    1e60:	a1 8f       	std	Z+25, r26	; 0x19
    1e62:	b2 8f       	std	Z+26, r27	; 0x1a
    1e64:	8c ea       	ldi	r24, 0xAC	; 172
    1e66:	90 e2       	ldi	r25, 0x20	; 32
    1e68:	a1 e0       	ldi	r26, 0x01	; 1
    1e6a:	b0 e0       	ldi	r27, 0x00	; 0
    1e6c:	83 8f       	std	Z+27, r24	; 0x1b
    1e6e:	94 8f       	std	Z+28, r25	; 0x1c
    1e70:	a5 8f       	std	Z+29, r26	; 0x1d
    1e72:	b6 8f       	std	Z+30, r27	; 0x1e
    1e74:	8a ed       	ldi	r24, 0xDA	; 218
    1e76:	9c e3       	ldi	r25, 0x3C	; 60
    1e78:	a2 e0       	ldi	r26, 0x02	; 2
    1e7a:	b0 e0       	ldi	r27, 0x00	; 0
    1e7c:	87 8f       	std	Z+31, r24	; 0x1f
    1e7e:	90 a3       	std	Z+32, r25	; 0x20
    1e80:	a1 a3       	std	Z+33, r26	; 0x21
    1e82:	b2 a3       	std	Z+34, r27	; 0x22
    1e84:	87 e1       	ldi	r24, 0x17	; 23
    1e86:	83 a3       	std	Z+35, r24	; 0x23
    1e88:	8e e2       	ldi	r24, 0x2E	; 46
    1e8a:	86 a3       	std	Z+38, r24	; 0x26
    1e8c:	8c e5       	ldi	r24, 0x5C	; 92
    1e8e:	81 a7       	std	Z+41, r24	; 0x29
    1e90:	14 a6       	std	Z+44, r1	; 0x2c
    1e92:	83 eb       	ldi	r24, 0xB3	; 179
    1e94:	9d e0       	ldi	r25, 0x0D	; 13
    1e96:	96 a7       	std	Z+46, r25	; 0x2e
    1e98:	85 a7       	std	Z+45, r24	; 0x2d
    1e9a:	87 eb       	ldi	r24, 0xB7	; 183
    1e9c:	9d e0       	ldi	r25, 0x0D	; 13
    1e9e:	90 ab       	std	Z+48, r25	; 0x30
    1ea0:	87 a7       	std	Z+47, r24	; 0x2f
    1ea2:	8a eb       	ldi	r24, 0xBA	; 186
    1ea4:	9d e0       	ldi	r25, 0x0D	; 13
    1ea6:	92 ab       	std	Z+50, r25	; 0x32
    1ea8:	81 ab       	std	Z+49, r24	; 0x31
    1eaa:	8e ee       	ldi	r24, 0xEE	; 238
    1eac:	9d e0       	ldi	r25, 0x0D	; 13
    1eae:	94 ab       	std	Z+52, r25	; 0x34
    1eb0:	83 ab       	std	Z+51, r24	; 0x33
    1eb2:	89 e6       	ldi	r24, 0x69	; 105
    1eb4:	9e e0       	ldi	r25, 0x0E	; 14
    1eb6:	96 ab       	std	Z+54, r25	; 0x36
    1eb8:	85 ab       	std	Z+53, r24	; 0x35
    1eba:	89 e0       	ldi	r24, 0x09	; 9
    1ebc:	9e e0       	ldi	r25, 0x0E	; 14
    1ebe:	90 af       	std	Z+56, r25	; 0x38
    1ec0:	87 ab       	std	Z+55, r24	; 0x37
    1ec2:	8c e4       	ldi	r24, 0x4C	; 76
    1ec4:	9e e0       	ldi	r25, 0x0E	; 14
    1ec6:	92 af       	std	Z+58, r25	; 0x3a
    1ec8:	81 af       	std	Z+57, r24	; 0x39
    1eca:	8e e4       	ldi	r24, 0x4E	; 78
    1ecc:	9e e0       	ldi	r25, 0x0E	; 14
    1ece:	94 af       	std	Z+60, r25	; 0x3c
    1ed0:	83 af       	std	Z+59, r24	; 0x3b
    1ed2:	84 e5       	ldi	r24, 0x54	; 84
    1ed4:	9e e0       	ldi	r25, 0x0E	; 14
    1ed6:	96 af       	std	Z+62, r25	; 0x3e
    1ed8:	85 af       	std	Z+61, r24	; 0x3d
    1eda:	df 01       	movw	r26, r30
    1edc:	df 96       	adiw	r26, 0x3f	; 63
    1ede:	8a e5       	ldi	r24, 0x5A	; 90
    1ee0:	9e e0       	ldi	r25, 0x0E	; 14
    1ee2:	11 96       	adiw	r26, 0x01	; 1
    1ee4:	9c 93       	st	X, r25
    1ee6:	8e 93       	st	-X, r24
    1ee8:	12 96       	adiw	r26, 0x02	; 2
    1eea:	80 e6       	ldi	r24, 0x60	; 96
    1eec:	9e e0       	ldi	r25, 0x0E	; 14
    1eee:	11 96       	adiw	r26, 0x01	; 1
    1ef0:	9c 93       	st	X, r25
    1ef2:	8e 93       	st	-X, r24
    1ef4:	12 96       	adiw	r26, 0x02	; 2
    1ef6:	83 e6       	ldi	r24, 0x63	; 99
    1ef8:	9e e0       	ldi	r25, 0x0E	; 14
    1efa:	11 96       	adiw	r26, 0x01	; 1
    1efc:	9c 93       	st	X, r25
    1efe:	8e 93       	st	-X, r24
    1f00:	12 96       	adiw	r26, 0x02	; 2
    1f02:	86 e6       	ldi	r24, 0x66	; 102
    1f04:	9e e0       	ldi	r25, 0x0E	; 14
    1f06:	8d 93       	st	X+, r24
    1f08:	9c 93       	st	X, r25
}
    1f0a:	cf 01       	movw	r24, r30
    1f0c:	0f 91       	pop	r16
    1f0e:	ef 90       	pop	r14
    1f10:	08 95       	ret

00001f12 <PORTINIT>:
** procedure and function
*/
void PORTINIT(void)
{
	//Control buttons
	PORTF|=0x3F;
    1f12:	e2 e6       	ldi	r30, 0x62	; 98
    1f14:	f0 e0       	ldi	r31, 0x00	; 0
    1f16:	80 81       	ld	r24, Z
    1f18:	8f 63       	ori	r24, 0x3F	; 63
    1f1a:	80 83       	st	Z, r24
	//troubleshooting output
	DDRC=0xFF;
    1f1c:	8f ef       	ldi	r24, 0xFF	; 255
    1f1e:	84 bb       	out	0x14, r24	; 20
	PORTC=0xFF;
    1f20:	85 bb       	out	0x15, r24	; 21
    1f22:	08 95       	ret

00001f24 <main>:
** Header
*/
void PORTINIT();
/****MAIN****/
int main(void)
{
    1f24:	cf 93       	push	r28
    1f26:	df 93       	push	r29
    1f28:	cd b7       	in	r28, 0x3d	; 61
    1f2a:	de b7       	in	r29, 0x3e	; 62
    1f2c:	cd 5d       	subi	r28, 0xDD	; 221
    1f2e:	d1 09       	sbc	r29, r1
    1f30:	0f b6       	in	r0, 0x3f	; 63
    1f32:	f8 94       	cli
    1f34:	de bf       	out	0x3e, r29	; 62
    1f36:	0f be       	out	0x3f, r0	; 63
    1f38:	cd bf       	out	0x3d, r28	; 61
	HX711_ptr=&HX711_data;
    1f3a:	0f 2e       	mov	r0, r31
    1f3c:	fe e4       	ldi	r31, 0x4E	; 78
    1f3e:	cf 2e       	mov	r12, r31
    1f40:	f3 e0       	ldi	r31, 0x03	; 3
    1f42:	df 2e       	mov	r13, r31
    1f44:	f0 2d       	mov	r31, r0
    1f46:	d0 92 65 03 	sts	0x0365, r13	; 0x800365 <HX711_ptr+0x1>
    1f4a:	c0 92 64 03 	sts	0x0364, r12	; 0x800364 <HX711_ptr>
	
	PORTINIT();
    1f4e:	e1 df       	rcall	.-62     	; 0x1f12 <PORTINIT>
	/***INICIALIZE OBJECTS***/
	F = EXPLODEenable();
    1f50:	ce 01       	movw	r24, r28
    1f52:	83 59       	subi	r24, 0x93	; 147
    1f54:	9f 4f       	sbci	r25, 0xFF	; 255
    1f56:	0e 94 54 05 	call	0xaa8	; 0xaa8 <EXPLODEenable>
    1f5a:	84 e1       	ldi	r24, 0x14	; 20
    1f5c:	fe 01       	movw	r30, r28
    1f5e:	e3 59       	subi	r30, 0x93	; 147
    1f60:	ff 4f       	sbci	r31, 0xFF	; 255
    1f62:	a3 ee       	ldi	r26, 0xE3	; 227
    1f64:	b3 e0       	ldi	r27, 0x03	; 3
    1f66:	01 90       	ld	r0, Z+
    1f68:	0d 92       	st	X+, r0
    1f6a:	8a 95       	dec	r24
    1f6c:	e1 f7       	brne	.-8      	; 0x1f66 <main+0x42>
	FUNC function = FUNCenable();
    1f6e:	ce 01       	movw	r24, r28
    1f70:	01 96       	adiw	r24, 0x01	; 1
    1f72:	ca d9       	rcall	.-3180   	; 0x1308 <FUNCenable>
    1f74:	2d 96       	adiw	r28, 0x0d	; 13
    1f76:	2e ac       	ldd	r2, Y+62	; 0x3e
    1f78:	3f ac       	ldd	r3, Y+63	; 0x3f
    1f7a:	2d 97       	sbiw	r28, 0x0d	; 13
	lcd0 = LCD0enable(&DDRA,&PINA,&PORTA);
    1f7c:	2b e3       	ldi	r18, 0x3B	; 59
    1f7e:	30 e0       	ldi	r19, 0x00	; 0
    1f80:	49 e3       	ldi	r20, 0x39	; 57
    1f82:	50 e0       	ldi	r21, 0x00	; 0
    1f84:	6a e3       	ldi	r22, 0x3A	; 58
    1f86:	70 e0       	ldi	r23, 0x00	; 0
    1f88:	ce 01       	movw	r24, r28
    1f8a:	8f 57       	subi	r24, 0x7F	; 127
    1f8c:	9f 4f       	sbci	r25, 0xFF	; 255
    1f8e:	7c dd       	rcall	.-1288   	; 0x1a88 <LCD0enable>
    1f90:	86 e1       	ldi	r24, 0x16	; 22
    1f92:	fe 01       	movw	r30, r28
    1f94:	ef 57       	subi	r30, 0x7F	; 127
    1f96:	ff 4f       	sbci	r31, 0xFF	; 255
    1f98:	a6 e8       	ldi	r26, 0x86	; 134
    1f9a:	b3 e0       	ldi	r27, 0x03	; 3
    1f9c:	01 90       	ld	r0, Z+
    1f9e:	0d 92       	st	X+, r0
    1fa0:	8a 95       	dec	r24
    1fa2:	e1 f7       	brne	.-8      	; 0x1f9c <main+0x78>
	TIMER_COUNTER0 timer0 = TIMER_COUNTER0enable(2,2); //2,2
    1fa4:	42 e0       	ldi	r20, 0x02	; 2
    1fa6:	62 e0       	ldi	r22, 0x02	; 2
    1fa8:	ce 01       	movw	r24, r28
    1faa:	83 5b       	subi	r24, 0xB3	; 179
    1fac:	9f 4f       	sbci	r25, 0xFF	; 255
    1fae:	0e 94 5b 02 	call	0x4b6	; 0x4b6 <TIMER_COUNTER0enable>
	TIMER_COUNTER1 timer1 = TIMER_COUNTER1enable(4,2);
    1fb2:	42 e0       	ldi	r20, 0x02	; 2
    1fb4:	64 e0       	ldi	r22, 0x04	; 4
    1fb6:	ce 01       	movw	r24, r28
    1fb8:	83 5a       	subi	r24, 0xA3	; 163
    1fba:	9f 4f       	sbci	r25, 0xFF	; 255
    1fbc:	0e 94 9f 02 	call	0x53e	; 0x53e <TIMER_COUNTER1enable>
	hx = HX711enable(&DDRF, &PINF, &PORTF, 6, 7);
    1fc0:	0f 2e       	mov	r0, r31
    1fc2:	f7 e0       	ldi	r31, 0x07	; 7
    1fc4:	ef 2e       	mov	r14, r31
    1fc6:	f0 2d       	mov	r31, r0
    1fc8:	06 e0       	ldi	r16, 0x06	; 6
    1fca:	22 e6       	ldi	r18, 0x62	; 98
    1fcc:	30 e0       	ldi	r19, 0x00	; 0
    1fce:	40 e2       	ldi	r20, 0x20	; 32
    1fd0:	50 e0       	ldi	r21, 0x00	; 0
    1fd2:	61 e6       	ldi	r22, 0x61	; 97
    1fd4:	70 e0       	ldi	r23, 0x00	; 0
    1fd6:	ce 01       	movw	r24, r28
    1fd8:	89 56       	subi	r24, 0x69	; 105
    1fda:	9f 4f       	sbci	r25, 0xFF	; 255
    1fdc:	f0 de       	rcall	.-544    	; 0x1dbe <HX711enable>
    1fde:	87 e4       	ldi	r24, 0x47	; 71
    1fe0:	fe 01       	movw	r30, r28
    1fe2:	e9 56       	subi	r30, 0x69	; 105
    1fe4:	ff 4f       	sbci	r31, 0xFF	; 255
    1fe6:	ac e9       	ldi	r26, 0x9C	; 156
    1fe8:	b3 e0       	ldi	r27, 0x03	; 3
    1fea:	01 90       	ld	r0, Z+
    1fec:	0d 92       	st	X+, r0
    1fee:	8a 95       	dec	r24
    1ff0:	e1 f7       	brne	.-8      	; 0x1fea <main+0xc6>
	eprom = EEPROMenable();
    1ff2:	ce 01       	movw	r24, r28
    1ff4:	83 59       	subi	r24, 0x93	; 147
    1ff6:	9f 4f       	sbci	r25, 0xFF	; 255
    1ff8:	0e 94 cd 04 	call	0x99a	; 0x99a <EEPROMenable>
    1ffc:	8e e1       	ldi	r24, 0x1E	; 30
    1ffe:	fe 01       	movw	r30, r28
    2000:	e3 59       	subi	r30, 0x93	; 147
    2002:	ff 4f       	sbci	r31, 0xFF	; 255
    2004:	a0 e3       	ldi	r26, 0x30	; 48
    2006:	b3 e0       	ldi	r27, 0x03	; 3
    2008:	01 90       	ld	r0, Z+
    200a:	0d 92       	st	X+, r0
    200c:	8a 95       	dec	r24
    200e:	e1 f7       	brne	.-8      	; 0x2008 <main+0xe4>
	
	float value_64=0;
	float value_128=0;
	
	// Get default values to memory
	HX711_data.offset_32=hx.get_offset_32(&hx);
    2010:	0c e9       	ldi	r16, 0x9C	; 156
    2012:	13 e0       	ldi	r17, 0x03	; 3
    2014:	d8 01       	movw	r26, r16
    2016:	db 96       	adiw	r26, 0x3b	; 59
    2018:	6d 91       	ld	r22, X+
    201a:	7c 91       	ld	r23, X
    201c:	dc 97       	sbiw	r26, 0x3c	; 60
    201e:	c8 01       	movw	r24, r16
    2020:	fb 01       	movw	r30, r22
    2022:	09 95       	icall
    2024:	d6 01       	movw	r26, r12
    2026:	6d 93       	st	X+, r22
    2028:	7d 93       	st	X+, r23
    202a:	8d 93       	st	X+, r24
    202c:	9c 93       	st	X, r25
    202e:	13 97       	sbiw	r26, 0x03	; 3
	HX711_data.offset_64=hx.get_offset_64(&hx);
    2030:	f8 01       	movw	r30, r16
    2032:	65 ad       	ldd	r22, Z+61	; 0x3d
    2034:	76 ad       	ldd	r23, Z+62	; 0x3e
    2036:	c8 01       	movw	r24, r16
    2038:	fb 01       	movw	r30, r22
    203a:	09 95       	icall
    203c:	d6 01       	movw	r26, r12
    203e:	14 96       	adiw	r26, 0x04	; 4
    2040:	6d 93       	st	X+, r22
    2042:	7d 93       	st	X+, r23
    2044:	8d 93       	st	X+, r24
    2046:	9c 93       	st	X, r25
    2048:	17 97       	sbiw	r26, 0x07	; 7
	HX711_data.offset_128=hx.get_offset_128(&hx);
    204a:	60 91 db 03 	lds	r22, 0x03DB	; 0x8003db <hx+0x3f>
    204e:	70 91 dc 03 	lds	r23, 0x03DC	; 0x8003dc <hx+0x40>
    2052:	c8 01       	movw	r24, r16
    2054:	fb 01       	movw	r30, r22
    2056:	09 95       	icall
    2058:	d6 01       	movw	r26, r12
    205a:	18 96       	adiw	r26, 0x08	; 8
    205c:	6d 93       	st	X+, r22
    205e:	7d 93       	st	X+, r23
    2060:	8d 93       	st	X+, r24
    2062:	9c 93       	st	X, r25
    2064:	1b 97       	sbiw	r26, 0x0b	; 11
	HX711_data.divfactor_32=hx.get_divfactor_32(&hx);
    2066:	e0 91 dd 03 	lds	r30, 0x03DD	; 0x8003dd <hx+0x41>
    206a:	f0 91 de 03 	lds	r31, 0x03DE	; 0x8003de <hx+0x42>
    206e:	c8 01       	movw	r24, r16
    2070:	09 95       	icall
    2072:	f6 01       	movw	r30, r12
    2074:	84 87       	std	Z+12, r24	; 0x0c
	HX711_data.divfactor_64=hx.get_divfactor_64(&hx);
    2076:	e0 91 df 03 	lds	r30, 0x03DF	; 0x8003df <hx+0x43>
    207a:	f0 91 e0 03 	lds	r31, 0x03E0	; 0x8003e0 <hx+0x44>
    207e:	c8 01       	movw	r24, r16
    2080:	09 95       	icall
    2082:	d6 01       	movw	r26, r12
    2084:	1f 96       	adiw	r26, 0x0f	; 15
    2086:	8c 93       	st	X, r24
	HX711_data.divfactor_128=hx.get_divfactor_128(&hx);
    2088:	e0 91 e1 03 	lds	r30, 0x03E1	; 0x8003e1 <hx+0x45>
    208c:	f0 91 e2 03 	lds	r31, 0x03E2	; 0x8003e2 <hx+0x46>
    2090:	c8 01       	movw	r24, r16
    2092:	09 95       	icall
    2094:	f6 01       	movw	r30, r12
    2096:	82 8b       	std	Z+18, r24	; 0x12

	tmp=0;
    2098:	10 92 2c 03 	sts	0x032C, r1	; 0x80032c <tmp>
    209c:	10 92 2d 03 	sts	0x032D, r1	; 0x80032d <tmp+0x1>
    20a0:	10 92 2e 03 	sts	0x032E, r1	; 0x80032e <tmp+0x2>
    20a4:	10 92 2f 03 	sts	0x032F, r1	; 0x80032f <tmp+0x3>
	/***Parameters timers***/
	//vector[0]=255;
	//vector[1]=255;
	//vector[2]=255;
	//uint8_t* ptr=vector;
	timer0.compoutmode(1);
    20a8:	2f 96       	adiw	r28, 0x0f	; 15
    20aa:	ee ad       	ldd	r30, Y+62	; 0x3e
    20ac:	ff ad       	ldd	r31, Y+63	; 0x3f
    20ae:	2f 97       	sbiw	r28, 0x0f	; 15
    20b0:	81 e0       	ldi	r24, 0x01	; 1
    20b2:	09 95       	icall
	timer0.compare(79); // 1 -> 159 -> 20 us, 1 -> 79 -> 10 us, 1 -> 15 -> 2 us, 8 -> 99 -> 100 us, 8 -> 79 -> 80 us
    20b4:	65 96       	adiw	r28, 0x15	; 21
    20b6:	ee ad       	ldd	r30, Y+62	; 0x3e
    20b8:	ff ad       	ldd	r31, Y+63	; 0x3f
    20ba:	65 97       	sbiw	r28, 0x15	; 21
    20bc:	8f e4       	ldi	r24, 0x4F	; 79
    20be:	09 95       	icall
	timer0.start(8); // 1 -> 32 us , 8 -> 256 us , 32 64 128 256 1024
    20c0:	6b 96       	adiw	r28, 0x1b	; 27
    20c2:	ee ad       	ldd	r30, Y+62	; 0x3e
    20c4:	ff ad       	ldd	r31, Y+63	; 0x3f
    20c6:	6b 97       	sbiw	r28, 0x1b	; 27
    20c8:	88 e0       	ldi	r24, 0x08	; 8
    20ca:	90 e0       	ldi	r25, 0x00	; 0
    20cc:	09 95       	icall
	
	// to be used to jump menu for calibration in progress
	timer1.compoutmodeA(1);
    20ce:	6f 96       	adiw	r28, 0x1f	; 31
    20d0:	ee ad       	ldd	r30, Y+62	; 0x3e
    20d2:	ff ad       	ldd	r31, Y+63	; 0x3f
    20d4:	6f 97       	sbiw	r28, 0x1f	; 31
    20d6:	81 e0       	ldi	r24, 0x01	; 1
    20d8:	09 95       	icall
	timer1.compareA(62800); // 256 -> 62800 -> 2 s
    20da:	a5 96       	adiw	r28, 0x25	; 37
    20dc:	ee ad       	ldd	r30, Y+62	; 0x3e
    20de:	ff ad       	ldd	r31, Y+63	; 0x3f
    20e0:	a5 97       	sbiw	r28, 0x25	; 37
    20e2:	80 e5       	ldi	r24, 0x50	; 80
    20e4:	95 ef       	ldi	r25, 0xF5	; 245
    20e6:	09 95       	icall
	timer1.start(256);
    20e8:	ab 96       	adiw	r28, 0x2b	; 43
    20ea:	ee ad       	ldd	r30, Y+62	; 0x3e
    20ec:	ff ad       	ldd	r31, Y+63	; 0x3f
    20ee:	ab 97       	sbiw	r28, 0x2b	; 43
    20f0:	80 e0       	ldi	r24, 0x00	; 0
    20f2:	91 e0       	ldi	r25, 0x01	; 1
    20f4:	09 95       	icall
	
	// HX711 Gain
	hx.set_amplify(&hx,64); // 32 64 128
    20f6:	d8 01       	movw	r26, r16
    20f8:	d3 96       	adiw	r26, 0x33	; 51
    20fa:	ed 91       	ld	r30, X+
    20fc:	fc 91       	ld	r31, X
    20fe:	d4 97       	sbiw	r26, 0x34	; 52
    2100:	60 e4       	ldi	r22, 0x40	; 64
    2102:	c8 01       	movw	r24, r16
    2104:	09 95       	icall
	
	//Get stored calibration values and put them to effect
	eprom.read_block(HX711_ptr, (const void*) ZERO, sizeblock);
    2106:	e0 91 48 03 	lds	r30, 0x0348	; 0x800348 <eprom+0x18>
    210a:	f0 91 49 03 	lds	r31, 0x0349	; 0x800349 <eprom+0x19>
    210e:	46 e1       	ldi	r20, 0x16	; 22
    2110:	50 e0       	ldi	r21, 0x00	; 0
    2112:	60 e0       	ldi	r22, 0x00	; 0
    2114:	70 e0       	ldi	r23, 0x00	; 0
    2116:	80 91 64 03 	lds	r24, 0x0364	; 0x800364 <HX711_ptr>
    211a:	90 91 65 03 	lds	r25, 0x0365	; 0x800365 <HX711_ptr+0x1>
    211e:	09 95       	icall
	if(HX711_ptr->status == 1){
    2120:	00 91 64 03 	lds	r16, 0x0364	; 0x800364 <HX711_ptr>
    2124:	10 91 65 03 	lds	r17, 0x0365	; 0x800365 <HX711_ptr+0x1>
    2128:	f8 01       	movw	r30, r16
    212a:	85 89       	ldd	r24, Z+21	; 0x15
    212c:	81 30       	cpi	r24, 0x01	; 1
    212e:	91 f4       	brne	.+36     	; 0x2154 <main+0x230>
		memcpy ( hx.ptrcal(&hx), HX711_ptr, sizeblock );
    2130:	e0 91 d5 03 	lds	r30, 0x03D5	; 0x8003d5 <hx+0x39>
    2134:	f0 91 d6 03 	lds	r31, 0x03D6	; 0x8003d6 <hx+0x3a>
    2138:	8c e9       	ldi	r24, 0x9C	; 156
    213a:	93 e0       	ldi	r25, 0x03	; 3
    213c:	09 95       	icall
    213e:	dc 01       	movw	r26, r24
    2140:	96 e1       	ldi	r25, 0x16	; 22
    2142:	f8 01       	movw	r30, r16
    2144:	01 90       	ld	r0, Z+
    2146:	0d 92       	st	X+, r0
    2148:	9a 95       	dec	r25
    214a:	e1 f7       	brne	.-8      	; 0x2144 <main+0x220>
		PORTC^=(ONE<<5); // troubleshooting
    214c:	95 b3       	in	r25, 0x15	; 21
    214e:	80 e2       	ldi	r24, 0x20	; 32
    2150:	89 27       	eor	r24, r25
    2152:	85 bb       	out	0x15, r24	; 21
	}
	/***********************************************************************************************/
	while(TRUE){
		/******PREAMBLE******/
		lcd0.reboot();
    2154:	06 e8       	ldi	r16, 0x86	; 134
    2156:	13 e0       	ldi	r17, 0x03	; 3
		/************INPUT***********/
		F.boot(&F,PINF);
    2158:	0f 2e       	mov	r0, r31
    215a:	f3 ee       	ldi	r31, 0xE3	; 227
    215c:	ef 2e       	mov	r14, r31
    215e:	f3 e0       	ldi	r31, 0x03	; 3
    2160:	ff 2e       	mov	r15, r31
    2162:	f0 2d       	mov	r31, r0
				lcd0.gotoxy(0,3);
				lcd0.string_size("SETUP DIVFACTOR",15);
				
				// Jump Menus signal
				if(signal==2){
					Menu='1';
    2164:	0f 2e       	mov	r0, r31
    2166:	f1 e3       	ldi	r31, 0x31	; 49
    2168:	9f 2e       	mov	r9, r31
    216a:	f0 2d       	mov	r31, r0
				//lcd0.string_size(function.i16toa(counter_2), 3); //for troubleshooting
				
				lcd0.gotoxy(0,3); //TITLE
				lcd0.string_size("Weight Scale", 12); //TITLE
				
				value_64=hx.raw_average(&hx, average_n); // 25 50, smaller means faster or more readings
    216c:	0f 2e       	mov	r0, r31
    216e:	fc e9       	ldi	r31, 0x9C	; 156
    2170:	cf 2e       	mov	r12, r31
    2172:	f3 e0       	ldi	r31, 0x03	; 3
    2174:	df 2e       	mov	r13, r31
    2176:	f0 2d       	mov	r31, r0
				//lcd0.gotoxy(1,0);
				//lcd0.string_size(function.ftoa(value_64, result, ZERO), 13); lcd0.string_size("raw_av", 6);
				
				if(F.hl(&F) & ONE){ // calibrate offset by pressing button 1
					PORTC^=(ONE<<5); // troubleshooting
    2178:	68 94       	set
    217a:	88 24       	eor	r8, r8
    217c:	85 f8       	bld	r8, 5
		PORTC^=(ONE<<5); // troubleshooting
	}
	/***********************************************************************************************/
	while(TRUE){
		/******PREAMBLE******/
		lcd0.reboot();
    217e:	d8 01       	movw	r26, r16
    2180:	54 96       	adiw	r26, 0x14	; 20
    2182:	ed 91       	ld	r30, X+
    2184:	fc 91       	ld	r31, X
    2186:	55 97       	sbiw	r26, 0x15	; 21
    2188:	09 95       	icall
		/************INPUT***********/
		F.boot(&F,PINF);
    218a:	60 b1       	in	r22, 0x00	; 0
    218c:	d7 01       	movw	r26, r14
    218e:	14 96       	adiw	r26, 0x04	; 4
    2190:	ed 91       	ld	r30, X+
    2192:	fc 91       	ld	r31, X
    2194:	15 97       	sbiw	r26, 0x05	; 5
    2196:	c7 01       	movw	r24, r14
    2198:	09 95       	icall
		// tmp also entry from interrupt routine
		
		/****************************/
		switch(Menu){
    219a:	80 91 00 01 	lds	r24, 0x0100	; 0x800100 <__DATA_REGION_ORIGIN__>
    219e:	82 33       	cpi	r24, 0x32	; 50
    21a0:	09 f4       	brne	.+2      	; 0x21a4 <main+0x280>
    21a2:	dc c0       	rjmp	.+440    	; 0x235c <main+0x438>
    21a4:	83 33       	cpi	r24, 0x33	; 51
    21a6:	09 f4       	brne	.+2      	; 0x21aa <main+0x286>
    21a8:	fa c0       	rjmp	.+500    	; 0x239e <main+0x47a>
    21aa:	81 33       	cpi	r24, 0x31	; 49
    21ac:	09 f0       	breq	.+2      	; 0x21b0 <main+0x28c>
    21ae:	0b c1       	rjmp	.+534    	; 0x23c6 <main+0x4a2>
			/***MENU 1***/
			case '1': // Main Program Menu			
				//lcd0.gotoxy(0,0); //for troubleshooting
				//lcd0.string_size(function.i16toa(counter_2), 3); //for troubleshooting
				
				lcd0.gotoxy(0,3); //TITLE
    21b0:	d8 01       	movw	r26, r16
    21b2:	52 96       	adiw	r26, 0x12	; 18
    21b4:	ed 91       	ld	r30, X+
    21b6:	fc 91       	ld	r31, X
    21b8:	53 97       	sbiw	r26, 0x13	; 19
    21ba:	63 e0       	ldi	r22, 0x03	; 3
    21bc:	70 e0       	ldi	r23, 0x00	; 0
    21be:	80 e0       	ldi	r24, 0x00	; 0
    21c0:	90 e0       	ldi	r25, 0x00	; 0
    21c2:	09 95       	icall
				lcd0.string_size("Weight Scale", 12); //TITLE
    21c4:	d8 01       	movw	r26, r16
    21c6:	1c 96       	adiw	r26, 0x0c	; 12
    21c8:	ed 91       	ld	r30, X+
    21ca:	fc 91       	ld	r31, X
    21cc:	1d 97       	sbiw	r26, 0x0d	; 13
    21ce:	6c e0       	ldi	r22, 0x0C	; 12
    21d0:	81 e0       	ldi	r24, 0x01	; 1
    21d2:	91 e0       	ldi	r25, 0x01	; 1
    21d4:	09 95       	icall
				
				value_64=hx.raw_average(&hx, average_n); // 25 50, smaller means faster or more readings
    21d6:	d6 01       	movw	r26, r12
    21d8:	d7 96       	adiw	r26, 0x37	; 55
    21da:	ed 91       	ld	r30, X+
    21dc:	fc 91       	ld	r31, X
    21de:	d8 97       	sbiw	r26, 0x38	; 56
    21e0:	6e e1       	ldi	r22, 0x1E	; 30
    21e2:	c6 01       	movw	r24, r12
    21e4:	09 95       	icall
    21e6:	2b 01       	movw	r4, r22
    21e8:	3c 01       	movw	r6, r24
				//lcd0.gotoxy(1,0);
				//lcd0.string_size(function.ftoa(value_64, result, ZERO), 13); lcd0.string_size("raw_av", 6);
				
				if(F.hl(&F) & ONE){ // calibrate offset by pressing button 1
    21ea:	d7 01       	movw	r26, r14
    21ec:	1e 96       	adiw	r26, 0x0e	; 14
    21ee:	ed 91       	ld	r30, X+
    21f0:	fc 91       	ld	r31, X
    21f2:	1f 97       	sbiw	r26, 0x0f	; 15
    21f4:	c7 01       	movw	r24, r14
    21f6:	09 95       	icall
    21f8:	80 ff       	sbrs	r24, 0
    21fa:	30 c0       	rjmp	.+96     	; 0x225c <main+0x338>
					PORTC^=(ONE<<5); // troubleshooting
    21fc:	85 b3       	in	r24, 0x15	; 21
    21fe:	88 25       	eor	r24, r8
					HX711_data.offset_64=value_64;
    2200:	85 bb       	out	0x15, r24	; 21
    2202:	c3 01       	movw	r24, r6
    2204:	b2 01       	movw	r22, r4
    2206:	7e d2       	rcall	.+1276   	; 0x2704 <__fixsfsi>
    2208:	60 93 52 03 	sts	0x0352, r22	; 0x800352 <HX711_data+0x4>
    220c:	70 93 53 03 	sts	0x0353, r23	; 0x800353 <HX711_data+0x5>
    2210:	80 93 54 03 	sts	0x0354, r24	; 0x800354 <HX711_data+0x6>
    2214:	90 93 55 03 	sts	0x0355, r25	; 0x800355 <HX711_data+0x7>
					HX711_data.status=1;
    2218:	b1 e0       	ldi	r27, 0x01	; 1
    221a:	b0 93 63 03 	sts	0x0363, r27	; 0x800363 <HX711_data+0x15>
					eprom.update_block(HX711_ptr, (void*) ZERO, sizeblock);
    221e:	e0 91 4c 03 	lds	r30, 0x034C	; 0x80034c <eprom+0x1c>
    2222:	f0 91 4d 03 	lds	r31, 0x034D	; 0x80034d <eprom+0x1d>
    2226:	46 e1       	ldi	r20, 0x16	; 22
    2228:	50 e0       	ldi	r21, 0x00	; 0
    222a:	60 e0       	ldi	r22, 0x00	; 0
    222c:	70 e0       	ldi	r23, 0x00	; 0
    222e:	80 91 64 03 	lds	r24, 0x0364	; 0x800364 <HX711_ptr>
    2232:	90 91 65 03 	lds	r25, 0x0365	; 0x800365 <HX711_ptr+0x1>
    2236:	09 95       	icall
					memcpy ( hx.ptrcal(&hx), HX711_ptr, sizeblock ); // Update new values
    2238:	a0 90 64 03 	lds	r10, 0x0364	; 0x800364 <HX711_ptr>
    223c:	b0 90 65 03 	lds	r11, 0x0365	; 0x800365 <HX711_ptr+0x1>
    2240:	d6 01       	movw	r26, r12
    2242:	d9 96       	adiw	r26, 0x39	; 57
    2244:	ed 91       	ld	r30, X+
    2246:	fc 91       	ld	r31, X
    2248:	da 97       	sbiw	r26, 0x3a	; 58
    224a:	c6 01       	movw	r24, r12
    224c:	09 95       	icall
    224e:	dc 01       	movw	r26, r24
    2250:	96 e1       	ldi	r25, 0x16	; 22
    2252:	f5 01       	movw	r30, r10
    2254:	01 90       	ld	r0, Z+
    2256:	0d 92       	st	X+, r0
    2258:	9a 95       	dec	r25
    225a:	e1 f7       	brne	.-8      	; 0x2254 <main+0x330>
				}
				
				//value_128=(value_64-hx.cal.offset_128)/hx.cal.divfactor_128; //value to be published to LCD
				value_64=(value_64-hx.cal.offset_64)/hx.cal.divfactor_64; //value to be published to LCD
    225c:	f6 01       	movw	r30, r12
    225e:	63 8d       	ldd	r22, Z+27	; 0x1b
    2260:	74 8d       	ldd	r23, Z+28	; 0x1c
    2262:	85 8d       	ldd	r24, Z+29	; 0x1d
    2264:	96 8d       	ldd	r25, Z+30	; 0x1e
    2266:	81 d2       	rcall	.+1282   	; 0x276a <__floatsisf>
    2268:	9b 01       	movw	r18, r22
    226a:	ac 01       	movw	r20, r24
    226c:	c3 01       	movw	r24, r6
    226e:	b2 01       	movw	r22, r4
    2270:	78 d1       	rcall	.+752    	; 0x2562 <__subsf3>
    2272:	2b 01       	movw	r4, r22
    2274:	3c 01       	movw	r6, r24
    2276:	d6 01       	movw	r26, r12
    2278:	96 96       	adiw	r26, 0x26	; 38
    227a:	6c 91       	ld	r22, X
    227c:	70 e0       	ldi	r23, 0x00	; 0
    227e:	80 e0       	ldi	r24, 0x00	; 0
    2280:	90 e0       	ldi	r25, 0x00	; 0
    2282:	73 d2       	rcall	.+1254   	; 0x276a <__floatsisf>
    2284:	9b 01       	movw	r18, r22
    2286:	ac 01       	movw	r20, r24
    2288:	c3 01       	movw	r24, r6
    228a:	b2 01       	movw	r22, r4
    228c:	d3 d1       	rcall	.+934    	; 0x2634 <__divsf3>
    228e:	2b 01       	movw	r4, r22
				
				//Display
				if (value_64 > 1000 || value_64 < -1000){
    2290:	3c 01       	movw	r6, r24
    2292:	20 e0       	ldi	r18, 0x00	; 0
    2294:	30 e0       	ldi	r19, 0x00	; 0
    2296:	4a e7       	ldi	r20, 0x7A	; 122
    2298:	54 e4       	ldi	r21, 0x44	; 68
    229a:	17 d3       	rcall	.+1582   	; 0x28ca <__gesf2>
    229c:	18 16       	cp	r1, r24
    229e:	4c f0       	brlt	.+18     	; 0x22b2 <main+0x38e>
    22a0:	20 e0       	ldi	r18, 0x00	; 0
    22a2:	30 e0       	ldi	r19, 0x00	; 0
    22a4:	4a e7       	ldi	r20, 0x7A	; 122
    22a6:	54 ec       	ldi	r21, 0xC4	; 196
    22a8:	c3 01       	movw	r24, r6
    22aa:	b2 01       	movw	r22, r4
    22ac:	bf d1       	rcall	.+894    	; 0x262c <__cmpsf2>
    22ae:	88 23       	and	r24, r24
    22b0:	34 f5       	brge	.+76     	; 0x22fe <main+0x3da>
					value_64 = value_64/1000;
					value_128 = value_128/1000;
					lcd0.gotoxy(2,0);
    22b2:	d8 01       	movw	r26, r16
    22b4:	52 96       	adiw	r26, 0x12	; 18
    22b6:	ed 91       	ld	r30, X+
    22b8:	fc 91       	ld	r31, X
    22ba:	53 97       	sbiw	r26, 0x13	; 19
    22bc:	60 e0       	ldi	r22, 0x00	; 0
    22be:	70 e0       	ldi	r23, 0x00	; 0
    22c0:	82 e0       	ldi	r24, 0x02	; 2
    22c2:	90 e0       	ldi	r25, 0x00	; 0
					lcd0.string_size(function.ftoa(value_64,result,3), 13); lcd0.string_size("Kg", 4);
    22c4:	09 95       	icall
    22c6:	f8 01       	movw	r30, r16
    22c8:	a4 84       	ldd	r10, Z+12	; 0x0c
    22ca:	b5 84       	ldd	r11, Z+13	; 0x0d
    22cc:	20 e0       	ldi	r18, 0x00	; 0
    22ce:	30 e0       	ldi	r19, 0x00	; 0
    22d0:	4a e7       	ldi	r20, 0x7A	; 122
    22d2:	54 e4       	ldi	r21, 0x44	; 68
    22d4:	c3 01       	movw	r24, r6
    22d6:	b2 01       	movw	r22, r4
    22d8:	ad d1       	rcall	.+858    	; 0x2634 <__divsf3>
    22da:	23 e0       	ldi	r18, 0x03	; 3
    22dc:	46 e6       	ldi	r20, 0x66	; 102
    22de:	53 e0       	ldi	r21, 0x03	; 3
    22e0:	f1 01       	movw	r30, r2
    22e2:	09 95       	icall
    22e4:	6d e0       	ldi	r22, 0x0D	; 13
    22e6:	f5 01       	movw	r30, r10
    22e8:	09 95       	icall
    22ea:	d8 01       	movw	r26, r16
    22ec:	1c 96       	adiw	r26, 0x0c	; 12
    22ee:	ed 91       	ld	r30, X+
    22f0:	fc 91       	ld	r31, X
    22f2:	1d 97       	sbiw	r26, 0x0d	; 13
    22f4:	64 e0       	ldi	r22, 0x04	; 4
    22f6:	8e e0       	ldi	r24, 0x0E	; 14
    22f8:	91 e0       	ldi	r25, 0x01	; 1
    22fa:	09 95       	icall
    22fc:	20 c0       	rjmp	.+64     	; 0x233e <main+0x41a>
					//lcd0.gotoxy(3,0);
					//lcd0.string_size(function.ftoa(value_128,result,3), 13); lcd0.string_size("Kg", 4);	
				}else{
					lcd0.gotoxy(2,0);
    22fe:	d8 01       	movw	r26, r16
    2300:	52 96       	adiw	r26, 0x12	; 18
    2302:	ed 91       	ld	r30, X+
    2304:	fc 91       	ld	r31, X
    2306:	53 97       	sbiw	r26, 0x13	; 19
    2308:	60 e0       	ldi	r22, 0x00	; 0
    230a:	70 e0       	ldi	r23, 0x00	; 0
    230c:	82 e0       	ldi	r24, 0x02	; 2
    230e:	90 e0       	ldi	r25, 0x00	; 0
    2310:	09 95       	icall
					lcd0.string_size(function.ftoa(value_64,result,ZERO), 13); lcd0.string_size("gram", 4);
    2312:	f8 01       	movw	r30, r16
    2314:	a4 84       	ldd	r10, Z+12	; 0x0c
    2316:	b5 84       	ldd	r11, Z+13	; 0x0d
    2318:	20 e0       	ldi	r18, 0x00	; 0
    231a:	46 e6       	ldi	r20, 0x66	; 102
    231c:	53 e0       	ldi	r21, 0x03	; 3
    231e:	c3 01       	movw	r24, r6
    2320:	b2 01       	movw	r22, r4
    2322:	f1 01       	movw	r30, r2
    2324:	09 95       	icall
    2326:	6d e0       	ldi	r22, 0x0D	; 13
    2328:	f5 01       	movw	r30, r10
    232a:	09 95       	icall
    232c:	d8 01       	movw	r26, r16
    232e:	1c 96       	adiw	r26, 0x0c	; 12
    2330:	ed 91       	ld	r30, X+
    2332:	fc 91       	ld	r31, X
    2334:	1d 97       	sbiw	r26, 0x0d	; 13
    2336:	64 e0       	ldi	r22, 0x04	; 4
    2338:	81 e1       	ldi	r24, 0x11	; 17
    233a:	91 e0       	ldi	r25, 0x01	; 1
    233c:	09 95       	icall
					//lcd0.string_size(function.ftoa(value_128,result,0), 13); lcd0.string_size("gram", 4);
				}
				
				
				// Jump Menu signal
				if(signal==1){
    233e:	80 91 5f 01 	lds	r24, 0x015F	; 0x80015f <signal>
    2342:	81 30       	cpi	r24, 0x01	; 1
    2344:	09 f0       	breq	.+2      	; 0x2348 <main+0x424>
    2346:	1b cf       	rjmp	.-458    	; 0x217e <main+0x25a>
					Menu='2';
    2348:	b2 e3       	ldi	r27, 0x32	; 50
    234a:	b0 93 00 01 	sts	0x0100, r27	; 0x800100 <__DATA_REGION_ORIGIN__>
					lcd0.clear();
    234e:	d8 01       	movw	r26, r16
    2350:	50 96       	adiw	r26, 0x10	; 16
    2352:	ed 91       	ld	r30, X+
    2354:	fc 91       	ld	r31, X
    2356:	51 97       	sbiw	r26, 0x11	; 17
    2358:	09 95       	icall
    235a:	11 cf       	rjmp	.-478    	; 0x217e <main+0x25a>
				}
					
				break;
			/***MENU 2***/
			case '2': //
				lcd0.gotoxy(0,3);
    235c:	d8 01       	movw	r26, r16
    235e:	52 96       	adiw	r26, 0x12	; 18
    2360:	ed 91       	ld	r30, X+
    2362:	fc 91       	ld	r31, X
    2364:	53 97       	sbiw	r26, 0x13	; 19
    2366:	63 e0       	ldi	r22, 0x03	; 3
    2368:	70 e0       	ldi	r23, 0x00	; 0
    236a:	80 e0       	ldi	r24, 0x00	; 0
    236c:	90 e0       	ldi	r25, 0x00	; 0
    236e:	09 95       	icall
				lcd0.string_size("SETUP DIVFACTOR",15);
    2370:	d8 01       	movw	r26, r16
    2372:	1c 96       	adiw	r26, 0x0c	; 12
    2374:	ed 91       	ld	r30, X+
    2376:	fc 91       	ld	r31, X
    2378:	1d 97       	sbiw	r26, 0x0d	; 13
    237a:	6f e0       	ldi	r22, 0x0F	; 15
    237c:	86 e1       	ldi	r24, 0x16	; 22
    237e:	91 e0       	ldi	r25, 0x01	; 1
    2380:	09 95       	icall
				
				// Jump Menus signal
				if(signal==2){
    2382:	80 91 5f 01 	lds	r24, 0x015F	; 0x80015f <signal>
    2386:	82 30       	cpi	r24, 0x02	; 2
    2388:	09 f0       	breq	.+2      	; 0x238c <main+0x468>
    238a:	f9 ce       	rjmp	.-526    	; 0x217e <main+0x25a>
					Menu='1';
    238c:	90 92 00 01 	sts	0x0100, r9	; 0x800100 <__DATA_REGION_ORIGIN__>
					lcd0.clear();
    2390:	d8 01       	movw	r26, r16
    2392:	50 96       	adiw	r26, 0x10	; 16
    2394:	ed 91       	ld	r30, X+
    2396:	fc 91       	ld	r31, X
    2398:	51 97       	sbiw	r26, 0x11	; 17
    239a:	09 95       	icall
    239c:	f0 ce       	rjmp	.-544    	; 0x217e <main+0x25a>
				}
				break;
			/***MENU 3***/
			case '3': //
				lcd0.gotoxy(0,0);
    239e:	d8 01       	movw	r26, r16
    23a0:	52 96       	adiw	r26, 0x12	; 18
    23a2:	ed 91       	ld	r30, X+
    23a4:	fc 91       	ld	r31, X
    23a6:	53 97       	sbiw	r26, 0x13	; 19
    23a8:	60 e0       	ldi	r22, 0x00	; 0
    23aa:	70 e0       	ldi	r23, 0x00	; 0
    23ac:	80 e0       	ldi	r24, 0x00	; 0
    23ae:	90 e0       	ldi	r25, 0x00	; 0
    23b0:	09 95       	icall
				lcd0.string_size("Not being used",19);
    23b2:	d8 01       	movw	r26, r16
    23b4:	1c 96       	adiw	r26, 0x0c	; 12
    23b6:	ed 91       	ld	r30, X+
    23b8:	fc 91       	ld	r31, X
    23ba:	1d 97       	sbiw	r26, 0x0d	; 13
    23bc:	63 e1       	ldi	r22, 0x13	; 19
    23be:	86 e2       	ldi	r24, 0x26	; 38
    23c0:	91 e0       	ldi	r25, 0x01	; 1
    23c2:	09 95       	icall
				/***Play around***/
				break;
    23c4:	dc ce       	rjmp	.-584    	; 0x217e <main+0x25a>
				/********************************************************************/
			default:
				Menu='1';
    23c6:	90 92 00 01 	sts	0x0100, r9	; 0x800100 <__DATA_REGION_ORIGIN__>
				break;
    23ca:	d9 ce       	rjmp	.-590    	; 0x217e <main+0x25a>

000023cc <__vector_15>:
}
/*
** interrupt
*/
ISR(TIMER0_COMP_vect) // 20 us intervals
{
    23cc:	1f 92       	push	r1
    23ce:	0f 92       	push	r0
    23d0:	0f b6       	in	r0, 0x3f	; 63
    23d2:	0f 92       	push	r0
    23d4:	11 24       	eor	r1, r1
    23d6:	0b b6       	in	r0, 0x3b	; 59
    23d8:	0f 92       	push	r0
    23da:	2f 93       	push	r18
    23dc:	3f 93       	push	r19
    23de:	4f 93       	push	r20
    23e0:	5f 93       	push	r21
    23e2:	6f 93       	push	r22
    23e4:	7f 93       	push	r23
    23e6:	8f 93       	push	r24
    23e8:	9f 93       	push	r25
    23ea:	af 93       	push	r26
    23ec:	bf 93       	push	r27
    23ee:	cf 93       	push	r28
    23f0:	ef 93       	push	r30
    23f2:	ff 93       	push	r31
	/***Block other interrupts during this procedure***/
	uint8_t Sreg;
	Sreg=SREG;
    23f4:	cf b7       	in	r28, 0x3f	; 63
	SREG&=~(ONE<<7);
    23f6:	8f b7       	in	r24, 0x3f	; 63
    23f8:	8f 77       	andi	r24, 0x7F	; 127
    23fa:	8f bf       	out	0x3f, r24	; 63
	/***Block other interrupts during this procedure***/	
	tmp=hx.read_raw(&hx);
    23fc:	e0 91 d1 03 	lds	r30, 0x03D1	; 0x8003d1 <hx+0x35>
    2400:	f0 91 d2 03 	lds	r31, 0x03D2	; 0x8003d2 <hx+0x36>
    2404:	8c e9       	ldi	r24, 0x9C	; 156
    2406:	93 e0       	ldi	r25, 0x03	; 3
    2408:	09 95       	icall
    240a:	60 93 2c 03 	sts	0x032C, r22	; 0x80032c <tmp>
    240e:	70 93 2d 03 	sts	0x032D, r23	; 0x80032d <tmp+0x1>
    2412:	80 93 2e 03 	sts	0x032E, r24	; 0x80032e <tmp+0x2>
    2416:	90 93 2f 03 	sts	0x032F, r25	; 0x80032f <tmp+0x3>
	/***enable interrupts again***/
	SREG=Sreg;
    241a:	cf bf       	out	0x3f, r28	; 63
}
    241c:	ff 91       	pop	r31
    241e:	ef 91       	pop	r30
    2420:	cf 91       	pop	r28
    2422:	bf 91       	pop	r27
    2424:	af 91       	pop	r26
    2426:	9f 91       	pop	r25
    2428:	8f 91       	pop	r24
    242a:	7f 91       	pop	r23
    242c:	6f 91       	pop	r22
    242e:	5f 91       	pop	r21
    2430:	4f 91       	pop	r20
    2432:	3f 91       	pop	r19
    2434:	2f 91       	pop	r18
    2436:	0f 90       	pop	r0
    2438:	0b be       	out	0x3b, r0	; 59
    243a:	0f 90       	pop	r0
    243c:	0f be       	out	0x3f, r0	; 63
    243e:	0f 90       	pop	r0
    2440:	1f 90       	pop	r1
    2442:	18 95       	reti

00002444 <__vector_12>:
ISR(TIMER1_COMPA_vect) // 1 second intervals
{
    2444:	1f 92       	push	r1
    2446:	0f 92       	push	r0
    2448:	0f b6       	in	r0, 0x3f	; 63
    244a:	0f 92       	push	r0
    244c:	11 24       	eor	r1, r1
    244e:	0b b6       	in	r0, 0x3b	; 59
    2450:	0f 92       	push	r0
    2452:	2f 93       	push	r18
    2454:	3f 93       	push	r19
    2456:	4f 93       	push	r20
    2458:	5f 93       	push	r21
    245a:	6f 93       	push	r22
    245c:	7f 93       	push	r23
    245e:	8f 93       	push	r24
    2460:	9f 93       	push	r25
    2462:	af 93       	push	r26
    2464:	bf 93       	push	r27
    2466:	ef 93       	push	r30
    2468:	ff 93       	push	r31
	
	if((F.ll(&F) & 0x3F) == ONE)
    246a:	e0 91 ed 03 	lds	r30, 0x03ED	; 0x8003ed <F+0xa>
    246e:	f0 91 ee 03 	lds	r31, 0x03EE	; 0x8003ee <F+0xb>
    2472:	83 ee       	ldi	r24, 0xE3	; 227
    2474:	93 e0       	ldi	r25, 0x03	; 3
    2476:	09 95       	icall
    2478:	8f 73       	andi	r24, 0x3F	; 63
    247a:	81 30       	cpi	r24, 0x01	; 1
    247c:	29 f4       	brne	.+10     	; 0x2488 <__vector_12+0x44>
		counter_1++;
    247e:	80 91 61 01 	lds	r24, 0x0161	; 0x800161 <counter_1>
    2482:	8f 5f       	subi	r24, 0xFF	; 255
    2484:	80 93 61 01 	sts	0x0161, r24	; 0x800161 <counter_1>
	
	if((F.ll(&F) & 0x3F) == 3)
    2488:	e0 91 ed 03 	lds	r30, 0x03ED	; 0x8003ed <F+0xa>
    248c:	f0 91 ee 03 	lds	r31, 0x03EE	; 0x8003ee <F+0xb>
    2490:	83 ee       	ldi	r24, 0xE3	; 227
    2492:	93 e0       	ldi	r25, 0x03	; 3
    2494:	09 95       	icall
    2496:	8f 73       	andi	r24, 0x3F	; 63
    2498:	83 30       	cpi	r24, 0x03	; 3
    249a:	29 f4       	brne	.+10     	; 0x24a6 <__vector_12+0x62>
		counter_2++;
    249c:	80 91 60 01 	lds	r24, 0x0160	; 0x800160 <counter_2>
    24a0:	8f 5f       	subi	r24, 0xFF	; 255
    24a2:	80 93 60 01 	sts	0x0160, r24	; 0x800160 <counter_2>
	
	if(counter_1 > _5sec){
    24a6:	80 91 61 01 	lds	r24, 0x0161	; 0x800161 <counter_1>
    24aa:	86 30       	cpi	r24, 0x06	; 6
    24ac:	30 f1       	brcs	.+76     	; 0x24fa <__vector_12+0xb6>
		counter_1=_5sec+ONE; //lock in place
    24ae:	86 e0       	ldi	r24, 0x06	; 6
    24b0:	80 93 61 01 	sts	0x0161, r24	; 0x800161 <counter_1>
		PORTC^=(ONE<<5); // troubleshooting
    24b4:	95 b3       	in	r25, 0x15	; 21
    24b6:	80 e2       	ldi	r24, 0x20	; 32
    24b8:	89 27       	eor	r24, r25
    24ba:	85 bb       	out	0x15, r24	; 21
		if((F.ll(&F) & 0x3F) == 2){
    24bc:	e0 91 ed 03 	lds	r30, 0x03ED	; 0x8003ed <F+0xa>
    24c0:	f0 91 ee 03 	lds	r31, 0x03EE	; 0x8003ee <F+0xb>
    24c4:	83 ee       	ldi	r24, 0xE3	; 227
    24c6:	93 e0       	ldi	r25, 0x03	; 3
    24c8:	09 95       	icall
    24ca:	8f 73       	andi	r24, 0x3F	; 63
    24cc:	82 30       	cpi	r24, 0x02	; 2
    24ce:	a9 f4       	brne	.+42     	; 0x24fa <__vector_12+0xb6>
			// Delete eerpom memory ZERO
			HX711_data.status=0;
    24d0:	10 92 63 03 	sts	0x0363, r1	; 0x800363 <HX711_data+0x15>
			eprom.update_block(HX711_ptr, (void*) ZERO, sizeblock);
    24d4:	e0 91 4c 03 	lds	r30, 0x034C	; 0x80034c <eprom+0x1c>
    24d8:	f0 91 4d 03 	lds	r31, 0x034D	; 0x80034d <eprom+0x1d>
    24dc:	46 e1       	ldi	r20, 0x16	; 22
    24de:	50 e0       	ldi	r21, 0x00	; 0
    24e0:	60 e0       	ldi	r22, 0x00	; 0
    24e2:	70 e0       	ldi	r23, 0x00	; 0
    24e4:	80 91 64 03 	lds	r24, 0x0364	; 0x800364 <HX711_ptr>
    24e8:	90 91 65 03 	lds	r25, 0x0365	; 0x800365 <HX711_ptr+0x1>
    24ec:	09 95       	icall
			PORTC^=(ONE<<5); // troubleshooting
    24ee:	95 b3       	in	r25, 0x15	; 21
    24f0:	80 e2       	ldi	r24, 0x20	; 32
    24f2:	89 27       	eor	r24, r25
    24f4:	85 bb       	out	0x15, r24	; 21
			counter_1=ZERO;
    24f6:	10 92 61 01 	sts	0x0161, r1	; 0x800161 <counter_1>
		}
	}
	
	if(counter_2 > _5sec){
    24fa:	80 91 60 01 	lds	r24, 0x0160	; 0x800160 <counter_2>
    24fe:	86 30       	cpi	r24, 0x06	; 6
    2500:	e8 f0       	brcs	.+58     	; 0x253c <__vector_12+0xf8>
		counter_2=_5sec+ONE; //lock in place
    2502:	86 e0       	ldi	r24, 0x06	; 6
    2504:	80 93 60 01 	sts	0x0160, r24	; 0x800160 <counter_2>
		signal=1;
    2508:	81 e0       	ldi	r24, 0x01	; 1
    250a:	80 93 5f 01 	sts	0x015F, r24	; 0x80015f <signal>
		
		PORTC^=(ONE<<5); // troubleshooting
    250e:	95 b3       	in	r25, 0x15	; 21
    2510:	80 e2       	ldi	r24, 0x20	; 32
    2512:	89 27       	eor	r24, r25
    2514:	85 bb       	out	0x15, r24	; 21

		if((F.ll(&F) & 0x3F) == 1){
    2516:	e0 91 ed 03 	lds	r30, 0x03ED	; 0x8003ed <F+0xa>
    251a:	f0 91 ee 03 	lds	r31, 0x03EE	; 0x8003ee <F+0xb>
    251e:	83 ee       	ldi	r24, 0xE3	; 227
    2520:	93 e0       	ldi	r25, 0x03	; 3
    2522:	09 95       	icall
    2524:	8f 73       	andi	r24, 0x3F	; 63
    2526:	81 30       	cpi	r24, 0x01	; 1
    2528:	49 f4       	brne	.+18     	; 0x253c <__vector_12+0xf8>
			signal=2;
    252a:	82 e0       	ldi	r24, 0x02	; 2
    252c:	80 93 5f 01 	sts	0x015F, r24	; 0x80015f <signal>
			PORTC^=(ONE<<5); // troubleshooting
    2530:	95 b3       	in	r25, 0x15	; 21
    2532:	80 e2       	ldi	r24, 0x20	; 32
    2534:	89 27       	eor	r24, r25
    2536:	85 bb       	out	0x15, r24	; 21
			counter_2=ZERO;
    2538:	10 92 60 01 	sts	0x0160, r1	; 0x800160 <counter_2>
		}
	}
	
	
}
    253c:	ff 91       	pop	r31
    253e:	ef 91       	pop	r30
    2540:	bf 91       	pop	r27
    2542:	af 91       	pop	r26
    2544:	9f 91       	pop	r25
    2546:	8f 91       	pop	r24
    2548:	7f 91       	pop	r23
    254a:	6f 91       	pop	r22
    254c:	5f 91       	pop	r21
    254e:	4f 91       	pop	r20
    2550:	3f 91       	pop	r19
    2552:	2f 91       	pop	r18
    2554:	0f 90       	pop	r0
    2556:	0b be       	out	0x3b, r0	; 59
    2558:	0f 90       	pop	r0
    255a:	0f be       	out	0x3f, r0	; 63
    255c:	0f 90       	pop	r0
    255e:	1f 90       	pop	r1
    2560:	18 95       	reti

00002562 <__subsf3>:
    2562:	50 58       	subi	r21, 0x80	; 128

00002564 <__addsf3>:
    2564:	bb 27       	eor	r27, r27
    2566:	aa 27       	eor	r26, r26
    2568:	0e d0       	rcall	.+28     	; 0x2586 <__addsf3x>
    256a:	75 c1       	rjmp	.+746    	; 0x2856 <__fp_round>
    256c:	66 d1       	rcall	.+716    	; 0x283a <__fp_pscA>
    256e:	30 f0       	brcs	.+12     	; 0x257c <__addsf3+0x18>
    2570:	6b d1       	rcall	.+726    	; 0x2848 <__fp_pscB>
    2572:	20 f0       	brcs	.+8      	; 0x257c <__addsf3+0x18>
    2574:	31 f4       	brne	.+12     	; 0x2582 <__addsf3+0x1e>
    2576:	9f 3f       	cpi	r25, 0xFF	; 255
    2578:	11 f4       	brne	.+4      	; 0x257e <__addsf3+0x1a>
    257a:	1e f4       	brtc	.+6      	; 0x2582 <__addsf3+0x1e>
    257c:	5b c1       	rjmp	.+694    	; 0x2834 <__fp_nan>
    257e:	0e f4       	brtc	.+2      	; 0x2582 <__addsf3+0x1e>
    2580:	e0 95       	com	r30
    2582:	e7 fb       	bst	r30, 7
    2584:	51 c1       	rjmp	.+674    	; 0x2828 <__fp_inf>

00002586 <__addsf3x>:
    2586:	e9 2f       	mov	r30, r25
    2588:	77 d1       	rcall	.+750    	; 0x2878 <__fp_split3>
    258a:	80 f3       	brcs	.-32     	; 0x256c <__addsf3+0x8>
    258c:	ba 17       	cp	r27, r26
    258e:	62 07       	cpc	r22, r18
    2590:	73 07       	cpc	r23, r19
    2592:	84 07       	cpc	r24, r20
    2594:	95 07       	cpc	r25, r21
    2596:	18 f0       	brcs	.+6      	; 0x259e <__addsf3x+0x18>
    2598:	71 f4       	brne	.+28     	; 0x25b6 <__addsf3x+0x30>
    259a:	9e f5       	brtc	.+102    	; 0x2602 <__addsf3x+0x7c>
    259c:	8f c1       	rjmp	.+798    	; 0x28bc <__fp_zero>
    259e:	0e f4       	brtc	.+2      	; 0x25a2 <__addsf3x+0x1c>
    25a0:	e0 95       	com	r30
    25a2:	0b 2e       	mov	r0, r27
    25a4:	ba 2f       	mov	r27, r26
    25a6:	a0 2d       	mov	r26, r0
    25a8:	0b 01       	movw	r0, r22
    25aa:	b9 01       	movw	r22, r18
    25ac:	90 01       	movw	r18, r0
    25ae:	0c 01       	movw	r0, r24
    25b0:	ca 01       	movw	r24, r20
    25b2:	a0 01       	movw	r20, r0
    25b4:	11 24       	eor	r1, r1
    25b6:	ff 27       	eor	r31, r31
    25b8:	59 1b       	sub	r21, r25
    25ba:	99 f0       	breq	.+38     	; 0x25e2 <__addsf3x+0x5c>
    25bc:	59 3f       	cpi	r21, 0xF9	; 249
    25be:	50 f4       	brcc	.+20     	; 0x25d4 <__addsf3x+0x4e>
    25c0:	50 3e       	cpi	r21, 0xE0	; 224
    25c2:	68 f1       	brcs	.+90     	; 0x261e <__addsf3x+0x98>
    25c4:	1a 16       	cp	r1, r26
    25c6:	f0 40       	sbci	r31, 0x00	; 0
    25c8:	a2 2f       	mov	r26, r18
    25ca:	23 2f       	mov	r18, r19
    25cc:	34 2f       	mov	r19, r20
    25ce:	44 27       	eor	r20, r20
    25d0:	58 5f       	subi	r21, 0xF8	; 248
    25d2:	f3 cf       	rjmp	.-26     	; 0x25ba <__addsf3x+0x34>
    25d4:	46 95       	lsr	r20
    25d6:	37 95       	ror	r19
    25d8:	27 95       	ror	r18
    25da:	a7 95       	ror	r26
    25dc:	f0 40       	sbci	r31, 0x00	; 0
    25de:	53 95       	inc	r21
    25e0:	c9 f7       	brne	.-14     	; 0x25d4 <__addsf3x+0x4e>
    25e2:	7e f4       	brtc	.+30     	; 0x2602 <__addsf3x+0x7c>
    25e4:	1f 16       	cp	r1, r31
    25e6:	ba 0b       	sbc	r27, r26
    25e8:	62 0b       	sbc	r22, r18
    25ea:	73 0b       	sbc	r23, r19
    25ec:	84 0b       	sbc	r24, r20
    25ee:	ba f0       	brmi	.+46     	; 0x261e <__addsf3x+0x98>
    25f0:	91 50       	subi	r25, 0x01	; 1
    25f2:	a1 f0       	breq	.+40     	; 0x261c <__addsf3x+0x96>
    25f4:	ff 0f       	add	r31, r31
    25f6:	bb 1f       	adc	r27, r27
    25f8:	66 1f       	adc	r22, r22
    25fa:	77 1f       	adc	r23, r23
    25fc:	88 1f       	adc	r24, r24
    25fe:	c2 f7       	brpl	.-16     	; 0x25f0 <__addsf3x+0x6a>
    2600:	0e c0       	rjmp	.+28     	; 0x261e <__addsf3x+0x98>
    2602:	ba 0f       	add	r27, r26
    2604:	62 1f       	adc	r22, r18
    2606:	73 1f       	adc	r23, r19
    2608:	84 1f       	adc	r24, r20
    260a:	48 f4       	brcc	.+18     	; 0x261e <__addsf3x+0x98>
    260c:	87 95       	ror	r24
    260e:	77 95       	ror	r23
    2610:	67 95       	ror	r22
    2612:	b7 95       	ror	r27
    2614:	f7 95       	ror	r31
    2616:	9e 3f       	cpi	r25, 0xFE	; 254
    2618:	08 f0       	brcs	.+2      	; 0x261c <__addsf3x+0x96>
    261a:	b3 cf       	rjmp	.-154    	; 0x2582 <__addsf3+0x1e>
    261c:	93 95       	inc	r25
    261e:	88 0f       	add	r24, r24
    2620:	08 f0       	brcs	.+2      	; 0x2624 <__addsf3x+0x9e>
    2622:	99 27       	eor	r25, r25
    2624:	ee 0f       	add	r30, r30
    2626:	97 95       	ror	r25
    2628:	87 95       	ror	r24
    262a:	08 95       	ret

0000262c <__cmpsf2>:
    262c:	d9 d0       	rcall	.+434    	; 0x27e0 <__fp_cmp>
    262e:	08 f4       	brcc	.+2      	; 0x2632 <__cmpsf2+0x6>
    2630:	81 e0       	ldi	r24, 0x01	; 1
    2632:	08 95       	ret

00002634 <__divsf3>:
    2634:	0c d0       	rcall	.+24     	; 0x264e <__divsf3x>
    2636:	0f c1       	rjmp	.+542    	; 0x2856 <__fp_round>
    2638:	07 d1       	rcall	.+526    	; 0x2848 <__fp_pscB>
    263a:	40 f0       	brcs	.+16     	; 0x264c <__divsf3+0x18>
    263c:	fe d0       	rcall	.+508    	; 0x283a <__fp_pscA>
    263e:	30 f0       	brcs	.+12     	; 0x264c <__divsf3+0x18>
    2640:	21 f4       	brne	.+8      	; 0x264a <__divsf3+0x16>
    2642:	5f 3f       	cpi	r21, 0xFF	; 255
    2644:	19 f0       	breq	.+6      	; 0x264c <__divsf3+0x18>
    2646:	f0 c0       	rjmp	.+480    	; 0x2828 <__fp_inf>
    2648:	51 11       	cpse	r21, r1
    264a:	39 c1       	rjmp	.+626    	; 0x28be <__fp_szero>
    264c:	f3 c0       	rjmp	.+486    	; 0x2834 <__fp_nan>

0000264e <__divsf3x>:
    264e:	14 d1       	rcall	.+552    	; 0x2878 <__fp_split3>
    2650:	98 f3       	brcs	.-26     	; 0x2638 <__divsf3+0x4>

00002652 <__divsf3_pse>:
    2652:	99 23       	and	r25, r25
    2654:	c9 f3       	breq	.-14     	; 0x2648 <__divsf3+0x14>
    2656:	55 23       	and	r21, r21
    2658:	b1 f3       	breq	.-20     	; 0x2646 <__divsf3+0x12>
    265a:	95 1b       	sub	r25, r21
    265c:	55 0b       	sbc	r21, r21
    265e:	bb 27       	eor	r27, r27
    2660:	aa 27       	eor	r26, r26
    2662:	62 17       	cp	r22, r18
    2664:	73 07       	cpc	r23, r19
    2666:	84 07       	cpc	r24, r20
    2668:	38 f0       	brcs	.+14     	; 0x2678 <__divsf3_pse+0x26>
    266a:	9f 5f       	subi	r25, 0xFF	; 255
    266c:	5f 4f       	sbci	r21, 0xFF	; 255
    266e:	22 0f       	add	r18, r18
    2670:	33 1f       	adc	r19, r19
    2672:	44 1f       	adc	r20, r20
    2674:	aa 1f       	adc	r26, r26
    2676:	a9 f3       	breq	.-22     	; 0x2662 <__divsf3_pse+0x10>
    2678:	33 d0       	rcall	.+102    	; 0x26e0 <__divsf3_pse+0x8e>
    267a:	0e 2e       	mov	r0, r30
    267c:	3a f0       	brmi	.+14     	; 0x268c <__divsf3_pse+0x3a>
    267e:	e0 e8       	ldi	r30, 0x80	; 128
    2680:	30 d0       	rcall	.+96     	; 0x26e2 <__divsf3_pse+0x90>
    2682:	91 50       	subi	r25, 0x01	; 1
    2684:	50 40       	sbci	r21, 0x00	; 0
    2686:	e6 95       	lsr	r30
    2688:	00 1c       	adc	r0, r0
    268a:	ca f7       	brpl	.-14     	; 0x267e <__divsf3_pse+0x2c>
    268c:	29 d0       	rcall	.+82     	; 0x26e0 <__divsf3_pse+0x8e>
    268e:	fe 2f       	mov	r31, r30
    2690:	27 d0       	rcall	.+78     	; 0x26e0 <__divsf3_pse+0x8e>
    2692:	66 0f       	add	r22, r22
    2694:	77 1f       	adc	r23, r23
    2696:	88 1f       	adc	r24, r24
    2698:	bb 1f       	adc	r27, r27
    269a:	26 17       	cp	r18, r22
    269c:	37 07       	cpc	r19, r23
    269e:	48 07       	cpc	r20, r24
    26a0:	ab 07       	cpc	r26, r27
    26a2:	b0 e8       	ldi	r27, 0x80	; 128
    26a4:	09 f0       	breq	.+2      	; 0x26a8 <__divsf3_pse+0x56>
    26a6:	bb 0b       	sbc	r27, r27
    26a8:	80 2d       	mov	r24, r0
    26aa:	bf 01       	movw	r22, r30
    26ac:	ff 27       	eor	r31, r31
    26ae:	93 58       	subi	r25, 0x83	; 131
    26b0:	5f 4f       	sbci	r21, 0xFF	; 255
    26b2:	2a f0       	brmi	.+10     	; 0x26be <__divsf3_pse+0x6c>
    26b4:	9e 3f       	cpi	r25, 0xFE	; 254
    26b6:	51 05       	cpc	r21, r1
    26b8:	68 f0       	brcs	.+26     	; 0x26d4 <__divsf3_pse+0x82>
    26ba:	b6 c0       	rjmp	.+364    	; 0x2828 <__fp_inf>
    26bc:	00 c1       	rjmp	.+512    	; 0x28be <__fp_szero>
    26be:	5f 3f       	cpi	r21, 0xFF	; 255
    26c0:	ec f3       	brlt	.-6      	; 0x26bc <__divsf3_pse+0x6a>
    26c2:	98 3e       	cpi	r25, 0xE8	; 232
    26c4:	dc f3       	brlt	.-10     	; 0x26bc <__divsf3_pse+0x6a>
    26c6:	86 95       	lsr	r24
    26c8:	77 95       	ror	r23
    26ca:	67 95       	ror	r22
    26cc:	b7 95       	ror	r27
    26ce:	f7 95       	ror	r31
    26d0:	9f 5f       	subi	r25, 0xFF	; 255
    26d2:	c9 f7       	brne	.-14     	; 0x26c6 <__divsf3_pse+0x74>
    26d4:	88 0f       	add	r24, r24
    26d6:	91 1d       	adc	r25, r1
    26d8:	96 95       	lsr	r25
    26da:	87 95       	ror	r24
    26dc:	97 f9       	bld	r25, 7
    26de:	08 95       	ret
    26e0:	e1 e0       	ldi	r30, 0x01	; 1
    26e2:	66 0f       	add	r22, r22
    26e4:	77 1f       	adc	r23, r23
    26e6:	88 1f       	adc	r24, r24
    26e8:	bb 1f       	adc	r27, r27
    26ea:	62 17       	cp	r22, r18
    26ec:	73 07       	cpc	r23, r19
    26ee:	84 07       	cpc	r24, r20
    26f0:	ba 07       	cpc	r27, r26
    26f2:	20 f0       	brcs	.+8      	; 0x26fc <__divsf3_pse+0xaa>
    26f4:	62 1b       	sub	r22, r18
    26f6:	73 0b       	sbc	r23, r19
    26f8:	84 0b       	sbc	r24, r20
    26fa:	ba 0b       	sbc	r27, r26
    26fc:	ee 1f       	adc	r30, r30
    26fe:	88 f7       	brcc	.-30     	; 0x26e2 <__divsf3_pse+0x90>
    2700:	e0 95       	com	r30
    2702:	08 95       	ret

00002704 <__fixsfsi>:
    2704:	04 d0       	rcall	.+8      	; 0x270e <__fixunssfsi>
    2706:	68 94       	set
    2708:	b1 11       	cpse	r27, r1
    270a:	d9 c0       	rjmp	.+434    	; 0x28be <__fp_szero>
    270c:	08 95       	ret

0000270e <__fixunssfsi>:
    270e:	bc d0       	rcall	.+376    	; 0x2888 <__fp_splitA>
    2710:	88 f0       	brcs	.+34     	; 0x2734 <__fixunssfsi+0x26>
    2712:	9f 57       	subi	r25, 0x7F	; 127
    2714:	90 f0       	brcs	.+36     	; 0x273a <__fixunssfsi+0x2c>
    2716:	b9 2f       	mov	r27, r25
    2718:	99 27       	eor	r25, r25
    271a:	b7 51       	subi	r27, 0x17	; 23
    271c:	a0 f0       	brcs	.+40     	; 0x2746 <__fixunssfsi+0x38>
    271e:	d1 f0       	breq	.+52     	; 0x2754 <__fixunssfsi+0x46>
    2720:	66 0f       	add	r22, r22
    2722:	77 1f       	adc	r23, r23
    2724:	88 1f       	adc	r24, r24
    2726:	99 1f       	adc	r25, r25
    2728:	1a f0       	brmi	.+6      	; 0x2730 <__fixunssfsi+0x22>
    272a:	ba 95       	dec	r27
    272c:	c9 f7       	brne	.-14     	; 0x2720 <__fixunssfsi+0x12>
    272e:	12 c0       	rjmp	.+36     	; 0x2754 <__fixunssfsi+0x46>
    2730:	b1 30       	cpi	r27, 0x01	; 1
    2732:	81 f0       	breq	.+32     	; 0x2754 <__fixunssfsi+0x46>
    2734:	c3 d0       	rcall	.+390    	; 0x28bc <__fp_zero>
    2736:	b1 e0       	ldi	r27, 0x01	; 1
    2738:	08 95       	ret
    273a:	c0 c0       	rjmp	.+384    	; 0x28bc <__fp_zero>
    273c:	67 2f       	mov	r22, r23
    273e:	78 2f       	mov	r23, r24
    2740:	88 27       	eor	r24, r24
    2742:	b8 5f       	subi	r27, 0xF8	; 248
    2744:	39 f0       	breq	.+14     	; 0x2754 <__fixunssfsi+0x46>
    2746:	b9 3f       	cpi	r27, 0xF9	; 249
    2748:	cc f3       	brlt	.-14     	; 0x273c <__fixunssfsi+0x2e>
    274a:	86 95       	lsr	r24
    274c:	77 95       	ror	r23
    274e:	67 95       	ror	r22
    2750:	b3 95       	inc	r27
    2752:	d9 f7       	brne	.-10     	; 0x274a <__fixunssfsi+0x3c>
    2754:	3e f4       	brtc	.+14     	; 0x2764 <__fixunssfsi+0x56>
    2756:	90 95       	com	r25
    2758:	80 95       	com	r24
    275a:	70 95       	com	r23
    275c:	61 95       	neg	r22
    275e:	7f 4f       	sbci	r23, 0xFF	; 255
    2760:	8f 4f       	sbci	r24, 0xFF	; 255
    2762:	9f 4f       	sbci	r25, 0xFF	; 255
    2764:	08 95       	ret

00002766 <__floatunsisf>:
    2766:	e8 94       	clt
    2768:	09 c0       	rjmp	.+18     	; 0x277c <__floatsisf+0x12>

0000276a <__floatsisf>:
    276a:	97 fb       	bst	r25, 7
    276c:	3e f4       	brtc	.+14     	; 0x277c <__floatsisf+0x12>
    276e:	90 95       	com	r25
    2770:	80 95       	com	r24
    2772:	70 95       	com	r23
    2774:	61 95       	neg	r22
    2776:	7f 4f       	sbci	r23, 0xFF	; 255
    2778:	8f 4f       	sbci	r24, 0xFF	; 255
    277a:	9f 4f       	sbci	r25, 0xFF	; 255
    277c:	99 23       	and	r25, r25
    277e:	a9 f0       	breq	.+42     	; 0x27aa <__floatsisf+0x40>
    2780:	f9 2f       	mov	r31, r25
    2782:	96 e9       	ldi	r25, 0x96	; 150
    2784:	bb 27       	eor	r27, r27
    2786:	93 95       	inc	r25
    2788:	f6 95       	lsr	r31
    278a:	87 95       	ror	r24
    278c:	77 95       	ror	r23
    278e:	67 95       	ror	r22
    2790:	b7 95       	ror	r27
    2792:	f1 11       	cpse	r31, r1
    2794:	f8 cf       	rjmp	.-16     	; 0x2786 <__floatsisf+0x1c>
    2796:	fa f4       	brpl	.+62     	; 0x27d6 <__floatsisf+0x6c>
    2798:	bb 0f       	add	r27, r27
    279a:	11 f4       	brne	.+4      	; 0x27a0 <__floatsisf+0x36>
    279c:	60 ff       	sbrs	r22, 0
    279e:	1b c0       	rjmp	.+54     	; 0x27d6 <__floatsisf+0x6c>
    27a0:	6f 5f       	subi	r22, 0xFF	; 255
    27a2:	7f 4f       	sbci	r23, 0xFF	; 255
    27a4:	8f 4f       	sbci	r24, 0xFF	; 255
    27a6:	9f 4f       	sbci	r25, 0xFF	; 255
    27a8:	16 c0       	rjmp	.+44     	; 0x27d6 <__floatsisf+0x6c>
    27aa:	88 23       	and	r24, r24
    27ac:	11 f0       	breq	.+4      	; 0x27b2 <__floatsisf+0x48>
    27ae:	96 e9       	ldi	r25, 0x96	; 150
    27b0:	11 c0       	rjmp	.+34     	; 0x27d4 <__floatsisf+0x6a>
    27b2:	77 23       	and	r23, r23
    27b4:	21 f0       	breq	.+8      	; 0x27be <__floatsisf+0x54>
    27b6:	9e e8       	ldi	r25, 0x8E	; 142
    27b8:	87 2f       	mov	r24, r23
    27ba:	76 2f       	mov	r23, r22
    27bc:	05 c0       	rjmp	.+10     	; 0x27c8 <__floatsisf+0x5e>
    27be:	66 23       	and	r22, r22
    27c0:	71 f0       	breq	.+28     	; 0x27de <__floatsisf+0x74>
    27c2:	96 e8       	ldi	r25, 0x86	; 134
    27c4:	86 2f       	mov	r24, r22
    27c6:	70 e0       	ldi	r23, 0x00	; 0
    27c8:	60 e0       	ldi	r22, 0x00	; 0
    27ca:	2a f0       	brmi	.+10     	; 0x27d6 <__floatsisf+0x6c>
    27cc:	9a 95       	dec	r25
    27ce:	66 0f       	add	r22, r22
    27d0:	77 1f       	adc	r23, r23
    27d2:	88 1f       	adc	r24, r24
    27d4:	da f7       	brpl	.-10     	; 0x27cc <__floatsisf+0x62>
    27d6:	88 0f       	add	r24, r24
    27d8:	96 95       	lsr	r25
    27da:	87 95       	ror	r24
    27dc:	97 f9       	bld	r25, 7
    27de:	08 95       	ret

000027e0 <__fp_cmp>:
    27e0:	99 0f       	add	r25, r25
    27e2:	00 08       	sbc	r0, r0
    27e4:	55 0f       	add	r21, r21
    27e6:	aa 0b       	sbc	r26, r26
    27e8:	e0 e8       	ldi	r30, 0x80	; 128
    27ea:	fe ef       	ldi	r31, 0xFE	; 254
    27ec:	16 16       	cp	r1, r22
    27ee:	17 06       	cpc	r1, r23
    27f0:	e8 07       	cpc	r30, r24
    27f2:	f9 07       	cpc	r31, r25
    27f4:	c0 f0       	brcs	.+48     	; 0x2826 <__fp_cmp+0x46>
    27f6:	12 16       	cp	r1, r18
    27f8:	13 06       	cpc	r1, r19
    27fa:	e4 07       	cpc	r30, r20
    27fc:	f5 07       	cpc	r31, r21
    27fe:	98 f0       	brcs	.+38     	; 0x2826 <__fp_cmp+0x46>
    2800:	62 1b       	sub	r22, r18
    2802:	73 0b       	sbc	r23, r19
    2804:	84 0b       	sbc	r24, r20
    2806:	95 0b       	sbc	r25, r21
    2808:	39 f4       	brne	.+14     	; 0x2818 <__fp_cmp+0x38>
    280a:	0a 26       	eor	r0, r26
    280c:	61 f0       	breq	.+24     	; 0x2826 <__fp_cmp+0x46>
    280e:	23 2b       	or	r18, r19
    2810:	24 2b       	or	r18, r20
    2812:	25 2b       	or	r18, r21
    2814:	21 f4       	brne	.+8      	; 0x281e <__fp_cmp+0x3e>
    2816:	08 95       	ret
    2818:	0a 26       	eor	r0, r26
    281a:	09 f4       	brne	.+2      	; 0x281e <__fp_cmp+0x3e>
    281c:	a1 40       	sbci	r26, 0x01	; 1
    281e:	a6 95       	lsr	r26
    2820:	8f ef       	ldi	r24, 0xFF	; 255
    2822:	81 1d       	adc	r24, r1
    2824:	81 1d       	adc	r24, r1
    2826:	08 95       	ret

00002828 <__fp_inf>:
    2828:	97 f9       	bld	r25, 7
    282a:	9f 67       	ori	r25, 0x7F	; 127
    282c:	80 e8       	ldi	r24, 0x80	; 128
    282e:	70 e0       	ldi	r23, 0x00	; 0
    2830:	60 e0       	ldi	r22, 0x00	; 0
    2832:	08 95       	ret

00002834 <__fp_nan>:
    2834:	9f ef       	ldi	r25, 0xFF	; 255
    2836:	80 ec       	ldi	r24, 0xC0	; 192
    2838:	08 95       	ret

0000283a <__fp_pscA>:
    283a:	00 24       	eor	r0, r0
    283c:	0a 94       	dec	r0
    283e:	16 16       	cp	r1, r22
    2840:	17 06       	cpc	r1, r23
    2842:	18 06       	cpc	r1, r24
    2844:	09 06       	cpc	r0, r25
    2846:	08 95       	ret

00002848 <__fp_pscB>:
    2848:	00 24       	eor	r0, r0
    284a:	0a 94       	dec	r0
    284c:	12 16       	cp	r1, r18
    284e:	13 06       	cpc	r1, r19
    2850:	14 06       	cpc	r1, r20
    2852:	05 06       	cpc	r0, r21
    2854:	08 95       	ret

00002856 <__fp_round>:
    2856:	09 2e       	mov	r0, r25
    2858:	03 94       	inc	r0
    285a:	00 0c       	add	r0, r0
    285c:	11 f4       	brne	.+4      	; 0x2862 <__fp_round+0xc>
    285e:	88 23       	and	r24, r24
    2860:	52 f0       	brmi	.+20     	; 0x2876 <__fp_round+0x20>
    2862:	bb 0f       	add	r27, r27
    2864:	40 f4       	brcc	.+16     	; 0x2876 <__fp_round+0x20>
    2866:	bf 2b       	or	r27, r31
    2868:	11 f4       	brne	.+4      	; 0x286e <__fp_round+0x18>
    286a:	60 ff       	sbrs	r22, 0
    286c:	04 c0       	rjmp	.+8      	; 0x2876 <__fp_round+0x20>
    286e:	6f 5f       	subi	r22, 0xFF	; 255
    2870:	7f 4f       	sbci	r23, 0xFF	; 255
    2872:	8f 4f       	sbci	r24, 0xFF	; 255
    2874:	9f 4f       	sbci	r25, 0xFF	; 255
    2876:	08 95       	ret

00002878 <__fp_split3>:
    2878:	57 fd       	sbrc	r21, 7
    287a:	90 58       	subi	r25, 0x80	; 128
    287c:	44 0f       	add	r20, r20
    287e:	55 1f       	adc	r21, r21
    2880:	59 f0       	breq	.+22     	; 0x2898 <__fp_splitA+0x10>
    2882:	5f 3f       	cpi	r21, 0xFF	; 255
    2884:	71 f0       	breq	.+28     	; 0x28a2 <__fp_splitA+0x1a>
    2886:	47 95       	ror	r20

00002888 <__fp_splitA>:
    2888:	88 0f       	add	r24, r24
    288a:	97 fb       	bst	r25, 7
    288c:	99 1f       	adc	r25, r25
    288e:	61 f0       	breq	.+24     	; 0x28a8 <__fp_splitA+0x20>
    2890:	9f 3f       	cpi	r25, 0xFF	; 255
    2892:	79 f0       	breq	.+30     	; 0x28b2 <__fp_splitA+0x2a>
    2894:	87 95       	ror	r24
    2896:	08 95       	ret
    2898:	12 16       	cp	r1, r18
    289a:	13 06       	cpc	r1, r19
    289c:	14 06       	cpc	r1, r20
    289e:	55 1f       	adc	r21, r21
    28a0:	f2 cf       	rjmp	.-28     	; 0x2886 <__fp_split3+0xe>
    28a2:	46 95       	lsr	r20
    28a4:	f1 df       	rcall	.-30     	; 0x2888 <__fp_splitA>
    28a6:	08 c0       	rjmp	.+16     	; 0x28b8 <__fp_splitA+0x30>
    28a8:	16 16       	cp	r1, r22
    28aa:	17 06       	cpc	r1, r23
    28ac:	18 06       	cpc	r1, r24
    28ae:	99 1f       	adc	r25, r25
    28b0:	f1 cf       	rjmp	.-30     	; 0x2894 <__fp_splitA+0xc>
    28b2:	86 95       	lsr	r24
    28b4:	71 05       	cpc	r23, r1
    28b6:	61 05       	cpc	r22, r1
    28b8:	08 94       	sec
    28ba:	08 95       	ret

000028bc <__fp_zero>:
    28bc:	e8 94       	clt

000028be <__fp_szero>:
    28be:	bb 27       	eor	r27, r27
    28c0:	66 27       	eor	r22, r22
    28c2:	77 27       	eor	r23, r23
    28c4:	cb 01       	movw	r24, r22
    28c6:	97 f9       	bld	r25, 7
    28c8:	08 95       	ret

000028ca <__gesf2>:
    28ca:	8a df       	rcall	.-236    	; 0x27e0 <__fp_cmp>
    28cc:	08 f4       	brcc	.+2      	; 0x28d0 <__gesf2+0x6>
    28ce:	8f ef       	ldi	r24, 0xFF	; 255
    28d0:	08 95       	ret

000028d2 <__mulsf3>:
    28d2:	0b d0       	rcall	.+22     	; 0x28ea <__mulsf3x>
    28d4:	c0 cf       	rjmp	.-128    	; 0x2856 <__fp_round>
    28d6:	b1 df       	rcall	.-158    	; 0x283a <__fp_pscA>
    28d8:	28 f0       	brcs	.+10     	; 0x28e4 <__mulsf3+0x12>
    28da:	b6 df       	rcall	.-148    	; 0x2848 <__fp_pscB>
    28dc:	18 f0       	brcs	.+6      	; 0x28e4 <__mulsf3+0x12>
    28de:	95 23       	and	r25, r21
    28e0:	09 f0       	breq	.+2      	; 0x28e4 <__mulsf3+0x12>
    28e2:	a2 cf       	rjmp	.-188    	; 0x2828 <__fp_inf>
    28e4:	a7 cf       	rjmp	.-178    	; 0x2834 <__fp_nan>
    28e6:	11 24       	eor	r1, r1
    28e8:	ea cf       	rjmp	.-44     	; 0x28be <__fp_szero>

000028ea <__mulsf3x>:
    28ea:	c6 df       	rcall	.-116    	; 0x2878 <__fp_split3>
    28ec:	a0 f3       	brcs	.-24     	; 0x28d6 <__mulsf3+0x4>

000028ee <__mulsf3_pse>:
    28ee:	95 9f       	mul	r25, r21
    28f0:	d1 f3       	breq	.-12     	; 0x28e6 <__mulsf3+0x14>
    28f2:	95 0f       	add	r25, r21
    28f4:	50 e0       	ldi	r21, 0x00	; 0
    28f6:	55 1f       	adc	r21, r21
    28f8:	62 9f       	mul	r22, r18
    28fa:	f0 01       	movw	r30, r0
    28fc:	72 9f       	mul	r23, r18
    28fe:	bb 27       	eor	r27, r27
    2900:	f0 0d       	add	r31, r0
    2902:	b1 1d       	adc	r27, r1
    2904:	63 9f       	mul	r22, r19
    2906:	aa 27       	eor	r26, r26
    2908:	f0 0d       	add	r31, r0
    290a:	b1 1d       	adc	r27, r1
    290c:	aa 1f       	adc	r26, r26
    290e:	64 9f       	mul	r22, r20
    2910:	66 27       	eor	r22, r22
    2912:	b0 0d       	add	r27, r0
    2914:	a1 1d       	adc	r26, r1
    2916:	66 1f       	adc	r22, r22
    2918:	82 9f       	mul	r24, r18
    291a:	22 27       	eor	r18, r18
    291c:	b0 0d       	add	r27, r0
    291e:	a1 1d       	adc	r26, r1
    2920:	62 1f       	adc	r22, r18
    2922:	73 9f       	mul	r23, r19
    2924:	b0 0d       	add	r27, r0
    2926:	a1 1d       	adc	r26, r1
    2928:	62 1f       	adc	r22, r18
    292a:	83 9f       	mul	r24, r19
    292c:	a0 0d       	add	r26, r0
    292e:	61 1d       	adc	r22, r1
    2930:	22 1f       	adc	r18, r18
    2932:	74 9f       	mul	r23, r20
    2934:	33 27       	eor	r19, r19
    2936:	a0 0d       	add	r26, r0
    2938:	61 1d       	adc	r22, r1
    293a:	23 1f       	adc	r18, r19
    293c:	84 9f       	mul	r24, r20
    293e:	60 0d       	add	r22, r0
    2940:	21 1d       	adc	r18, r1
    2942:	82 2f       	mov	r24, r18
    2944:	76 2f       	mov	r23, r22
    2946:	6a 2f       	mov	r22, r26
    2948:	11 24       	eor	r1, r1
    294a:	9f 57       	subi	r25, 0x7F	; 127
    294c:	50 40       	sbci	r21, 0x00	; 0
    294e:	8a f0       	brmi	.+34     	; 0x2972 <__mulsf3_pse+0x84>
    2950:	e1 f0       	breq	.+56     	; 0x298a <__mulsf3_pse+0x9c>
    2952:	88 23       	and	r24, r24
    2954:	4a f0       	brmi	.+18     	; 0x2968 <__mulsf3_pse+0x7a>
    2956:	ee 0f       	add	r30, r30
    2958:	ff 1f       	adc	r31, r31
    295a:	bb 1f       	adc	r27, r27
    295c:	66 1f       	adc	r22, r22
    295e:	77 1f       	adc	r23, r23
    2960:	88 1f       	adc	r24, r24
    2962:	91 50       	subi	r25, 0x01	; 1
    2964:	50 40       	sbci	r21, 0x00	; 0
    2966:	a9 f7       	brne	.-22     	; 0x2952 <__mulsf3_pse+0x64>
    2968:	9e 3f       	cpi	r25, 0xFE	; 254
    296a:	51 05       	cpc	r21, r1
    296c:	70 f0       	brcs	.+28     	; 0x298a <__mulsf3_pse+0x9c>
    296e:	5c cf       	rjmp	.-328    	; 0x2828 <__fp_inf>
    2970:	a6 cf       	rjmp	.-180    	; 0x28be <__fp_szero>
    2972:	5f 3f       	cpi	r21, 0xFF	; 255
    2974:	ec f3       	brlt	.-6      	; 0x2970 <__mulsf3_pse+0x82>
    2976:	98 3e       	cpi	r25, 0xE8	; 232
    2978:	dc f3       	brlt	.-10     	; 0x2970 <__mulsf3_pse+0x82>
    297a:	86 95       	lsr	r24
    297c:	77 95       	ror	r23
    297e:	67 95       	ror	r22
    2980:	b7 95       	ror	r27
    2982:	f7 95       	ror	r31
    2984:	e7 95       	ror	r30
    2986:	9f 5f       	subi	r25, 0xFF	; 255
    2988:	c1 f7       	brne	.-16     	; 0x297a <__mulsf3_pse+0x8c>
    298a:	fe 2b       	or	r31, r30
    298c:	88 0f       	add	r24, r24
    298e:	91 1d       	adc	r25, r1
    2990:	96 95       	lsr	r25
    2992:	87 95       	ror	r24
    2994:	97 f9       	bld	r25, 7
    2996:	08 95       	ret

00002998 <pow>:
    2998:	fa 01       	movw	r30, r20
    299a:	ee 0f       	add	r30, r30
    299c:	ff 1f       	adc	r31, r31
    299e:	30 96       	adiw	r30, 0x00	; 0
    29a0:	21 05       	cpc	r18, r1
    29a2:	31 05       	cpc	r19, r1
    29a4:	99 f1       	breq	.+102    	; 0x2a0c <pow+0x74>
    29a6:	61 15       	cp	r22, r1
    29a8:	71 05       	cpc	r23, r1
    29aa:	61 f4       	brne	.+24     	; 0x29c4 <pow+0x2c>
    29ac:	80 38       	cpi	r24, 0x80	; 128
    29ae:	bf e3       	ldi	r27, 0x3F	; 63
    29b0:	9b 07       	cpc	r25, r27
    29b2:	49 f1       	breq	.+82     	; 0x2a06 <pow+0x6e>
    29b4:	68 94       	set
    29b6:	90 38       	cpi	r25, 0x80	; 128
    29b8:	81 05       	cpc	r24, r1
    29ba:	61 f0       	breq	.+24     	; 0x29d4 <pow+0x3c>
    29bc:	80 38       	cpi	r24, 0x80	; 128
    29be:	bf ef       	ldi	r27, 0xFF	; 255
    29c0:	9b 07       	cpc	r25, r27
    29c2:	41 f0       	breq	.+16     	; 0x29d4 <pow+0x3c>
    29c4:	99 23       	and	r25, r25
    29c6:	42 f5       	brpl	.+80     	; 0x2a18 <pow+0x80>
    29c8:	ff 3f       	cpi	r31, 0xFF	; 255
    29ca:	e1 05       	cpc	r30, r1
    29cc:	31 05       	cpc	r19, r1
    29ce:	21 05       	cpc	r18, r1
    29d0:	11 f1       	breq	.+68     	; 0x2a16 <pow+0x7e>
    29d2:	e8 94       	clt
    29d4:	08 94       	sec
    29d6:	e7 95       	ror	r30
    29d8:	d9 01       	movw	r26, r18
    29da:	aa 23       	and	r26, r26
    29dc:	29 f4       	brne	.+10     	; 0x29e8 <pow+0x50>
    29de:	ab 2f       	mov	r26, r27
    29e0:	be 2f       	mov	r27, r30
    29e2:	f8 5f       	subi	r31, 0xF8	; 248
    29e4:	d0 f3       	brcs	.-12     	; 0x29da <pow+0x42>
    29e6:	10 c0       	rjmp	.+32     	; 0x2a08 <pow+0x70>
    29e8:	ff 5f       	subi	r31, 0xFF	; 255
    29ea:	70 f4       	brcc	.+28     	; 0x2a08 <pow+0x70>
    29ec:	a6 95       	lsr	r26
    29ee:	e0 f7       	brcc	.-8      	; 0x29e8 <pow+0x50>
    29f0:	f7 39       	cpi	r31, 0x97	; 151
    29f2:	50 f0       	brcs	.+20     	; 0x2a08 <pow+0x70>
    29f4:	19 f0       	breq	.+6      	; 0x29fc <pow+0x64>
    29f6:	ff 3a       	cpi	r31, 0xAF	; 175
    29f8:	38 f4       	brcc	.+14     	; 0x2a08 <pow+0x70>
    29fa:	9f 77       	andi	r25, 0x7F	; 127
    29fc:	9f 93       	push	r25
    29fe:	0c d0       	rcall	.+24     	; 0x2a18 <pow+0x80>
    2a00:	0f 90       	pop	r0
    2a02:	07 fc       	sbrc	r0, 7
    2a04:	90 58       	subi	r25, 0x80	; 128
    2a06:	08 95       	ret
    2a08:	3e f0       	brts	.+14     	; 0x2a18 <pow+0x80>
    2a0a:	14 cf       	rjmp	.-472    	; 0x2834 <__fp_nan>
    2a0c:	60 e0       	ldi	r22, 0x00	; 0
    2a0e:	70 e0       	ldi	r23, 0x00	; 0
    2a10:	80 e8       	ldi	r24, 0x80	; 128
    2a12:	9f e3       	ldi	r25, 0x3F	; 63
    2a14:	08 95       	ret
    2a16:	4f e7       	ldi	r20, 0x7F	; 127
    2a18:	9f 77       	andi	r25, 0x7F	; 127
    2a1a:	5f 93       	push	r21
    2a1c:	4f 93       	push	r20
    2a1e:	3f 93       	push	r19
    2a20:	2f 93       	push	r18
    2a22:	9e d0       	rcall	.+316    	; 0x2b60 <log>
    2a24:	2f 91       	pop	r18
    2a26:	3f 91       	pop	r19
    2a28:	4f 91       	pop	r20
    2a2a:	5f 91       	pop	r21
    2a2c:	52 df       	rcall	.-348    	; 0x28d2 <__mulsf3>
    2a2e:	05 c0       	rjmp	.+10     	; 0x2a3a <exp>
    2a30:	19 f4       	brne	.+6      	; 0x2a38 <pow+0xa0>
    2a32:	0e f0       	brts	.+2      	; 0x2a36 <pow+0x9e>
    2a34:	f9 ce       	rjmp	.-526    	; 0x2828 <__fp_inf>
    2a36:	42 cf       	rjmp	.-380    	; 0x28bc <__fp_zero>
    2a38:	fd ce       	rjmp	.-518    	; 0x2834 <__fp_nan>

00002a3a <exp>:
    2a3a:	26 df       	rcall	.-436    	; 0x2888 <__fp_splitA>
    2a3c:	c8 f3       	brcs	.-14     	; 0x2a30 <pow+0x98>
    2a3e:	96 38       	cpi	r25, 0x86	; 134
    2a40:	c0 f7       	brcc	.-16     	; 0x2a32 <pow+0x9a>
    2a42:	07 f8       	bld	r0, 7
    2a44:	0f 92       	push	r0
    2a46:	e8 94       	clt
    2a48:	2b e3       	ldi	r18, 0x3B	; 59
    2a4a:	3a ea       	ldi	r19, 0xAA	; 170
    2a4c:	48 eb       	ldi	r20, 0xB8	; 184
    2a4e:	5f e7       	ldi	r21, 0x7F	; 127
    2a50:	4e df       	rcall	.-356    	; 0x28ee <__mulsf3_pse>
    2a52:	0f 92       	push	r0
    2a54:	0f 92       	push	r0
    2a56:	0f 92       	push	r0
    2a58:	4d b7       	in	r20, 0x3d	; 61
    2a5a:	5e b7       	in	r21, 0x3e	; 62
    2a5c:	0f 92       	push	r0
    2a5e:	c0 d0       	rcall	.+384    	; 0x2be0 <modf>
    2a60:	e2 ec       	ldi	r30, 0xC2	; 194
    2a62:	f0 e0       	ldi	r31, 0x00	; 0
    2a64:	16 d0       	rcall	.+44     	; 0x2a92 <__fp_powser>
    2a66:	4f 91       	pop	r20
    2a68:	5f 91       	pop	r21
    2a6a:	ef 91       	pop	r30
    2a6c:	ff 91       	pop	r31
    2a6e:	e5 95       	asr	r30
    2a70:	ee 1f       	adc	r30, r30
    2a72:	ff 1f       	adc	r31, r31
    2a74:	49 f0       	breq	.+18     	; 0x2a88 <exp+0x4e>
    2a76:	fe 57       	subi	r31, 0x7E	; 126
    2a78:	e0 68       	ori	r30, 0x80	; 128
    2a7a:	44 27       	eor	r20, r20
    2a7c:	ee 0f       	add	r30, r30
    2a7e:	44 1f       	adc	r20, r20
    2a80:	fa 95       	dec	r31
    2a82:	e1 f7       	brne	.-8      	; 0x2a7c <exp+0x42>
    2a84:	41 95       	neg	r20
    2a86:	55 0b       	sbc	r21, r21
    2a88:	32 d0       	rcall	.+100    	; 0x2aee <ldexp>
    2a8a:	0f 90       	pop	r0
    2a8c:	07 fe       	sbrs	r0, 7
    2a8e:	26 c0       	rjmp	.+76     	; 0x2adc <inverse>
    2a90:	08 95       	ret

00002a92 <__fp_powser>:
    2a92:	df 93       	push	r29
    2a94:	cf 93       	push	r28
    2a96:	1f 93       	push	r17
    2a98:	0f 93       	push	r16
    2a9a:	ff 92       	push	r15
    2a9c:	ef 92       	push	r14
    2a9e:	df 92       	push	r13
    2aa0:	7b 01       	movw	r14, r22
    2aa2:	8c 01       	movw	r16, r24
    2aa4:	68 94       	set
    2aa6:	05 c0       	rjmp	.+10     	; 0x2ab2 <__fp_powser+0x20>
    2aa8:	da 2e       	mov	r13, r26
    2aaa:	ef 01       	movw	r28, r30
    2aac:	1e df       	rcall	.-452    	; 0x28ea <__mulsf3x>
    2aae:	fe 01       	movw	r30, r28
    2ab0:	e8 94       	clt
    2ab2:	a5 91       	lpm	r26, Z+
    2ab4:	25 91       	lpm	r18, Z+
    2ab6:	35 91       	lpm	r19, Z+
    2ab8:	45 91       	lpm	r20, Z+
    2aba:	55 91       	lpm	r21, Z+
    2abc:	ae f3       	brts	.-22     	; 0x2aa8 <__fp_powser+0x16>
    2abe:	ef 01       	movw	r28, r30
    2ac0:	62 dd       	rcall	.-1340   	; 0x2586 <__addsf3x>
    2ac2:	fe 01       	movw	r30, r28
    2ac4:	97 01       	movw	r18, r14
    2ac6:	a8 01       	movw	r20, r16
    2ac8:	da 94       	dec	r13
    2aca:	79 f7       	brne	.-34     	; 0x2aaa <__fp_powser+0x18>
    2acc:	df 90       	pop	r13
    2ace:	ef 90       	pop	r14
    2ad0:	ff 90       	pop	r15
    2ad2:	0f 91       	pop	r16
    2ad4:	1f 91       	pop	r17
    2ad6:	cf 91       	pop	r28
    2ad8:	df 91       	pop	r29
    2ada:	08 95       	ret

00002adc <inverse>:
    2adc:	9b 01       	movw	r18, r22
    2ade:	ac 01       	movw	r20, r24
    2ae0:	60 e0       	ldi	r22, 0x00	; 0
    2ae2:	70 e0       	ldi	r23, 0x00	; 0
    2ae4:	80 e8       	ldi	r24, 0x80	; 128
    2ae6:	9f e3       	ldi	r25, 0x3F	; 63
    2ae8:	a5 cd       	rjmp	.-1206   	; 0x2634 <__divsf3>
    2aea:	9e ce       	rjmp	.-708    	; 0x2828 <__fp_inf>
    2aec:	ac c0       	rjmp	.+344    	; 0x2c46 <__fp_mpack>

00002aee <ldexp>:
    2aee:	cc de       	rcall	.-616    	; 0x2888 <__fp_splitA>
    2af0:	e8 f3       	brcs	.-6      	; 0x2aec <inverse+0x10>
    2af2:	99 23       	and	r25, r25
    2af4:	d9 f3       	breq	.-10     	; 0x2aec <inverse+0x10>
    2af6:	94 0f       	add	r25, r20
    2af8:	51 1d       	adc	r21, r1
    2afa:	bb f3       	brvs	.-18     	; 0x2aea <inverse+0xe>
    2afc:	91 50       	subi	r25, 0x01	; 1
    2afe:	50 40       	sbci	r21, 0x00	; 0
    2b00:	94 f0       	brlt	.+36     	; 0x2b26 <ldexp+0x38>
    2b02:	59 f0       	breq	.+22     	; 0x2b1a <ldexp+0x2c>
    2b04:	88 23       	and	r24, r24
    2b06:	32 f0       	brmi	.+12     	; 0x2b14 <ldexp+0x26>
    2b08:	66 0f       	add	r22, r22
    2b0a:	77 1f       	adc	r23, r23
    2b0c:	88 1f       	adc	r24, r24
    2b0e:	91 50       	subi	r25, 0x01	; 1
    2b10:	50 40       	sbci	r21, 0x00	; 0
    2b12:	c1 f7       	brne	.-16     	; 0x2b04 <ldexp+0x16>
    2b14:	9e 3f       	cpi	r25, 0xFE	; 254
    2b16:	51 05       	cpc	r21, r1
    2b18:	44 f7       	brge	.-48     	; 0x2aea <inverse+0xe>
    2b1a:	88 0f       	add	r24, r24
    2b1c:	91 1d       	adc	r25, r1
    2b1e:	96 95       	lsr	r25
    2b20:	87 95       	ror	r24
    2b22:	97 f9       	bld	r25, 7
    2b24:	08 95       	ret
    2b26:	5f 3f       	cpi	r21, 0xFF	; 255
    2b28:	ac f0       	brlt	.+42     	; 0x2b54 <ldexp+0x66>
    2b2a:	98 3e       	cpi	r25, 0xE8	; 232
    2b2c:	9c f0       	brlt	.+38     	; 0x2b54 <ldexp+0x66>
    2b2e:	bb 27       	eor	r27, r27
    2b30:	86 95       	lsr	r24
    2b32:	77 95       	ror	r23
    2b34:	67 95       	ror	r22
    2b36:	b7 95       	ror	r27
    2b38:	08 f4       	brcc	.+2      	; 0x2b3c <ldexp+0x4e>
    2b3a:	b1 60       	ori	r27, 0x01	; 1
    2b3c:	93 95       	inc	r25
    2b3e:	c1 f7       	brne	.-16     	; 0x2b30 <ldexp+0x42>
    2b40:	bb 0f       	add	r27, r27
    2b42:	58 f7       	brcc	.-42     	; 0x2b1a <ldexp+0x2c>
    2b44:	11 f4       	brne	.+4      	; 0x2b4a <ldexp+0x5c>
    2b46:	60 ff       	sbrs	r22, 0
    2b48:	e8 cf       	rjmp	.-48     	; 0x2b1a <ldexp+0x2c>
    2b4a:	6f 5f       	subi	r22, 0xFF	; 255
    2b4c:	7f 4f       	sbci	r23, 0xFF	; 255
    2b4e:	8f 4f       	sbci	r24, 0xFF	; 255
    2b50:	9f 4f       	sbci	r25, 0xFF	; 255
    2b52:	e3 cf       	rjmp	.-58     	; 0x2b1a <ldexp+0x2c>
    2b54:	b4 ce       	rjmp	.-664    	; 0x28be <__fp_szero>
    2b56:	0e f0       	brts	.+2      	; 0x2b5a <ldexp+0x6c>
    2b58:	76 c0       	rjmp	.+236    	; 0x2c46 <__fp_mpack>
    2b5a:	6c ce       	rjmp	.-808    	; 0x2834 <__fp_nan>
    2b5c:	68 94       	set
    2b5e:	64 ce       	rjmp	.-824    	; 0x2828 <__fp_inf>

00002b60 <log>:
    2b60:	93 de       	rcall	.-730    	; 0x2888 <__fp_splitA>
    2b62:	c8 f3       	brcs	.-14     	; 0x2b56 <ldexp+0x68>
    2b64:	99 23       	and	r25, r25
    2b66:	d1 f3       	breq	.-12     	; 0x2b5c <ldexp+0x6e>
    2b68:	c6 f3       	brts	.-16     	; 0x2b5a <ldexp+0x6c>
    2b6a:	df 93       	push	r29
    2b6c:	cf 93       	push	r28
    2b6e:	1f 93       	push	r17
    2b70:	0f 93       	push	r16
    2b72:	ff 92       	push	r15
    2b74:	c9 2f       	mov	r28, r25
    2b76:	dd 27       	eor	r29, r29
    2b78:	88 23       	and	r24, r24
    2b7a:	2a f0       	brmi	.+10     	; 0x2b86 <log+0x26>
    2b7c:	21 97       	sbiw	r28, 0x01	; 1
    2b7e:	66 0f       	add	r22, r22
    2b80:	77 1f       	adc	r23, r23
    2b82:	88 1f       	adc	r24, r24
    2b84:	da f7       	brpl	.-10     	; 0x2b7c <log+0x1c>
    2b86:	20 e0       	ldi	r18, 0x00	; 0
    2b88:	30 e0       	ldi	r19, 0x00	; 0
    2b8a:	40 e8       	ldi	r20, 0x80	; 128
    2b8c:	5f eb       	ldi	r21, 0xBF	; 191
    2b8e:	9f e3       	ldi	r25, 0x3F	; 63
    2b90:	88 39       	cpi	r24, 0x98	; 152
    2b92:	20 f0       	brcs	.+8      	; 0x2b9c <log+0x3c>
    2b94:	80 3e       	cpi	r24, 0xE0	; 224
    2b96:	30 f0       	brcs	.+12     	; 0x2ba4 <log+0x44>
    2b98:	21 96       	adiw	r28, 0x01	; 1
    2b9a:	8f 77       	andi	r24, 0x7F	; 127
    2b9c:	e3 dc       	rcall	.-1594   	; 0x2564 <__addsf3>
    2b9e:	ea ee       	ldi	r30, 0xEA	; 234
    2ba0:	f0 e0       	ldi	r31, 0x00	; 0
    2ba2:	03 c0       	rjmp	.+6      	; 0x2baa <log+0x4a>
    2ba4:	df dc       	rcall	.-1602   	; 0x2564 <__addsf3>
    2ba6:	e7 e1       	ldi	r30, 0x17	; 23
    2ba8:	f1 e0       	ldi	r31, 0x01	; 1
    2baa:	73 df       	rcall	.-282    	; 0x2a92 <__fp_powser>
    2bac:	8b 01       	movw	r16, r22
    2bae:	be 01       	movw	r22, r28
    2bb0:	ec 01       	movw	r28, r24
    2bb2:	fb 2e       	mov	r15, r27
    2bb4:	6f 57       	subi	r22, 0x7F	; 127
    2bb6:	71 09       	sbc	r23, r1
    2bb8:	75 95       	asr	r23
    2bba:	77 1f       	adc	r23, r23
    2bbc:	88 0b       	sbc	r24, r24
    2bbe:	99 0b       	sbc	r25, r25
    2bc0:	d4 dd       	rcall	.-1112   	; 0x276a <__floatsisf>
    2bc2:	28 e1       	ldi	r18, 0x18	; 24
    2bc4:	32 e7       	ldi	r19, 0x72	; 114
    2bc6:	41 e3       	ldi	r20, 0x31	; 49
    2bc8:	5f e3       	ldi	r21, 0x3F	; 63
    2bca:	8f de       	rcall	.-738    	; 0x28ea <__mulsf3x>
    2bcc:	af 2d       	mov	r26, r15
    2bce:	98 01       	movw	r18, r16
    2bd0:	ae 01       	movw	r20, r28
    2bd2:	ff 90       	pop	r15
    2bd4:	0f 91       	pop	r16
    2bd6:	1f 91       	pop	r17
    2bd8:	cf 91       	pop	r28
    2bda:	df 91       	pop	r29
    2bdc:	d4 dc       	rcall	.-1624   	; 0x2586 <__addsf3x>
    2bde:	3b ce       	rjmp	.-906    	; 0x2856 <__fp_round>

00002be0 <modf>:
    2be0:	fa 01       	movw	r30, r20
    2be2:	dc 01       	movw	r26, r24
    2be4:	aa 0f       	add	r26, r26
    2be6:	bb 1f       	adc	r27, r27
    2be8:	9b 01       	movw	r18, r22
    2bea:	ac 01       	movw	r20, r24
    2bec:	bf 57       	subi	r27, 0x7F	; 127
    2bee:	28 f4       	brcc	.+10     	; 0x2bfa <modf+0x1a>
    2bf0:	22 27       	eor	r18, r18
    2bf2:	33 27       	eor	r19, r19
    2bf4:	44 27       	eor	r20, r20
    2bf6:	50 78       	andi	r21, 0x80	; 128
    2bf8:	1f c0       	rjmp	.+62     	; 0x2c38 <modf+0x58>
    2bfa:	b7 51       	subi	r27, 0x17	; 23
    2bfc:	88 f4       	brcc	.+34     	; 0x2c20 <modf+0x40>
    2bfe:	ab 2f       	mov	r26, r27
    2c00:	00 24       	eor	r0, r0
    2c02:	46 95       	lsr	r20
    2c04:	37 95       	ror	r19
    2c06:	27 95       	ror	r18
    2c08:	01 1c       	adc	r0, r1
    2c0a:	a3 95       	inc	r26
    2c0c:	d2 f3       	brmi	.-12     	; 0x2c02 <modf+0x22>
    2c0e:	00 20       	and	r0, r0
    2c10:	69 f0       	breq	.+26     	; 0x2c2c <modf+0x4c>
    2c12:	22 0f       	add	r18, r18
    2c14:	33 1f       	adc	r19, r19
    2c16:	44 1f       	adc	r20, r20
    2c18:	b3 95       	inc	r27
    2c1a:	da f3       	brmi	.-10     	; 0x2c12 <modf+0x32>
    2c1c:	0d d0       	rcall	.+26     	; 0x2c38 <modf+0x58>
    2c1e:	a1 cc       	rjmp	.-1726   	; 0x2562 <__subsf3>
    2c20:	61 30       	cpi	r22, 0x01	; 1
    2c22:	71 05       	cpc	r23, r1
    2c24:	a0 e8       	ldi	r26, 0x80	; 128
    2c26:	8a 07       	cpc	r24, r26
    2c28:	b9 46       	sbci	r27, 0x69	; 105
    2c2a:	30 f4       	brcc	.+12     	; 0x2c38 <modf+0x58>
    2c2c:	9b 01       	movw	r18, r22
    2c2e:	ac 01       	movw	r20, r24
    2c30:	66 27       	eor	r22, r22
    2c32:	77 27       	eor	r23, r23
    2c34:	88 27       	eor	r24, r24
    2c36:	90 78       	andi	r25, 0x80	; 128
    2c38:	30 96       	adiw	r30, 0x00	; 0
    2c3a:	21 f0       	breq	.+8      	; 0x2c44 <modf+0x64>
    2c3c:	20 83       	st	Z, r18
    2c3e:	31 83       	std	Z+1, r19	; 0x01
    2c40:	42 83       	std	Z+2, r20	; 0x02
    2c42:	53 83       	std	Z+3, r21	; 0x03
    2c44:	08 95       	ret

00002c46 <__fp_mpack>:
    2c46:	9f 3f       	cpi	r25, 0xFF	; 255
    2c48:	31 f0       	breq	.+12     	; 0x2c56 <__fp_mpack_finite+0xc>

00002c4a <__fp_mpack_finite>:
    2c4a:	91 50       	subi	r25, 0x01	; 1
    2c4c:	20 f4       	brcc	.+8      	; 0x2c56 <__fp_mpack_finite+0xc>
    2c4e:	87 95       	ror	r24
    2c50:	77 95       	ror	r23
    2c52:	67 95       	ror	r22
    2c54:	b7 95       	ror	r27
    2c56:	88 0f       	add	r24, r24
    2c58:	91 1d       	adc	r25, r1
    2c5a:	96 95       	lsr	r25
    2c5c:	87 95       	ror	r24
    2c5e:	97 f9       	bld	r25, 7
    2c60:	08 95       	ret

00002c62 <__mulsi3>:
    2c62:	db 01       	movw	r26, r22
    2c64:	8f 93       	push	r24
    2c66:	9f 93       	push	r25
    2c68:	88 d0       	rcall	.+272    	; 0x2d7a <__muluhisi3>
    2c6a:	bf 91       	pop	r27
    2c6c:	af 91       	pop	r26
    2c6e:	a2 9f       	mul	r26, r18
    2c70:	80 0d       	add	r24, r0
    2c72:	91 1d       	adc	r25, r1
    2c74:	a3 9f       	mul	r26, r19
    2c76:	90 0d       	add	r25, r0
    2c78:	b2 9f       	mul	r27, r18
    2c7a:	90 0d       	add	r25, r0
    2c7c:	11 24       	eor	r1, r1
    2c7e:	08 95       	ret

00002c80 <__udivmodhi4>:
    2c80:	aa 1b       	sub	r26, r26
    2c82:	bb 1b       	sub	r27, r27
    2c84:	51 e1       	ldi	r21, 0x11	; 17
    2c86:	07 c0       	rjmp	.+14     	; 0x2c96 <__udivmodhi4_ep>

00002c88 <__udivmodhi4_loop>:
    2c88:	aa 1f       	adc	r26, r26
    2c8a:	bb 1f       	adc	r27, r27
    2c8c:	a6 17       	cp	r26, r22
    2c8e:	b7 07       	cpc	r27, r23
    2c90:	10 f0       	brcs	.+4      	; 0x2c96 <__udivmodhi4_ep>
    2c92:	a6 1b       	sub	r26, r22
    2c94:	b7 0b       	sbc	r27, r23

00002c96 <__udivmodhi4_ep>:
    2c96:	88 1f       	adc	r24, r24
    2c98:	99 1f       	adc	r25, r25
    2c9a:	5a 95       	dec	r21
    2c9c:	a9 f7       	brne	.-22     	; 0x2c88 <__udivmodhi4_loop>
    2c9e:	80 95       	com	r24
    2ca0:	90 95       	com	r25
    2ca2:	bc 01       	movw	r22, r24
    2ca4:	cd 01       	movw	r24, r26
    2ca6:	08 95       	ret

00002ca8 <__divmodhi4>:
    2ca8:	97 fb       	bst	r25, 7
    2caa:	07 2e       	mov	r0, r23
    2cac:	16 f4       	brtc	.+4      	; 0x2cb2 <__divmodhi4+0xa>
    2cae:	00 94       	com	r0
    2cb0:	06 d0       	rcall	.+12     	; 0x2cbe <__divmodhi4_neg1>
    2cb2:	77 fd       	sbrc	r23, 7
    2cb4:	08 d0       	rcall	.+16     	; 0x2cc6 <__divmodhi4_neg2>
    2cb6:	e4 df       	rcall	.-56     	; 0x2c80 <__udivmodhi4>
    2cb8:	07 fc       	sbrc	r0, 7
    2cba:	05 d0       	rcall	.+10     	; 0x2cc6 <__divmodhi4_neg2>
    2cbc:	3e f4       	brtc	.+14     	; 0x2ccc <__divmodhi4_exit>

00002cbe <__divmodhi4_neg1>:
    2cbe:	90 95       	com	r25
    2cc0:	81 95       	neg	r24
    2cc2:	9f 4f       	sbci	r25, 0xFF	; 255
    2cc4:	08 95       	ret

00002cc6 <__divmodhi4_neg2>:
    2cc6:	70 95       	com	r23
    2cc8:	61 95       	neg	r22
    2cca:	7f 4f       	sbci	r23, 0xFF	; 255

00002ccc <__divmodhi4_exit>:
    2ccc:	08 95       	ret

00002cce <__udivmodsi4>:
    2cce:	a1 e2       	ldi	r26, 0x21	; 33
    2cd0:	1a 2e       	mov	r1, r26
    2cd2:	aa 1b       	sub	r26, r26
    2cd4:	bb 1b       	sub	r27, r27
    2cd6:	fd 01       	movw	r30, r26
    2cd8:	0d c0       	rjmp	.+26     	; 0x2cf4 <__udivmodsi4_ep>

00002cda <__udivmodsi4_loop>:
    2cda:	aa 1f       	adc	r26, r26
    2cdc:	bb 1f       	adc	r27, r27
    2cde:	ee 1f       	adc	r30, r30
    2ce0:	ff 1f       	adc	r31, r31
    2ce2:	a2 17       	cp	r26, r18
    2ce4:	b3 07       	cpc	r27, r19
    2ce6:	e4 07       	cpc	r30, r20
    2ce8:	f5 07       	cpc	r31, r21
    2cea:	20 f0       	brcs	.+8      	; 0x2cf4 <__udivmodsi4_ep>
    2cec:	a2 1b       	sub	r26, r18
    2cee:	b3 0b       	sbc	r27, r19
    2cf0:	e4 0b       	sbc	r30, r20
    2cf2:	f5 0b       	sbc	r31, r21

00002cf4 <__udivmodsi4_ep>:
    2cf4:	66 1f       	adc	r22, r22
    2cf6:	77 1f       	adc	r23, r23
    2cf8:	88 1f       	adc	r24, r24
    2cfa:	99 1f       	adc	r25, r25
    2cfc:	1a 94       	dec	r1
    2cfe:	69 f7       	brne	.-38     	; 0x2cda <__udivmodsi4_loop>
    2d00:	60 95       	com	r22
    2d02:	70 95       	com	r23
    2d04:	80 95       	com	r24
    2d06:	90 95       	com	r25
    2d08:	9b 01       	movw	r18, r22
    2d0a:	ac 01       	movw	r20, r24
    2d0c:	bd 01       	movw	r22, r26
    2d0e:	cf 01       	movw	r24, r30
    2d10:	08 95       	ret

00002d12 <__divmodsi4>:
    2d12:	05 2e       	mov	r0, r21
    2d14:	97 fb       	bst	r25, 7
    2d16:	16 f4       	brtc	.+4      	; 0x2d1c <__divmodsi4+0xa>
    2d18:	00 94       	com	r0
    2d1a:	0f d0       	rcall	.+30     	; 0x2d3a <__negsi2>
    2d1c:	57 fd       	sbrc	r21, 7
    2d1e:	05 d0       	rcall	.+10     	; 0x2d2a <__divmodsi4_neg2>
    2d20:	d6 df       	rcall	.-84     	; 0x2cce <__udivmodsi4>
    2d22:	07 fc       	sbrc	r0, 7
    2d24:	02 d0       	rcall	.+4      	; 0x2d2a <__divmodsi4_neg2>
    2d26:	46 f4       	brtc	.+16     	; 0x2d38 <__divmodsi4_exit>
    2d28:	08 c0       	rjmp	.+16     	; 0x2d3a <__negsi2>

00002d2a <__divmodsi4_neg2>:
    2d2a:	50 95       	com	r21
    2d2c:	40 95       	com	r20
    2d2e:	30 95       	com	r19
    2d30:	21 95       	neg	r18
    2d32:	3f 4f       	sbci	r19, 0xFF	; 255
    2d34:	4f 4f       	sbci	r20, 0xFF	; 255
    2d36:	5f 4f       	sbci	r21, 0xFF	; 255

00002d38 <__divmodsi4_exit>:
    2d38:	08 95       	ret

00002d3a <__negsi2>:
    2d3a:	90 95       	com	r25
    2d3c:	80 95       	com	r24
    2d3e:	70 95       	com	r23
    2d40:	61 95       	neg	r22
    2d42:	7f 4f       	sbci	r23, 0xFF	; 255
    2d44:	8f 4f       	sbci	r24, 0xFF	; 255
    2d46:	9f 4f       	sbci	r25, 0xFF	; 255
    2d48:	08 95       	ret

00002d4a <__tablejump2__>:
    2d4a:	ee 0f       	add	r30, r30
    2d4c:	ff 1f       	adc	r31, r31
    2d4e:	00 24       	eor	r0, r0
    2d50:	00 1c       	adc	r0, r0
    2d52:	0b be       	out	0x3b, r0	; 59
    2d54:	07 90       	elpm	r0, Z+
    2d56:	f6 91       	elpm	r31, Z
    2d58:	e0 2d       	mov	r30, r0
    2d5a:	09 94       	ijmp

00002d5c <__umulhisi3>:
    2d5c:	a2 9f       	mul	r26, r18
    2d5e:	b0 01       	movw	r22, r0
    2d60:	b3 9f       	mul	r27, r19
    2d62:	c0 01       	movw	r24, r0
    2d64:	a3 9f       	mul	r26, r19
    2d66:	70 0d       	add	r23, r0
    2d68:	81 1d       	adc	r24, r1
    2d6a:	11 24       	eor	r1, r1
    2d6c:	91 1d       	adc	r25, r1
    2d6e:	b2 9f       	mul	r27, r18
    2d70:	70 0d       	add	r23, r0
    2d72:	81 1d       	adc	r24, r1
    2d74:	11 24       	eor	r1, r1
    2d76:	91 1d       	adc	r25, r1
    2d78:	08 95       	ret

00002d7a <__muluhisi3>:
    2d7a:	f0 df       	rcall	.-32     	; 0x2d5c <__umulhisi3>
    2d7c:	a5 9f       	mul	r26, r21
    2d7e:	90 0d       	add	r25, r0
    2d80:	b4 9f       	mul	r27, r20
    2d82:	90 0d       	add	r25, r0
    2d84:	a4 9f       	mul	r26, r20
    2d86:	80 0d       	add	r24, r0
    2d88:	91 1d       	adc	r25, r1
    2d8a:	11 24       	eor	r1, r1
    2d8c:	08 95       	ret

00002d8e <eeprom_read_block>:
    2d8e:	dc 01       	movw	r26, r24
    2d90:	cb 01       	movw	r24, r22

00002d92 <eeprom_read_blraw>:
    2d92:	fc 01       	movw	r30, r24
    2d94:	e1 99       	sbic	0x1c, 1	; 28
    2d96:	fe cf       	rjmp	.-4      	; 0x2d94 <eeprom_read_blraw+0x2>
    2d98:	06 c0       	rjmp	.+12     	; 0x2da6 <eeprom_read_blraw+0x14>
    2d9a:	ff bb       	out	0x1f, r31	; 31
    2d9c:	ee bb       	out	0x1e, r30	; 30
    2d9e:	e0 9a       	sbi	0x1c, 0	; 28
    2da0:	31 96       	adiw	r30, 0x01	; 1
    2da2:	0d b2       	in	r0, 0x1d	; 29
    2da4:	0d 92       	st	X+, r0
    2da6:	41 50       	subi	r20, 0x01	; 1
    2da8:	50 40       	sbci	r21, 0x00	; 0
    2daa:	b8 f7       	brcc	.-18     	; 0x2d9a <eeprom_read_blraw+0x8>
    2dac:	08 95       	ret

00002dae <eeprom_read_byte>:
    2dae:	e1 99       	sbic	0x1c, 1	; 28
    2db0:	fe cf       	rjmp	.-4      	; 0x2dae <eeprom_read_byte>
    2db2:	9f bb       	out	0x1f, r25	; 31
    2db4:	8e bb       	out	0x1e, r24	; 30
    2db6:	e0 9a       	sbi	0x1c, 0	; 28
    2db8:	99 27       	eor	r25, r25
    2dba:	8d b3       	in	r24, 0x1d	; 29
    2dbc:	08 95       	ret

00002dbe <eeprom_read_word>:
    2dbe:	a8 e1       	ldi	r26, 0x18	; 24
    2dc0:	b0 e0       	ldi	r27, 0x00	; 0
    2dc2:	42 e0       	ldi	r20, 0x02	; 2
    2dc4:	50 e0       	ldi	r21, 0x00	; 0
    2dc6:	e5 cf       	rjmp	.-54     	; 0x2d92 <eeprom_read_blraw>

00002dc8 <eeprom_update_block>:
    2dc8:	dc 01       	movw	r26, r24
    2dca:	a4 0f       	add	r26, r20
    2dcc:	b5 1f       	adc	r27, r21
    2dce:	41 50       	subi	r20, 0x01	; 1
    2dd0:	50 40       	sbci	r21, 0x00	; 0
    2dd2:	40 f0       	brcs	.+16     	; 0x2de4 <eeprom_update_block+0x1c>
    2dd4:	cb 01       	movw	r24, r22
    2dd6:	84 0f       	add	r24, r20
    2dd8:	95 1f       	adc	r25, r21
    2dda:	2e 91       	ld	r18, -X
    2ddc:	05 d0       	rcall	.+10     	; 0x2de8 <eeprom_update_r18>
    2dde:	41 50       	subi	r20, 0x01	; 1
    2de0:	50 40       	sbci	r21, 0x00	; 0
    2de2:	d8 f7       	brcc	.-10     	; 0x2dda <eeprom_update_block+0x12>
    2de4:	08 95       	ret

00002de6 <eeprom_update_byte>:
    2de6:	26 2f       	mov	r18, r22

00002de8 <eeprom_update_r18>:
    2de8:	e1 99       	sbic	0x1c, 1	; 28
    2dea:	fe cf       	rjmp	.-4      	; 0x2de8 <eeprom_update_r18>
    2dec:	9f bb       	out	0x1f, r25	; 31
    2dee:	8e bb       	out	0x1e, r24	; 30
    2df0:	e0 9a       	sbi	0x1c, 0	; 28
    2df2:	01 97       	sbiw	r24, 0x01	; 1
    2df4:	0d b2       	in	r0, 0x1d	; 29
    2df6:	02 16       	cp	r0, r18
    2df8:	31 f0       	breq	.+12     	; 0x2e06 <eeprom_update_r18+0x1e>
    2dfa:	2d bb       	out	0x1d, r18	; 29
    2dfc:	0f b6       	in	r0, 0x3f	; 63
    2dfe:	f8 94       	cli
    2e00:	e2 9a       	sbi	0x1c, 2	; 28
    2e02:	e1 9a       	sbi	0x1c, 1	; 28
    2e04:	0f be       	out	0x3f, r0	; 63
    2e06:	08 95       	ret

00002e08 <eeprom_update_dword>:
    2e08:	03 96       	adiw	r24, 0x03	; 3
    2e0a:	27 2f       	mov	r18, r23
    2e0c:	ed df       	rcall	.-38     	; 0x2de8 <eeprom_update_r18>
    2e0e:	eb df       	rcall	.-42     	; 0x2de6 <eeprom_update_byte>
    2e10:	25 2f       	mov	r18, r21
    2e12:	ea df       	rcall	.-44     	; 0x2de8 <eeprom_update_r18>
    2e14:	24 2f       	mov	r18, r20
    2e16:	e8 cf       	rjmp	.-48     	; 0x2de8 <eeprom_update_r18>

00002e18 <eeprom_update_word>:
    2e18:	01 96       	adiw	r24, 0x01	; 1
    2e1a:	27 2f       	mov	r18, r23
    2e1c:	e5 df       	rcall	.-54     	; 0x2de8 <eeprom_update_r18>
    2e1e:	e3 cf       	rjmp	.-58     	; 0x2de6 <eeprom_update_byte>

00002e20 <eeprom_write_block>:
    2e20:	dc 01       	movw	r26, r24
    2e22:	cb 01       	movw	r24, r22
    2e24:	02 c0       	rjmp	.+4      	; 0x2e2a <eeprom_write_block+0xa>
    2e26:	2d 91       	ld	r18, X+
    2e28:	05 d0       	rcall	.+10     	; 0x2e34 <eeprom_write_r18>
    2e2a:	41 50       	subi	r20, 0x01	; 1
    2e2c:	50 40       	sbci	r21, 0x00	; 0
    2e2e:	d8 f7       	brcc	.-10     	; 0x2e26 <eeprom_write_block+0x6>
    2e30:	08 95       	ret

00002e32 <eeprom_write_byte>:
    2e32:	26 2f       	mov	r18, r22

00002e34 <eeprom_write_r18>:
    2e34:	e1 99       	sbic	0x1c, 1	; 28
    2e36:	fe cf       	rjmp	.-4      	; 0x2e34 <eeprom_write_r18>
    2e38:	9f bb       	out	0x1f, r25	; 31
    2e3a:	8e bb       	out	0x1e, r24	; 30
    2e3c:	2d bb       	out	0x1d, r18	; 29
    2e3e:	0f b6       	in	r0, 0x3f	; 63
    2e40:	f8 94       	cli
    2e42:	e2 9a       	sbi	0x1c, 2	; 28
    2e44:	e1 9a       	sbi	0x1c, 1	; 28
    2e46:	0f be       	out	0x3f, r0	; 63
    2e48:	01 96       	adiw	r24, 0x01	; 1
    2e4a:	08 95       	ret

00002e4c <eeprom_write_dword>:
    2e4c:	24 2f       	mov	r18, r20
    2e4e:	f2 df       	rcall	.-28     	; 0x2e34 <eeprom_write_r18>
    2e50:	25 2f       	mov	r18, r21
    2e52:	f0 df       	rcall	.-32     	; 0x2e34 <eeprom_write_r18>
    2e54:	00 c0       	rjmp	.+0      	; 0x2e56 <eeprom_write_word>

00002e56 <eeprom_write_word>:
    2e56:	ed df       	rcall	.-38     	; 0x2e32 <eeprom_write_byte>
    2e58:	27 2f       	mov	r18, r23
    2e5a:	ec cf       	rjmp	.-40     	; 0x2e34 <eeprom_write_r18>

00002e5c <_exit>:
    2e5c:	f8 94       	cli

00002e5e <__stop_program>:
    2e5e:	ff cf       	rjmp	.-2      	; 0x2e5e <__stop_program>
